Archive member included because of file (symbol)

eobj/libengine.a(engine.o)    obj/game.o (md_tilehasmodel)
eobj/libengine.a(winlayer.o)  obj/winbits.o (win_gethwnd)
eobj/libengine.a(mmulti.o)    obj/game.o (setpackettimeout)
eobj/libengine.a(cache1d.o)   eobj/libengine.a(engine.o) (initcache)
eobj/libengine.a(osd.o)       obj/game.o (OSD_SetLogFile)
eobj/libengine.a(defs.o)      obj/game.o (loaddefinitionsfile)
eobj/libengine.a(compat.o)    obj/game.o (Bgethomedir)
eobj/libengine.a(pragmas.o)   obj/game.o (clearbufbyte)
eobj/libengine.a(baselayer.o)
                              eobj/libengine.a(winlayer.o) (baselayer_init)
eobj/libengine.a(crc32.o)     eobj/libengine.a(engine.o) (initcrc32table)
eobj/libengine.a(glbuild.o)   eobj/libengine.a(winlayer.o) (loadgldriver)
eobj/libengine.a(a.o)         eobj/libengine.a(engine.o) (sethlinesizes)
eobj/libengine.a(scriptfile.o)
                              eobj/libengine.a(engine.o) (scriptfile_gettoken)
eobj/libengine.a(lzf_d.o)     eobj/libengine.a(engine.o) (lzf_decompress)
eobj/libengine.a(lzf_c.o)     eobj/libengine.a(engine.o) (lzf_compress)
eobj/libengine.a(md4.o)       eobj/libengine.a(engine.o) (md4once)
eobj/libengine.a(kplib.o)     eobj/libengine.a(engine.o) (kpgetdim)
eobj/libengine.a(engineinfo.o)
                              eobj/libengine.a(baselayer.o) (_engine_date)
c:/mingw/bin/../lib/gcc/mingw32/3.4.2/../../../libmingwex.a(snprintf.o)
                              obj/game.o (snprintf)
c:/mingw/bin/../lib/gcc/mingw32/3.4.2/../../../libmingwex.a(dirent.o)
                              eobj/libengine.a(compat.o) (opendir)
c:/mingw/bin/../lib/gcc/mingw32/3.4.2/../../../libwinmm.a(dgtfs00084.o)
                              obj/mpu401.o (midiOutPrepareHeader@12)
c:/mingw/bin/../lib/gcc/mingw32/3.4.2/../../../libwinmm.a(dgtfs00091.o)
                              obj/mpu401.o (midiStreamOut@12)
c:/mingw/bin/../lib/gcc/mingw32/3.4.2/../../../libwinmm.a(dgtfs00095.o)
                              obj/mpu401.o (midiStreamRestart@4)
c:/mingw/bin/../lib/gcc/mingw32/3.4.2/../../../libwinmm.a(dgtfs00092.o)
                              obj/mpu401.o (midiStreamPause@4)
c:/mingw/bin/../lib/gcc/mingw32/3.4.2/../../../libwinmm.a(dgtfs00088.o)
                              obj/mpu401.o (midiOutUnprepareHeader@12)
c:/mingw/bin/../lib/gcc/mingw32/3.4.2/../../../libwinmm.a(dgtfs00087.o)
                              obj/mpu401.o (midiOutShortMsg@8)
c:/mingw/bin/../lib/gcc/mingw32/3.4.2/../../../libwinmm.a(dgtfs00081.o)
                              obj/mpu401.o (midiOutLongMsg@12)
c:/mingw/bin/../lib/gcc/mingw32/3.4.2/../../../libwinmm.a(dgtfs00096.o)
                              obj/mpu401.o (midiStreamStop@4)
c:/mingw/bin/../lib/gcc/mingw32/3.4.2/../../../libwinmm.a(dgtfs00089.o)
                              obj/mpu401.o (midiStreamClose@4)
c:/mingw/bin/../lib/gcc/mingw32/3.4.2/../../../libwinmm.a(dgtfs00074.o)
                              obj/mpu401.o (midiOutGetDevCapsA@12)
c:/mingw/bin/../lib/gcc/mingw32/3.4.2/../../../libwinmm.a(dgtfs00090.o)
                              obj/mpu401.o (midiStreamOpen@24)
c:/mingw/bin/../lib/gcc/mingw32/3.4.2/../../../libwinmm.a(dgtfs00094.o)
                              obj/mpu401.o (midiStreamProperty@12)
c:/mingw/bin/../lib/gcc/mingw32/3.4.2/../../../libwinmm.a(dgtfh.o)
                              c:/mingw/bin/../lib/gcc/mingw32/3.4.2/../../../libwinmm.a(dgtfs00084.o) (_head_libwinmm_a)
c:/mingw/bin/../lib/gcc/mingw32/3.4.2/../../../libwinmm.a(dgtft.o)
                              c:/mingw/bin/../lib/gcc/mingw32/3.4.2/../../../libwinmm.a(dgtfh.o) (_libwinmm_a_iname)
c:/mingw/bin/../lib/gcc/mingw32/3.4.2/../../../libwsock32.a(deoes00037.o)
                              eobj/libengine.a(mmulti.o) (closesocket@4)
c:/mingw/bin/../lib/gcc/mingw32/3.4.2/../../../libwsock32.a(deoes00025.o)
                              eobj/libengine.a(mmulti.o) (WSACleanup@0)
c:/mingw/bin/../lib/gcc/mingw32/3.4.2/../../../libwsock32.a(deoes00031.o)
                              eobj/libengine.a(mmulti.o) (WSAStartup@8)
c:/mingw/bin/../lib/gcc/mingw32/3.4.2/../../../libwsock32.a(deoes00072.o)
                              eobj/libengine.a(mmulti.o) (socket@12)
c:/mingw/bin/../lib/gcc/mingw32/3.4.2/../../../libwsock32.a(deoes00056.o)
                              eobj/libengine.a(mmulti.o) (ioctlsocket@12)
c:/mingw/bin/../lib/gcc/mingw32/3.4.2/../../../libwsock32.a(deoes00052.o)
                              eobj/libengine.a(mmulti.o) (htons@4)
c:/mingw/bin/../lib/gcc/mingw32/3.4.2/../../../libwsock32.a(deoes00036.o)
                              eobj/libengine.a(mmulti.o) (bind@12)
c:/mingw/bin/../lib/gcc/mingw32/3.4.2/../../../libwsock32.a(deoes00042.o)
                              eobj/libengine.a(mmulti.o) (gethostname@8)
c:/mingw/bin/../lib/gcc/mingw32/3.4.2/../../../libwsock32.a(deoes00041.o)
                              eobj/libengine.a(mmulti.o) (gethostbyname@4)
c:/mingw/bin/../lib/gcc/mingw32/3.4.2/../../../libwsock32.a(deoes00055.o)
                              eobj/libengine.a(mmulti.o) (inet_ntoa@4)
c:/mingw/bin/../lib/gcc/mingw32/3.4.2/../../../libwsock32.a(deoes00068.o)
                              eobj/libengine.a(mmulti.o) (sendto@24)
c:/mingw/bin/../lib/gcc/mingw32/3.4.2/../../../libwsock32.a(deoes00062.o)
                              eobj/libengine.a(mmulti.o) (recvfrom@24)
c:/mingw/bin/../lib/gcc/mingw32/3.4.2/../../../libwsock32.a(deoes00053.o)
                              eobj/libengine.a(mmulti.o) (inet_addr@4)
c:/mingw/bin/../lib/gcc/mingw32/3.4.2/../../../libwsock32.a(deoes00059.o)
                              eobj/libengine.a(mmulti.o) (ntohs@4)
c:/mingw/bin/../lib/gcc/mingw32/3.4.2/../../../libwsock32.a(deoeh.o)
                              c:/mingw/bin/../lib/gcc/mingw32/3.4.2/../../../libwsock32.a(deoes00037.o) (_head_libwsock32_a)
c:/mingw/bin/../lib/gcc/mingw32/3.4.2/../../../libwsock32.a(deoet.o)
                              c:/mingw/bin/../lib/gcc/mingw32/3.4.2/../../../libwsock32.a(deoeh.o) (_libwsock32_a_iname)
c:/mingw/bin/../lib/gcc/mingw32/3.4.2/../../../libdxguid.a(dxguid.o)
                              eobj/libengine.a(winlayer.o) (IID_IDirectDrawGammaControl)
c:/mingw/bin/../lib/gcc/mingw32/3.4.2/../../../libmingw32.a(CRTglob.o)
                              c:/mingw/bin/../lib/gcc/mingw32/3.4.2/../../../crt2.o (_CRT_glob)
c:/mingw/bin/../lib/gcc/mingw32/3.4.2/../../../libmingw32.a(CRTfmode.o)
                              c:/mingw/bin/../lib/gcc/mingw32/3.4.2/../../../crt2.o (_CRT_fmode)
c:/mingw/bin/../lib/gcc/mingw32/3.4.2/../../../libmingw32.a(txtmode.o)
                              c:/mingw/bin/../lib/gcc/mingw32/3.4.2/../../../crt2.o (_fmode)
c:/mingw/bin/../lib/gcc/mingw32/3.4.2/../../../libmingw32.a(main.o)
                              c:/mingw/bin/../lib/gcc/mingw32/3.4.2/../../../crt2.o (main)
c:/mingw/bin/../lib/gcc/mingw32/3.4.2/../../../libmingw32.a(pseudo-reloc.o)
                              c:/mingw/bin/../lib/gcc/mingw32/3.4.2/../../../crt2.o (_pei386_runtime_relocator)
c:/mingw/bin/../lib/gcc/mingw32/3.4.2/../../../libmingw32.a(CRT_fp10.o)
                              c:/mingw/bin/../lib/gcc/mingw32/3.4.2/../../../crt2.o (_fpreset)
c:/mingw/bin/../lib/gcc/mingw32/3.4.2/../../../libmingw32.a(gccmain.o)
                              c:/mingw/bin/../lib/gcc/mingw32/3.4.2/../../../libmingw32.a(main.o) (__main)
c:/mingw/bin/../lib/gcc/mingw32/3.4.2/../../../libmingw32.a(pseudo-reloc-list.o)
                              c:/mingw/bin/../lib/gcc/mingw32/3.4.2/../../../libmingw32.a(pseudo-reloc.o) (__RUNTIME_PSEUDO_RELOC_LIST__)
c:/mingw/bin/../lib/gcc/mingw32/3.4.2/libgcc.a(w32-shared-ptr.o)
                              c:/mingw/bin/../lib/gcc/mingw32/3.4.2/crtbegin.o (__w32_sharedptr_initialize)
c:/mingw/bin/../lib/gcc/mingw32/3.4.2/libgcc.a(_chkstk.o)
                              obj/game.o (_alloca)
c:/mingw/bin/../lib/gcc/mingw32/3.4.2/libgcc.a(_divdi3.o)
                              eobj/libengine.a(winlayer.o) (__divdi3)
c:/mingw/bin/../lib/gcc/mingw32/3.4.2/libgcc.a(_ctors.o)
                              c:/mingw/bin/../lib/gcc/mingw32/3.4.2/../../../libmingw32.a(gccmain.o) (__CTOR_LIST__)
c:/mingw/bin/../lib/gcc/mingw32/3.4.2/libgcc.a(_eprintf.o)
                              c:/mingw/bin/../lib/gcc/mingw32/3.4.2/libgcc.a(w32-shared-ptr.o) (__eprintf)
c:/mingw/bin/../lib/gcc/mingw32/3.4.2/../../../libmoldname.a(duuds00002.o)
                              obj/game.o (chdir)
c:/mingw/bin/../lib/gcc/mingw32/3.4.2/../../../libmoldname.a(duuds00055.o)
                              obj/game.o (mkdir)
c:/mingw/bin/../lib/gcc/mingw32/3.4.2/../../../libmoldname.a(duuds00037.o)
                              obj/game.o (getcwd)
c:/mingw/bin/../lib/gcc/mingw32/3.4.2/../../../libmoldname.a(duuds00000.o)
                              obj/game.o (access)
c:/mingw/bin/../lib/gcc/mingw32/3.4.2/../../../libmoldname.a(duuds00081.o)
                              obj/gamedef.o (strdup)
c:/mingw/bin/../lib/gcc/mingw32/3.4.2/../../../libmoldname.a(duuds00064.o)
                              obj/file_lib.o (read)
c:/mingw/bin/../lib/gcc/mingw32/3.4.2/../../../libmoldname.a(duuds00006.o)
                              obj/file_lib.o (close)
c:/mingw/bin/../lib/gcc/mingw32/3.4.2/../../../libmoldname.a(duuds00110.o)
                              eobj/libengine.a(engine.o) (write)
c:/mingw/bin/../lib/gcc/mingw32/3.4.2/../../../libmoldname.a(duuds00058.o)
                              eobj/libengine.a(engine.o) (open)
c:/mingw/bin/../lib/gcc/mingw32/3.4.2/../../../libmoldname.a(duuds00079.o)
                              eobj/libengine.a(engine.o) (stat)
c:/mingw/bin/../lib/gcc/mingw32/3.4.2/../../../libmoldname.a(duuds00051.o)
                              eobj/libengine.a(cache1d.o) (lseek)
c:/mingw/bin/../lib/gcc/mingw32/3.4.2/../../../libmoldname.a(duuds00023.o)
                              eobj/libengine.a(cache1d.o) (fdopen)
c:/mingw/bin/../lib/gcc/mingw32/3.4.2/../../../libmoldname.a(duuds00032.o)
                              eobj/libengine.a(compat.o) (fstat)
c:/mingw/bin/../lib/gcc/mingw32/3.4.2/../../../libmoldname.a(duuds00026.o)
                              eobj/libengine.a(kplib.o) (filelength)
c:/mingw/bin/../lib/gcc/mingw32/3.4.2/../../../libmoldname.a(duudh.o)
                              c:/mingw/bin/../lib/gcc/mingw32/3.4.2/../../../libmoldname.a(duuds00002.o) (_head_libmoldname_a)
c:/mingw/bin/../lib/gcc/mingw32/3.4.2/../../../libmoldname.a(duudt.o)
                              c:/mingw/bin/../lib/gcc/mingw32/3.4.2/../../../libmoldname.a(duudh.o) (_libmoldname_a_iname)
c:/mingw/bin/../lib/gcc/mingw32/3.4.2/../../../libmsvcrt.a(dwpds00233.o)
                              c:/mingw/bin/../lib/gcc/mingw32/3.4.2/../../../crt2.o (_imp___iob)
c:/mingw/bin/../lib/gcc/mingw32/3.4.2/../../../libmsvcrt.a(dwpds00080.o)
                              c:/mingw/bin/../lib/gcc/mingw32/3.4.2/../../../crt2.o (_imp____set_app_type)
c:/mingw/bin/../lib/gcc/mingw32/3.4.2/../../../libmsvcrt.a(dwpds00540.o)
                              c:/mingw/bin/../lib/gcc/mingw32/3.4.2/../../../crt2.o (_imp__atexit)
c:/mingw/bin/../lib/gcc/mingw32/3.4.2/../../../libmsvcrt.a(dwpds00350.o)
                              c:/mingw/bin/../lib/gcc/mingw32/3.4.2/../../../crt2.o (_imp___onexit)
c:/mingw/bin/../lib/gcc/mingw32/3.4.2/../../../libmsvcrt.a(dwpds00121.o)
                              c:/mingw/bin/../lib/gcc/mingw32/3.4.2/../../../crt2.o (_cexit)
c:/mingw/bin/../lib/gcc/mingw32/3.4.2/../../../libmsvcrt.a(dwpds00060.o)
                              c:/mingw/bin/../lib/gcc/mingw32/3.4.2/../../../crt2.o (__p__environ)
c:/mingw/bin/../lib/gcc/mingw32/3.4.2/../../../libmsvcrt.a(dwpds00656.o)
                              c:/mingw/bin/../lib/gcc/mingw32/3.4.2/../../../crt2.o (signal)
c:/mingw/bin/../lib/gcc/mingw32/3.4.2/../../../libmsvcrt.a(dwpds00062.o)
                              c:/mingw/bin/../lib/gcc/mingw32/3.4.2/../../../crt2.o (__p__fmode)
c:/mingw/bin/../lib/gcc/mingw32/3.4.2/../../../libmsvcrt.a(dwpds00388.o)
                              c:/mingw/bin/../lib/gcc/mingw32/3.4.2/../../../crt2.o (_setmode)
c:/mingw/bin/../lib/gcc/mingw32/3.4.2/../../../libmsvcrt.a(dwpds00039.o)
                              c:/mingw/bin/../lib/gcc/mingw32/3.4.2/../../../crt2.o (__getmainargs)
c:/mingw/bin/../lib/gcc/mingw32/3.4.2/../../../libmsvcrt.a(dwpds00579.o)
                              obj/game.o (fseek)
c:/mingw/bin/../lib/gcc/mingw32/3.4.2/../../../libmsvcrt.a(dwpds00583.o)
                              obj/game.o (fwrite)
c:/mingw/bin/../lib/gcc/mingw32/3.4.2/../../../libmsvcrt.a(dwpds00587.o)
                              obj/game.o (getenv)
c:/mingw/bin/../lib/gcc/mingw32/3.4.2/../../../libmsvcrt.a(dwpds00680.o)
                              obj/game.o (strtok)
c:/mingw/bin/../lib/gcc/mingw32/3.4.2/../../../libmsvcrt.a(dwpds00563.o)
                              obj/game.o (fgets)
c:/mingw/bin/../lib/gcc/mingw32/3.4.2/../../../libmsvcrt.a(dwpds00575.o)
                              obj/game.o (free)
c:/mingw/bin/../lib/gcc/mingw32/3.4.2/../../../libmsvcrt.a(dwpds00676.o)
                              obj/game.o (strrchr)
c:/mingw/bin/../lib/gcc/mingw32/3.4.2/../../../libmsvcrt.a(dwpds00626.o)
                              obj/game.o (malloc)
c:/mingw/bin/../lib/gcc/mingw32/3.4.2/../../../libmsvcrt.a(dwpds00543.o)
                              obj/game.o (atol)
c:/mingw/bin/../lib/gcc/mingw32/3.4.2/../../../libmsvcrt.a(dwpds00664.o)
                              obj/game.o (strchr)
c:/mingw/bin/../lib/gcc/mingw32/3.4.2/../../../libmsvcrt.a(dwpds00545.o)
                              obj/game.o (calloc)
c:/mingw/bin/../lib/gcc/mingw32/3.4.2/../../../libmsvcrt.a(dwpds00570.o)
                              obj/game.o (fputc)
c:/mingw/bin/../lib/gcc/mingw32/3.4.2/../../../libmsvcrt.a(dwpds00569.o)
                              obj/game.o (fprintf)
c:/mingw/bin/../lib/gcc/mingw32/3.4.2/../../../libmsvcrt.a(dwpds00692.o)
                              obj/game.o (tolower)
c:/mingw/bin/../lib/gcc/mingw32/3.4.2/../../../libmsvcrt.a(dwpds00647.o)
                              obj/game.o (rand)
c:/mingw/bin/../lib/gcc/mingw32/3.4.2/../../../libmsvcrt.a(dwpds00663.o)
                              obj/game.o (strcat)
c:/mingw/bin/../lib/gcc/mingw32/3.4.2/../../../libmsvcrt.a(dwpds00554.o)
                              obj/game.o (exit)
c:/mingw/bin/../lib/gcc/mingw32/3.4.2/../../../libmsvcrt.a(dwpds00557.o)
                              obj/game.o (fclose)
c:/mingw/bin/../lib/gcc/mingw32/3.4.2/../../../libmsvcrt.a(dwpds00634.o)
                              obj/game.o (memset)
c:/mingw/bin/../lib/gcc/mingw32/3.4.2/../../../libmsvcrt.a(dwpds00659.o)
                              obj/game.o (sprintf)
c:/mingw/bin/../lib/gcc/mingw32/3.4.2/../../../libmsvcrt.a(dwpds00667.o)
                              obj/game.o (strcpy)
c:/mingw/bin/../lib/gcc/mingw32/3.4.2/../../../libmsvcrt.a(dwpds00693.o)
                              obj/game.o (toupper)
c:/mingw/bin/../lib/gcc/mingw32/3.4.2/../../../libmsvcrt.a(dwpds00411.o)
                              obj/game.o (_stricmp)
c:/mingw/bin/../lib/gcc/mingw32/3.4.2/../../../libmsvcrt.a(dwpds00568.o)
                              obj/game.o (fopen)
c:/mingw/bin/../lib/gcc/mingw32/3.4.2/../../../libmsvcrt.a(dwpds00632.o)
                              obj/animlib.o (memcpy)
c:/mingw/bin/../lib/gcc/mingw32/3.4.2/../../../libmsvcrt.a(dwpds00048.o)
                              obj/gamedef.o (_imp____mb_cur_max)
c:/mingw/bin/../lib/gcc/mingw32/3.4.2/../../../libmsvcrt.a(dwpds00359.o)
                              obj/gamedef.o (_imp___pctype)
c:/mingw/bin/../lib/gcc/mingw32/3.4.2/../../../libmsvcrt.a(dwpds00642.o)
                              obj/gamedef.o (puts)
c:/mingw/bin/../lib/gcc/mingw32/3.4.2/../../../libmsvcrt.a(dwpds00665.o)
                              obj/gamedef.o (strcmp)
c:/mingw/bin/../lib/gcc/mingw32/3.4.2/../../../libmsvcrt.a(dwpds00235.o)
                              obj/gamedef.o (_isctype)
c:/mingw/bin/../lib/gcc/mingw32/3.4.2/../../../libmsvcrt.a(dwpds00622.o)
                              obj/gameexec.o (localtime)
c:/mingw/bin/../lib/gcc/mingw32/3.4.2/../../../libmsvcrt.a(dwpds00536.o)
                              obj/gameexec.o (asctime)
c:/mingw/bin/../lib/gcc/mingw32/3.4.2/../../../libmsvcrt.a(dwpds00689.o)
                              obj/gameexec.o (time)
c:/mingw/bin/../lib/gcc/mingw32/3.4.2/../../../libmsvcrt.a(dwpds00672.o)
                              obj/gameexec.o (strncat)
c:/mingw/bin/../lib/gcc/mingw32/3.4.2/../../../libmsvcrt.a(dwpds00639.o)
                              obj/gameexec.o (printf)
c:/mingw/bin/../lib/gcc/mingw32/3.4.2/../../../libmsvcrt.a(dwpds00674.o)
                              obj/rts.o (strncpy)
c:/mingw/bin/../lib/gcc/mingw32/3.4.2/../../../libmsvcrt.a(dwpds00648.o)
                              obj/rts.o (realloc)
c:/mingw/bin/../lib/gcc/mingw32/3.4.2/../../../libmsvcrt.a(dwpds00542.o)
                              obj/osdcmds.o (atoi)
c:/mingw/bin/../lib/gcc/mingw32/3.4.2/../../../libmsvcrt.a(dwpds00681.o)
                              obj/osdcmds.o (strtol)
c:/mingw/bin/../lib/gcc/mingw32/3.4.2/../../../libmsvcrt.a(dwpds00152.o)
                              obj/file_lib.o (_errno)
c:/mingw/bin/../lib/gcc/mingw32/3.4.2/../../../libmsvcrt.a(dwpds00669.o)
                              obj/file_lib.o (strerror)
c:/mingw/bin/../lib/gcc/mingw32/3.4.2/../../../libmsvcrt.a(dwpds00415.o)
                              obj/scriplib.o (_strnicmp)
c:/mingw/bin/../lib/gcc/mingw32/3.4.2/../../../libmsvcrt.a(dwpds00701.o)
                              obj/winbits.o (vsprintf)
c:/mingw/bin/../lib/gcc/mingw32/3.4.2/../../../libmsvcrt.a(dwpds00682.o)
                              eobj/libengine.a(engine.o) (strtoul)
c:/mingw/bin/../lib/gcc/mingw32/3.4.2/../../../libmsvcrt.a(dwpds00657.o)
                              eobj/libengine.a(engine.o) (sin)
c:/mingw/bin/../lib/gcc/mingw32/3.4.2/../../../libmsvcrt.a(dwpds00549.o)
                              eobj/libengine.a(engine.o) (cos)
c:/mingw/bin/../lib/gcc/mingw32/3.4.2/../../../libmsvcrt.a(dwpds00660.o)
                              eobj/libengine.a(engine.o) (sqrt)
c:/mingw/bin/../lib/gcc/mingw32/3.4.2/../../../libmsvcrt.a(dwpds00566.o)
                              eobj/libengine.a(engine.o) (floor)
c:/mingw/bin/../lib/gcc/mingw32/3.4.2/../../../libmsvcrt.a(dwpds00671.o)
                              eobj/libengine.a(engine.o) (strlen)
c:/mingw/bin/../lib/gcc/mingw32/3.4.2/../../../libmsvcrt.a(dwpds00638.o)
                              eobj/libengine.a(engine.o) (pow)
c:/mingw/bin/../lib/gcc/mingw32/3.4.2/../../../libmsvcrt.a(dwpds00645.o)
                              eobj/libengine.a(winlayer.o) (qsort)
c:/mingw/bin/../lib/gcc/mingw32/3.4.2/../../../libmsvcrt.a(dwpds00655.o)
                              eobj/libengine.a(winlayer.o) (setvbuf)
c:/mingw/bin/../lib/gcc/mingw32/3.4.2/../../../libmsvcrt.a(dwpds00576.o)
                              eobj/libengine.a(winlayer.o) (freopen)
c:/mingw/bin/../lib/gcc/mingw32/3.4.2/../../../libmsvcrt.a(dwpds00445.o)
                              eobj/libengine.a(winlayer.o) (_vsnprintf)
c:/mingw/bin/../lib/gcc/mingw32/3.4.2/../../../libmsvcrt.a(dwpds00574.o)
                              eobj/libengine.a(cache1d.o) (fread)
c:/mingw/bin/../lib/gcc/mingw32/3.4.2/../../../libmsvcrt.a(dwpds00571.o)
                              eobj/libengine.a(osd.o) (fputs)
c:/mingw/bin/../lib/gcc/mingw32/3.4.2/../../../libmsvcrt.a(dwpds00633.o)
                              eobj/libengine.a(osd.o) (memmove)
c:/mingw/bin/../lib/gcc/mingw32/3.4.2/../../../libmsvcrt.a(dwpds00207.o)
                              eobj/libengine.a(compat.o) (_getdcwd)
c:/mingw/bin/../lib/gcc/mingw32/3.4.2/../../../libmsvcrt.a(dwpds00581.o)
                              eobj/libengine.a(kplib.o) (ftell)
c:/mingw/bin/../lib/gcc/mingw32/3.4.2/../../../libmsvcrt.a(dwpds00280.o)
                              eobj/libengine.a(kplib.o) (_lrotl)
c:/mingw/bin/../lib/gcc/mingw32/3.4.2/../../../libmsvcrt.a(dwpds00175.o)
                              c:/mingw/bin/../lib/gcc/mingw32/3.4.2/../../../libmingwex.a(dirent.o) (_findclose)
c:/mingw/bin/../lib/gcc/mingw32/3.4.2/../../../libmsvcrt.a(dwpds00179.o)
                              c:/mingw/bin/../lib/gcc/mingw32/3.4.2/../../../libmingwex.a(dirent.o) (_findnext)
c:/mingw/bin/../lib/gcc/mingw32/3.4.2/../../../libmsvcrt.a(dwpds00176.o)
                              c:/mingw/bin/../lib/gcc/mingw32/3.4.2/../../../libmingwex.a(dirent.o) (_findfirst)
c:/mingw/bin/../lib/gcc/mingw32/3.4.2/../../../libmsvcrt.a(dwpds00198.o)
                              c:/mingw/bin/../lib/gcc/mingw32/3.4.2/../../../libmingwex.a(dirent.o) (_fullpath)
c:/mingw/bin/../lib/gcc/mingw32/3.4.2/../../../libmsvcrt.a(dwpds00533.o)
                              c:/mingw/bin/../lib/gcc/mingw32/3.4.2/libgcc.a(w32-shared-ptr.o) (abort)
c:/mingw/bin/../lib/gcc/mingw32/3.4.2/../../../libmsvcrt.a(dwpds00560.o)
                              c:/mingw/bin/../lib/gcc/mingw32/3.4.2/libgcc.a(_eprintf.o) (fflush)
c:/mingw/bin/../lib/gcc/mingw32/3.4.2/../../../libmsvcrt.a(dwpdh.o)
                              c:/mingw/bin/../lib/gcc/mingw32/3.4.2/../../../libmsvcrt.a(dwpds00233.o) (_head_libmsvcrt_a)
c:/mingw/bin/../lib/gcc/mingw32/3.4.2/../../../libmsvcrt.a(dwpdt.o)
                              c:/mingw/bin/../lib/gcc/mingw32/3.4.2/../../../libmsvcrt.a(dwpdh.o) (_libmsvcrt_a_iname)
c:/mingw/bin/../lib/gcc/mingw32/3.4.2/../../../libgdi32.a(deubs00145.o)
                              eobj/libengine.a(winlayer.o) (GetDeviceCaps@8)
c:/mingw/bin/../lib/gcc/mingw32/3.4.2/../../../libgdi32.a(deubs00072.o)
                              eobj/libengine.a(winlayer.o) (DeleteObject@4)
c:/mingw/bin/../lib/gcc/mingw32/3.4.2/../../../libgdi32.a(deubs00012.o)
                              eobj/libengine.a(winlayer.o) (BitBlt@36)
c:/mingw/bin/../lib/gcc/mingw32/3.4.2/../../../libgdi32.a(deubs00294.o)
                              eobj/libengine.a(winlayer.o) (SetDeviceGammaRamp@8)
c:/mingw/bin/../lib/gcc/mingw32/3.4.2/../../../libgdi32.a(deubs00291.o)
                              eobj/libengine.a(winlayer.o) (SetDIBColorTable@16)
c:/mingw/bin/../lib/gcc/mingw32/3.4.2/../../../libgdi32.a(deubs00315.o)
                              eobj/libengine.a(winlayer.o) (SetSystemPaletteUse@8)
c:/mingw/bin/../lib/gcc/mingw32/3.4.2/../../../libgdi32.a(deubs00306.o)
                              eobj/libengine.a(winlayer.o) (SetPaletteEntries@16)
c:/mingw/bin/../lib/gcc/mingw32/3.4.2/../../../libgdi32.a(deubs00278.o)
                              eobj/libengine.a(winlayer.o) (SelectPalette@12)
c:/mingw/bin/../lib/gcc/mingw32/3.4.2/../../../libgdi32.a(deubs00256.o)
                              eobj/libengine.a(winlayer.o) (RealizePalette@4)
c:/mingw/bin/../lib/gcc/mingw32/3.4.2/../../../libgdi32.a(deubs00055.o)
                              eobj/libengine.a(winlayer.o) (CreatePalette@4)
c:/mingw/bin/../lib/gcc/mingw32/3.4.2/../../../libgdi32.a(deubs00069.o)
                              eobj/libengine.a(winlayer.o) (DeleteDC@4)
c:/mingw/bin/../lib/gcc/mingw32/3.4.2/../../../libgdi32.a(deubs00015.o)
                              eobj/libengine.a(winlayer.o) (ChoosePixelFormat@8)
c:/mingw/bin/../lib/gcc/mingw32/3.4.2/../../../libgdi32.a(deubs00308.o)
                              eobj/libengine.a(winlayer.o) (SetPixelFormat@12)
c:/mingw/bin/../lib/gcc/mingw32/3.4.2/../../../libgdi32.a(deubs00038.o)
                              eobj/libengine.a(winlayer.o) (CreateDIBSection@24)
c:/mingw/bin/../lib/gcc/mingw32/3.4.2/../../../libgdi32.a(deubs00033.o)
                              eobj/libengine.a(winlayer.o) (CreateCompatibleDC@4)
c:/mingw/bin/../lib/gcc/mingw32/3.4.2/../../../libgdi32.a(deubs00277.o)
                              eobj/libengine.a(winlayer.o) (SelectObject@8)
c:/mingw/bin/../lib/gcc/mingw32/3.4.2/../../../libgdi32.a(deubs00146.o)
                              eobj/libengine.a(winlayer.o) (GetDeviceGammaRamp@8)
c:/mingw/bin/../lib/gcc/mingw32/3.4.2/../../../libgdi32.a(deubh.o)
                              c:/mingw/bin/../lib/gcc/mingw32/3.4.2/../../../libgdi32.a(deubs00145.o) (_head_libgdi32_a)
c:/mingw/bin/../lib/gcc/mingw32/3.4.2/../../../libgdi32.a(deubt.o)
                              c:/mingw/bin/../lib/gcc/mingw32/3.4.2/../../../libgdi32.a(deubh.o) (_libgdi32_a_iname)
c:/mingw/bin/../lib/gcc/mingw32/3.4.2/../../../libuser32.a(dgdfs00430.o)
                              obj/winbits.o (MessageBoxA@16)
c:/mingw/bin/../lib/gcc/mingw32/3.4.2/../../../libuser32.a(dgdfs00483.o)
                              eobj/libengine.a(winlayer.o) (RegisterHotKey@16)
c:/mingw/bin/../lib/gcc/mingw32/3.4.2/../../../libuser32.a(dgdfs00612.o)
                              eobj/libengine.a(winlayer.o) (UnregisterHotKey@8)
c:/mingw/bin/../lib/gcc/mingw32/3.4.2/../../../libuser32.a(dgdfs00568.o)
                              eobj/libengine.a(winlayer.o) (SetWindowTextA@8)
c:/mingw/bin/../lib/gcc/mingw32/3.4.2/../../../libuser32.a(dgdfs00251.o)
                              eobj/libengine.a(winlayer.o) (GetDlgCtrlID@4)
c:/mingw/bin/../lib/gcc/mingw32/3.4.2/../../../libuser32.a(dgdfs00323.o)
                              eobj/libengine.a(winlayer.o) (GetSysColorBrush@4)
c:/mingw/bin/../lib/gcc/mingw32/3.4.2/../../../libuser32.a(dgdfs00399.o)
                              eobj/libengine.a(winlayer.o) (LoadBitmapA@8)
c:/mingw/bin/../lib/gcc/mingw32/3.4.2/../../../libuser32.a(dgdfs00499.o)
                              eobj/libengine.a(winlayer.o) (SendDlgItemMessageA@20)
c:/mingw/bin/../lib/gcc/mingw32/3.4.2/../../../libuser32.a(dgdfs00252.o)
                              eobj/libengine.a(winlayer.o) (GetDlgItem@8)
c:/mingw/bin/../lib/gcc/mingw32/3.4.2/../../../libuser32.a(dgdfs00235.o)
                              eobj/libengine.a(winlayer.o) (GetClientRect@8)
c:/mingw/bin/../lib/gcc/mingw32/3.4.2/../../../libuser32.a(dgdfs00441.o)
                              eobj/libengine.a(winlayer.o) (MoveWindow@24)
c:/mingw/bin/../lib/gcc/mingw32/3.4.2/../../../libuser32.a(dgdfs00346.o)
                              eobj/libengine.a(winlayer.o) (GetWindowRect@8)
c:/mingw/bin/../lib/gcc/mingw32/3.4.2/../../../libuser32.a(dgdfs00325.o)
                              eobj/libengine.a(winlayer.o) (GetSystemMetrics@4)
c:/mingw/bin/../lib/gcc/mingw32/3.4.2/../../../libuser32.a(dgdfs00340.o)
                              eobj/libengine.a(winlayer.o) (GetWindowLongA@8)
c:/mingw/bin/../lib/gcc/mingw32/3.4.2/../../../libuser32.a(dgdfs00001.o)
                              eobj/libengine.a(winlayer.o) (AdjustWindowRect@12)
c:/mingw/bin/../lib/gcc/mingw32/3.4.2/../../../libuser32.a(dgdfs00247.o)
                              eobj/libengine.a(winlayer.o) (GetDC@4)
c:/mingw/bin/../lib/gcc/mingw32/3.4.2/../../../libuser32.a(dgdfs00488.o)
                              eobj/libengine.a(winlayer.o) (ReleaseDC@8)
c:/mingw/bin/../lib/gcc/mingw32/3.4.2/../../../libuser32.a(dgdfs00566.o)
                              eobj/libengine.a(winlayer.o) (SetWindowPos@28)
c:/mingw/bin/../lib/gcc/mingw32/3.4.2/../../../libuser32.a(dgdfs00460.o)
                              eobj/libengine.a(winlayer.o) (PeekMessageA@20)
c:/mingw/bin/../lib/gcc/mingw32/3.4.2/../../../libuser32.a(dgdfs00390.o)
                              eobj/libengine.a(winlayer.o) (IsWindow@4)
c:/mingw/bin/../lib/gcc/mingw32/3.4.2/../../../libuser32.a(dgdfs00381.o)
                              eobj/libengine.a(winlayer.o) (IsDialogMessageA@8)
c:/mingw/bin/../lib/gcc/mingw32/3.4.2/../../../libuser32.a(dgdfs00602.o)
                              eobj/libengine.a(winlayer.o) (TranslateMessage@4)
c:/mingw/bin/../lib/gcc/mingw32/3.4.2/../../../libuser32.a(dgdfs00148.o)
                              eobj/libengine.a(winlayer.o) (DispatchMessageA@4)
c:/mingw/bin/../lib/gcc/mingw32/3.4.2/../../../libuser32.a(dgdfs00442.o)
                              eobj/libengine.a(winlayer.o) (MsgWaitForMultipleObjects@20)
c:/mingw/bin/../lib/gcc/mingw32/3.4.2/../../../libuser32.a(dgdfs00267.o)
                              eobj/libengine.a(winlayer.o) (GetKeyState@4)
c:/mingw/bin/../lib/gcc/mingw32/3.4.2/../../../libuser32.a(dgdfs00502.o)
                              eobj/libengine.a(winlayer.o) (SendMessageA@16)
c:/mingw/bin/../lib/gcc/mingw32/3.4.2/../../../libuser32.a(dgdfs00193.o)
                              eobj/libengine.a(winlayer.o) (EnumDisplaySettingsA@12)
c:/mingw/bin/../lib/gcc/mingw32/3.4.2/../../../libuser32.a(dgdfs00029.o)
                              eobj/libengine.a(winlayer.o) (ChangeDisplaySettingsA@8)
c:/mingw/bin/../lib/gcc/mingw32/3.4.2/../../../libuser32.a(dgdfs00143.o)
                              eobj/libengine.a(winlayer.o) (DestroyWindow@4)
c:/mingw/bin/../lib/gcc/mingw32/3.4.2/../../../libuser32.a(dgdfs00552.o)
                              eobj/libengine.a(winlayer.o) (SetSysColors@12)
c:/mingw/bin/../lib/gcc/mingw32/3.4.2/../../../libuser32.a(dgdfs00133.o)
                              eobj/libengine.a(winlayer.o) (DefWindowProcA@16)
c:/mingw/bin/../lib/gcc/mingw32/3.4.2/../../../libuser32.a(dgdfs00089.o)
                              eobj/libengine.a(winlayer.o) (CreateWindowExA@48)
c:/mingw/bin/../lib/gcc/mingw32/3.4.2/../../../libuser32.a(dgdfs00579.o)
                              eobj/libengine.a(winlayer.o) (ShowWindow@8)
c:/mingw/bin/../lib/gcc/mingw32/3.4.2/../../../libuser32.a(dgdfs00528.o)
                              eobj/libengine.a(winlayer.o) (SetForegroundWindow@4)
c:/mingw/bin/../lib/gcc/mingw32/3.4.2/../../../libuser32.a(dgdfs00527.o)
                              eobj/libengine.a(winlayer.o) (SetFocus@4)
c:/mingw/bin/../lib/gcc/mingw32/3.4.2/../../../libuser32.a(dgdfs00563.o)
                              eobj/libengine.a(winlayer.o) (SetWindowLongA@12)
c:/mingw/bin/../lib/gcc/mingw32/3.4.2/../../../libuser32.a(dgdfs00614.o)
                              eobj/libengine.a(winlayer.o) (UpdateWindow@4)
c:/mingw/bin/../lib/gcc/mingw32/3.4.2/../../../libuser32.a(dgdfs00045.o)
                              eobj/libengine.a(winlayer.o) (CharToOemA@8)
c:/mingw/bin/../lib/gcc/mingw32/3.4.2/../../../libuser32.a(dgdfs00322.o)
                              eobj/libengine.a(winlayer.o) (GetSysColor@4)
c:/mingw/bin/../lib/gcc/mingw32/3.4.2/../../../libuser32.a(dgdfs00079.o)
                              eobj/libengine.a(winlayer.o) (CreateDialogParamA@20)
c:/mingw/bin/../lib/gcc/mingw32/3.4.2/../../../libuser32.a(dgdfs00407.o)
                              eobj/libengine.a(winlayer.o) (LoadImageA@24)
c:/mingw/bin/../lib/gcc/mingw32/3.4.2/../../../libuser32.a(dgdfs00401.o)
                              eobj/libengine.a(winlayer.o) (LoadCursorA@8)
c:/mingw/bin/../lib/gcc/mingw32/3.4.2/../../../libuser32.a(dgdfs00476.o)
                              eobj/libengine.a(winlayer.o) (RegisterClassExA@4)
c:/mingw/bin/../lib/gcc/mingw32/3.4.2/../../../libuser32.a(dgdfs00633.o)
                              eobj/libengine.a(winlayer.o) (wsprintfA)
c:/mingw/bin/../lib/gcc/mingw32/3.4.2/../../../libuser32.a(dgdfh.o)
                              c:/mingw/bin/../lib/gcc/mingw32/3.4.2/../../../libuser32.a(dgdfs00430.o) (_head_libuser32_a)
c:/mingw/bin/../lib/gcc/mingw32/3.4.2/../../../libuser32.a(dgdft.o)
                              c:/mingw/bin/../lib/gcc/mingw32/3.4.2/../../../libuser32.a(dgdfh.o) (_libuser32_a_iname)
c:/mingw/bin/../lib/gcc/mingw32/3.4.2/../../../libkernel32.a(dqifs00736.o)
                              c:/mingw/bin/../lib/gcc/mingw32/3.4.2/../../../crt2.o (SetUnhandledExceptionFilter@4)
c:/mingw/bin/../lib/gcc/mingw32/3.4.2/../../../libkernel32.a(dqifs00155.o)
                              c:/mingw/bin/../lib/gcc/mingw32/3.4.2/../../../crt2.o (ExitProcess@4)
c:/mingw/bin/../lib/gcc/mingw32/3.4.2/../../../libkernel32.a(dqifs00125.o)
                              obj/dsoundout.o (EnterCriticalSection@4)
c:/mingw/bin/../lib/gcc/mingw32/3.4.2/../../../libkernel32.a(dqifs00521.o)
                              obj/dsoundout.o (LeaveCriticalSection@4)
c:/mingw/bin/../lib/gcc/mingw32/3.4.2/../../../libkernel32.a(dqifs00490.o)
                              obj/dsoundout.o (InitializeCriticalSection@4)
c:/mingw/bin/../lib/gcc/mingw32/3.4.2/../../../libkernel32.a(dqifs00522.o)
                              obj/dsoundout.o (LoadLibraryA@4)
c:/mingw/bin/../lib/gcc/mingw32/3.4.2/../../../libkernel32.a(dqifs00362.o)
                              obj/dsoundout.o (GetProcAddress@8)
c:/mingw/bin/../lib/gcc/mingw32/3.4.2/../../../libkernel32.a(dqifs00064.o)
                              obj/dsoundout.o (CreateEventA@16)
c:/mingw/bin/../lib/gcc/mingw32/3.4.2/../../../libkernel32.a(dqifs00038.o)
                              obj/dsoundout.o (CloseHandle@4)
c:/mingw/bin/../lib/gcc/mingw32/3.4.2/../../../libkernel32.a(dqifs00213.o)
                              obj/dsoundout.o (FreeLibrary@4)
c:/mingw/bin/../lib/gcc/mingw32/3.4.2/../../../libkernel32.a(dqifs00804.o)
                              obj/dsoundout.o (WaitForMultipleObjects@16)
c:/mingw/bin/../lib/gcc/mingw32/3.4.2/../../../libkernel32.a(dqifs00090.o)
                              obj/dsoundout.o (CreateThread@24)
c:/mingw/bin/../lib/gcc/mingw32/3.4.2/../../../libkernel32.a(dqifs00732.o)
                              obj/dsoundout.o (SetThreadPriority@8)
c:/mingw/bin/../lib/gcc/mingw32/3.4.2/../../../libkernel32.a(dqifs00638.o)
                              obj/dsoundout.o (ResumeThread@4)
c:/mingw/bin/../lib/gcc/mingw32/3.4.2/../../../libkernel32.a(dqifs00695.o)
                              obj/dsoundout.o (SetEvent@4)
c:/mingw/bin/../lib/gcc/mingw32/3.4.2/../../../libkernel32.a(dqifs00806.o)
                              obj/dsoundout.o (WaitForSingleObject@8)
c:/mingw/bin/../lib/gcc/mingw32/3.4.2/../../../libkernel32.a(dqifs00595.o)
                              eobj/libengine.a(winlayer.o) (QueryPerformanceCounter@4)
c:/mingw/bin/../lib/gcc/mingw32/3.4.2/../../../libkernel32.a(dqifs00281.o)
                              eobj/libengine.a(winlayer.o) (GetCurrentProcess@0)
c:/mingw/bin/../lib/gcc/mingw32/3.4.2/../../../libkernel32.a(dqifs00716.o)
                              eobj/libengine.a(winlayer.o) (SetPriorityClass@8)
c:/mingw/bin/../lib/gcc/mingw32/3.4.2/../../../libkernel32.a(dqifs00323.o)
                              eobj/libengine.a(winlayer.o) (GetLastError@0)
c:/mingw/bin/../lib/gcc/mingw32/3.4.2/../../../libkernel32.a(dqifs00208.o)
                              eobj/libengine.a(winlayer.o) (FormatMessageA@28)
c:/mingw/bin/../lib/gcc/mingw32/3.4.2/../../../libkernel32.a(dqifs00596.o)
                              eobj/libengine.a(winlayer.o) (QueryPerformanceFrequency@4)
c:/mingw/bin/../lib/gcc/mingw32/3.4.2/../../../libkernel32.a(dqifs00431.o)
                              eobj/libengine.a(winlayer.o) (GetVersionExA@4)
c:/mingw/bin/../lib/gcc/mingw32/3.4.2/../../../libkernel32.a(dqifs00236.o)
                              eobj/libengine.a(winlayer.o) (GetCommandLineA@0)
c:/mingw/bin/../lib/gcc/mingw32/3.4.2/../../../libkernel32.a(dqifs00087.o)
                              eobj/libengine.a(winlayer.o) (CreateSemaphoreA@16)
c:/mingw/bin/../lib/gcc/mingw32/3.4.2/../../../libkernel32.a(dqifs00421.o)
                              eobj/libengine.a(mmulti.o) (GetTickCount@0)
c:/mingw/bin/../lib/gcc/mingw32/3.4.2/../../../libkernel32.a(dqifs00329.o)
                              eobj/libengine.a(compat.o) (GetLogicalDrives@0)
c:/mingw/bin/../lib/gcc/mingw32/3.4.2/../../../libkernel32.a(dqifs00458.o)
                              eobj/libengine.a(compat.o) (GlobalMemoryStatus@4)
c:/mingw/bin/../lib/gcc/mingw32/3.4.2/../../../libkernel32.a(dqifs00177.o)
                              eobj/libengine.a(kplib.o) (FindClose@4)
c:/mingw/bin/../lib/gcc/mingw32/3.4.2/../../../libkernel32.a(dqifs00190.o)
                              eobj/libengine.a(kplib.o) (FindNextFileA@8)
c:/mingw/bin/../lib/gcc/mingw32/3.4.2/../../../libkernel32.a(dqifs00181.o)
                              eobj/libengine.a(kplib.o) (FindFirstFileA@8)
c:/mingw/bin/../lib/gcc/mingw32/3.4.2/../../../libkernel32.a(dqifs00306.o)
                              c:/mingw/bin/../lib/gcc/mingw32/3.4.2/../../../libmingwex.a(dirent.o) (GetFileAttributesA@4)
c:/mingw/bin/../lib/gcc/mingw32/3.4.2/../../../libkernel32.a(dqifs00384.o)
                              c:/mingw/bin/../lib/gcc/mingw32/3.4.2/../../../libmingw32.a(main.o) (GetStartupInfoA@4)
c:/mingw/bin/../lib/gcc/mingw32/3.4.2/../../../libkernel32.a(dqifs00335.o)
                              c:/mingw/bin/../lib/gcc/mingw32/3.4.2/../../../libmingw32.a(main.o) (GetModuleHandleA@4)
c:/mingw/bin/../lib/gcc/mingw32/3.4.2/../../../libkernel32.a(dqifs00220.o)
                              c:/mingw/bin/../lib/gcc/mingw32/3.4.2/libgcc.a(w32-shared-ptr.o) (_imp__GetAtomNameA@12)
c:/mingw/bin/../lib/gcc/mingw32/3.4.2/../../../libkernel32.a(dqifs00175.o)
                              c:/mingw/bin/../lib/gcc/mingw32/3.4.2/libgcc.a(w32-shared-ptr.o) (_imp__FindAtomA@4)
c:/mingw/bin/../lib/gcc/mingw32/3.4.2/../../../libkernel32.a(dqifs00001.o)
                              c:/mingw/bin/../lib/gcc/mingw32/3.4.2/libgcc.a(w32-shared-ptr.o) (_imp__AddAtomA@4)
c:/mingw/bin/../lib/gcc/mingw32/3.4.2/../../../libkernel32.a(dqifh.o)
                              c:/mingw/bin/../lib/gcc/mingw32/3.4.2/../../../libkernel32.a(dqifs00736.o) (_head_libkernel32_a)
c:/mingw/bin/../lib/gcc/mingw32/3.4.2/../../../libkernel32.a(dqift.o)
                              c:/mingw/bin/../lib/gcc/mingw32/3.4.2/../../../libkernel32.a(dqifh.o) (_libkernel32_a_iname)
c:/mingw/bin/../lib/gcc/mingw32/3.4.2/../../../libshell32.a(dsjes00104.o)
                              eobj/libengine.a(compat.o) (SHGetSpecialFolderPathA@16)
c:/mingw/bin/../lib/gcc/mingw32/3.4.2/../../../libshell32.a(dsjeh.o)
                              c:/mingw/bin/../lib/gcc/mingw32/3.4.2/../../../libshell32.a(dsjes00104.o) (_head_libshell32_a)
c:/mingw/bin/../lib/gcc/mingw32/3.4.2/../../../libshell32.a(dsjet.o)
                              c:/mingw/bin/../lib/gcc/mingw32/3.4.2/../../../libshell32.a(dsjeh.o) (_libshell32_a_iname)

Allocating common symbols
Common symbol       size              file

soundm              0x5e0             obj/global.o
myconnectindex      0x10              eobj/libengine.a(mmulti.o)
playerreadyflag     0x10              obj/global.o
buttonstat          0x10              obj/menus.o
bglVertex3fv        0x10              eobj/libengine.a(glbuild.o)
palcol              0x400             eobj/libengine.a(kplib.o)
gvx                 0x10              eobj/libengine.a(engine.o)
bglTexParameterf    0x10              eobj/libengine.a(glbuild.o)
bglEnable           0x10              eobj/libengine.a(glbuild.o)
aplWeaponReloadSound2
                    0x30              obj/gamedef.o
aplWeaponInitialSound
                    0x30              obj/gamedef.o
keyfifoplc          0x10              eobj/libengine.a(winlayer.o)
bglGetCompressedTexImageARB
                    0x10              eobj/libengine.a(glbuild.o)
MouseDigitalFunctions
                    0x10              obj/config.o
nextspritestat      0x8000            eobj/libengine.a(engine.o)
everyothertime      0x10              obj/global.o
msx                 0x2000            obj/global.o
numplayersprites    0x10              obj/global.o
ydim                0x10              eobj/libengine.a(engine.o)
searchit            0x10              eobj/libengine.a(engine.o)
horiz               0x10              obj/global.o
mirrorcnt           0x10              obj/global.o
__DTOR_LIST__       0x10              c:/mingw/bin/../lib/gcc/mingw32/3.4.2/libgcc.a(_ctors.o)
last_fifty          0x10              obj/menus.o
bglOrtho            0x10              eobj/libengine.a(glbuild.o)
endingpal           0x300             obj/game.o
vplce               0x10              eobj/libengine.a(engine.o)
myybak              0x400             obj/global.o
ebpbak              0x10              eobj/libengine.a(engine.o)
fricxv              0x10              obj/global.o
fta_quotes          0x100000          obj/global.o
globalcursectnum    0x10              eobj/libengine.a(engine.o)
apScriptGameEvent   0x200             obj/gamedef.o
walock              0x3c00            eobj/libengine.a(engine.o)
globalx2            0x10              eobj/libengine.a(engine.o)
omyhorizoff         0x10              obj/global.o
__w32_sharedptr_terminate
                    0x10              c:/mingw/bin/../lib/gcc/mingw32/3.4.2/libgcc.a(w32-shared-ptr.o)
windowx1            0x10              eobj/libengine.a(engine.o)
neartagsector       0x10              obj/global.o
MusicPtr            0x23280           obj/global.o
guniqhudid          0x10              eobj/libengine.a(engine.o)
searchstat          0x10              eobj/libengine.a(engine.o)
visibility          0x10              eobj/libengine.a(engine.o)
tsprite             0x16000           eobj/libengine.a(engine.o)
searchy             0x10              eobj/libengine.a(engine.o)
frameoffset         0x10              eobj/libengine.a(engine.o)
oldipos             0x8000            obj/global.o
startdmost          0xc80             eobj/libengine.a(engine.o)
lastageclock        0x10              eobj/libengine.a(engine.o)
myhoriz             0x10              obj/global.o
britable            0x1000            eobj/libengine.a(engine.o)
myjumpingcounter    0x10              obj/global.o
mirrorwall          0x80              obj/global.o
midydim16           0x10              eobj/libengine.a(engine.o)
dsync               0x100             obj/global.o
startposx           0x10              eobj/libengine.a(engine.o)
g_currentweapon     0x10              obj/player.o
bglCullFace         0x10              eobj/libengine.a(glbuild.o)
aplWeaponSound2Time
                    0x30              obj/gamedef.o
Sound               0x5dc0            obj/global.o
gdy                 0x10              eobj/libengine.a(engine.o)
sprite              0xb0000           eobj/libengine.a(engine.o)
bglViewport         0x10              eobj/libengine.a(glbuild.o)
myy                 0x10              obj/global.o
FXDevice            0x10              obj/config.o
randomseed          0x10              eobj/libengine.a(engine.o)
wy2                 0x10              eobj/libengine.a(engine.o)
parallaxvisibility  0x10              eobj/libengine.a(engine.o)
connecthead         0x10              eobj/libengine.a(mmulti.o)
deletespot          0x10              obj/menus.o
globalyshift        0x10              eobj/libengine.a(engine.o)
aplWeaponTotalTime  0x30              obj/gamedef.o
groupfile           0x10              obj/global.o
quotebotgoal        0x10              obj/game.o
myhardlanding       0x10              obj/global.o
parallaxyoffs       0x10              eobj/libengine.a(engine.o)
globalxshift        0x10              eobj/libengine.a(engine.o)
haltsoundhack       0x10              obj/sector.o
dplc                0xc80             eobj/libengine.a(engine.o)
keystatus           0x100             eobj/libengine.a(winlayer.o)
pskyoff             0x200             eobj/libengine.a(engine.o)
betaname            0x50              obj/global.o
globalpal           0x10              eobj/libengine.a(engine.o)
osdcmd_cheatsinfo_stat
                    0x10              obj/osdcmds.o
tilesizy            0x7800            eobj/libengine.a(engine.o)
globalcisibility    0x10              eobj/libengine.a(engine.o)
g_weapon_offset     0x10              obj/player.o
lockclock           0x10              obj/global.o
fistsign            0x10              obj/player.o
vince               0x10              eobj/libengine.a(engine.o)
pskybits            0x10              eobj/libengine.a(engine.o)
msy                 0x2000            obj/global.o
pageoffset          0x10              eobj/libengine.a(engine.o)
music_fn            0x480             obj/global.o
movefifoend         0x40              obj/global.o
sintable            0x1000            eobj/libengine.a(engine.o)
show_shareware      0x10              obj/global.o
numclouds           0x10              obj/global.o
myname              0x20              obj/global.o
show2dwall          0x800             eobj/libengine.a(engine.o)
scriptptr           0x10              obj/global.o
bglShadeModel       0x10              eobj/libengine.a(glbuild.o)
numenvsnds          0x10              obj/sounds.o
fpuasm              0x10              eobj/libengine.a(engine.o)
keyasciififoend     0x10              eobj/libengine.a(winlayer.o)
gux                 0x10              eobj/libengine.a(engine.o)
env_music_fn        0x70              obj/global.o
NumChannels         0x10              obj/config.o
ready2send          0x10              obj/global.o
otherp              0x10              obj/actors.o
recfilep            0x10              obj/game.o
numwalls            0x10              eobj/libengine.a(engine.o)
multipos            0x10              obj/global.o
bglLoadMatrixf      0x10              eobj/libengine.a(glbuild.o)
globalang           0x10              eobj/libengine.a(engine.o)
coltype             0x10              eobj/libengine.a(kplib.o)
globalpalwritten    0x10              eobj/libengine.a(engine.o)
bglDisable          0x10              eobj/libengine.a(glbuild.o)
globparaceilclip    0x10              eobj/libengine.a(engine.o)
typebuf             0x30              obj/global.o
syncstat            0x10              obj/global.o
buf                 0x400             obj/global.o
titlepal            0x300             obj/game.o
sinviewingrangeglobalang
                    0x10              eobj/libengine.a(engine.o)
linehighlight       0x10              eobj/libengine.a(engine.o)
sh                  0x10              obj/menus.o
clouds              0x100             obj/global.o
vel                 0x10              obj/global.o
headspritestat      0x810             eobj/libengine.a(engine.o)
startposy           0x10              eobj/libengine.a(engine.o)
globalx             0x10              eobj/libengine.a(engine.o)
title_zoom          0x10              obj/global.o
xdimscale           0x10              eobj/libengine.a(engine.o)
mi                  0x10              obj/menus.o
numpages            0x10              eobj/libengine.a(engine.o)
insptr              0x10              obj/global.o
animwall            0x1000            obj/global.o
fricyv              0x10              obj/global.o
myzvel              0x10              obj/global.o
avgbits             0x10              obj/global.o
globalposz          0x10              eobj/libengine.a(engine.o)
omyang              0x10              obj/global.o
aplWeaponFireDelay  0x30              obj/gamedef.o
max_armour_amount   0x10              obj/global.o
JoystickAnalogueScale
                    0x20              obj/config.o
neartagwall         0x10              obj/global.o
spriteq             0x800             obj/global.o
spritecache         0x16800           obj/premap.o
SoundToggle         0x10              obj/config.o
aGameVars           0xa000            obj/gamedef.o
spriteqloc          0x10              obj/global.o
globalypanning      0x10              eobj/libengine.a(engine.o)
bglTexImage2D       0x10              eobj/libengine.a(glbuild.o)
level_names         0x9f0             obj/global.o
restorepalette      0x10              obj/game.o
bglPushMatrix       0x10              eobj/libengine.a(glbuild.o)
waterpal            0x300             obj/game.o
syncvaltail         0x10              obj/global.o
partime             0x140             obj/global.o
pipebombblastradius
                    0x10              obj/global.o
bglPopMatrix        0x10              eobj/libengine.a(glbuild.o)
asm2                0x10              eobj/libengine.a(engine.o)
captureformat       0x10              eobj/libengine.a(engine.o)
globalshade         0x10              eobj/libengine.a(engine.o)
cloudx              0x100             obj/global.o
redefined_fta_quotes
                    0x100000          obj/gamedef.o
seenineblastradius  0x10              obj/global.o
bwglSetPixelFormat  0x10              eobj/libengine.a(glbuild.o)
bglVertex2f         0x10              eobj/libengine.a(glbuild.o)
spriteflags         0xf000            obj/global.o
qe                  0x10              obj/game.o
ps                  0x3b00            obj/global.o
wx1                 0x10              eobj/libengine.a(engine.o)
multiwho            0x10              obj/global.o
global_random       0x10              obj/global.o
FXVolume            0x10              obj/config.o
parsing_actor       0x10              obj/global.o
picanm              0xf000            eobj/libengine.a(engine.o)
globalxpanning      0x10              eobj/libengine.a(engine.o)
defaultprojectile   0xe1000           obj/game.o
searchwall          0x10              eobj/libengine.a(engine.o)
bglGetTexLevelParameteriv
                    0x10              eobj/libengine.a(glbuild.o)
prevspritesect      0x8000            eobj/libengine.a(engine.o)
aDefaultGameVars    0xa000            obj/gamedef.o
aplWeaponReloadSound1
                    0x30              obj/gamedef.o
ControllerType      0x10              obj/config.o
g_weapon_xoffset    0x10              obj/player.o
gvy                 0x10              eobj/libengine.a(engine.o)
cac                 0x1b000           eobj/libengine.a(cache1d.o)
animateptr          0x400             obj/global.o
mirrorsector        0x80              obj/global.o
bglMatrixMode       0x10              eobj/libengine.a(glbuild.o)
tiletovox           0xf000            eobj/libengine.a(engine.o)
sounds              0x5f370           obj/global.o
soundpr             0x5e0             obj/global.o
actorspriteflags    0x10000           obj/global.o
tilesizx            0x7800            eobj/libengine.a(engine.o)
g_gs                0x10              obj/player.o
cosviewingrangeglobalang
                    0x10              eobj/libengine.a(engine.o)
numcyclers          0x10              obj/global.o
pus                 0x10              obj/global.o
show2dsector        0x200             eobj/libengine.a(engine.o)
actortype           0x3c00            obj/global.o
paleng              0x10              eobj/libengine.a(kplib.o)
bakipos             0x8000            obj/global.o
voxoff              0x14000           eobj/libengine.a(engine.o)
wx2                 0x10              eobj/libengine.a(engine.o)
guy                 0x10              eobj/libengine.a(engine.o)
actorscrptr         0xf000            obj/global.o
windowy2            0x10              eobj/libengine.a(engine.o)
music_pointer       0x10              obj/global.o
bglVertex3d         0x10              eobj/libengine.a(glbuild.o)
bglEnd              0x10              eobj/libengine.a(glbuild.o)
bglBindTexture      0x10              eobj/libengine.a(glbuild.o)
startsectnum        0x10              eobj/libengine.a(engine.o)
JoystickAnalogueDead
                    0x20              obj/config.o
numplayers          0x10              eobj/libengine.a(mmulti.o)
myx                 0x10              obj/global.o
g_looking_arc       0x10              obj/player.o
myonground          0x10              obj/global.o
NumVoices           0x10              obj/config.o
globaly2            0x10              eobj/libengine.a(engine.o)
SoundOwner          0xbb80            obj/global.o
numscans            0x10              eobj/libengine.a(engine.o)
bglGetError         0x10              eobj/libengine.a(glbuild.o)
animatevel          0x400             obj/global.o
max_ammo_amount     0x30              obj/global.o
gdo                 0x10              eobj/libengine.a(engine.o)
drealms             0x300             obj/game.o
level_file_names    0x4e40            obj/global.o
voxlock             0x5000            eobj/libengine.a(engine.o)
omyhoriz            0x10              obj/global.o
voxscale            0x4000            eobj/libengine.a(engine.o)
keyasciififo        0x40              eobj/libengine.a(winlayer.o)
mycursectnum        0x10              obj/global.o
connectpoint2       0x40              eobj/libengine.a(mmulti.o)
thisprojectile      0xf0000           obj/game.o
palookupoffse       0x10              eobj/libengine.a(engine.o)
loc                 0x10              obj/global.o
MusicDevice         0x10              obj/config.o
morterblastradius   0x10              obj/global.o
totalclock          0x10              eobj/libengine.a(engine.o)
myxvel              0x10              obj/global.o
globalhoriz         0x10              eobj/libengine.a(engine.o)
labelcnt            0x10              obj/global.o
__w32_sharedptr     0x10              c:/mingw/bin/../lib/gcc/mingw32/3.4.2/libgcc.a(w32-shared-ptr.o)
minfo               0x20              obj/menus.o
labeltype           0x10              obj/global.o
aplWeaponHoldDelay  0x30              obj/gamedef.o
MV_RightChannelOffset
                    0x10              obj/multivoc.o
globalhisibility    0x10              eobj/libengine.a(engine.o)
syncval             0x1000            obj/global.o
ylookup             0x12d0            eobj/libengine.a(engine.o)
alphahackarray      0xf000            eobj/libengine.a(engine.o)
avgbits2            0x10              obj/global.o
bwglCreateContext   0x10              eobj/libengine.a(glbuild.o)
typebuflen          0x10              obj/global.o
AutoAim             0x10              obj/config.o
MIDI_PatchMap       0x80              obj/midi.o
bglFrontFace        0x10              eobj/libengine.a(glbuild.o)
gdx                 0x10              eobj/libengine.a(engine.o)
myang               0x10              obj/global.o
ydim16              0x10              eobj/libengine.a(engine.o)
curipos             0x8000            obj/global.o
spritecol2d         0x7800            eobj/libengine.a(engine.o)
soundvo             0xbc0             obj/global.o
globalorientation   0x10              eobj/libengine.a(engine.o)
bglColor4f          0x10              eobj/libengine.a(glbuild.o)
camerashitable      0x10              obj/global.o
camsprite           0x10              obj/global.o
impact_damage       0x10              obj/global.o
label               0x10              obj/global.o
asm3                0x10              eobj/libengine.a(engine.o)
halfxdimen          0x10              eobj/libengine.a(engine.o)
JoystickAnalogueSaturate
                    0x20              obj/config.o
syncvaltottail      0x10              obj/global.o
bglTexCoord2d       0x10              eobj/libengine.a(glbuild.o)
bglVertex2i         0x10              eobj/libengine.a(glbuild.o)
aplWeaponFlags      0x30              obj/gamedef.o
palette             0x300             eobj/libengine.a(engine.o)
totalclocklock      0x10              eobj/libengine.a(engine.o)
highlightcnt        0x10              eobj/libengine.a(engine.o)
__CTOR_LIST__       0x10              c:/mingw/bin/../lib/gcc/mingw32/3.4.2/libgcc.a(_ctors.o)
tilefilenum         0x3c00            eobj/libengine.a(engine.o)
aplWeaponSpawn      0x30              obj/gamedef.o
myyvel              0x10              obj/global.o
angvel              0x10              obj/global.o
omyz                0x10              obj/global.o
bglGetIntegerv      0x10              eobj/libengine.a(glbuild.o)
aplWeaponReload     0x30              obj/gamedef.o
viewingrange        0x10              eobj/libengine.a(engine.o)
textptr             0x10              obj/global.o
bwglGetProcAddress  0x10              eobj/libengine.a(glbuild.o)
xdimenscale         0x10              eobj/libengine.a(engine.o)
windowy1            0x10              eobj/libengine.a(engine.o)
sbar                0x70              obj/global.o
aplWeaponWorksLike  0x30              obj/gamedef.o
globvis             0x10              eobj/libengine.a(engine.o)
movefifoplc         0x10              obj/global.o
globaldclip         0x10              eobj/libengine.a(engine.o)
globalzd            0x10              eobj/libengine.a(engine.o)
globalz             0x10              eobj/libengine.a(engine.o)
designertime        0x140             obj/global.o
multiwhat           0x10              obj/global.o
packbuf             0x240             obj/global.o
playerswhenstarted  0x10              obj/game.o
xdimenrecip         0x10              eobj/libengine.a(engine.o)
spritesortcnt       0x10              eobj/libengine.a(engine.o)
MV_MixBuffer        0x50              obj/multivoc.o
aplWeaponSpawnTime  0x30              obj/gamedef.o
umost               0xc80             eobj/libengine.a(engine.o)
ydimen              0x10              eobj/libengine.a(engine.o)
bglDepthRange       0x10              eobj/libengine.a(glbuild.o)
aplWeaponClip       0x30              obj/gamedef.o
VoiceToggle         0x10              obj/config.o
globalx3            0x10              eobj/libengine.a(engine.o)
g_kb                0x10              obj/player.o
ud                  0x960             obj/global.o
globparaflorclip    0x10              eobj/libengine.a(engine.o)
numl                0x10              obj/premap.o
condebug            0x10              obj/global.o
totalreccnt         0x10              obj/game.o
script              0x40040           obj/global.o
bglAlphaFunc        0x10              eobj/libengine.a(glbuild.o)
slopalookup         0x10000           eobj/libengine.a(engine.o)
startang            0x10              eobj/libengine.a(engine.o)
bglLoadIdentity     0x10              eobj/libengine.a(glbuild.o)
bglBlendFunc        0x10              eobj/libengine.a(glbuild.o)
rtsptr              0x10              obj/game.o
bglDeleteTextures   0x10              eobj/libengine.a(glbuild.o)
fakemovefifoplc     0x10              obj/global.o
startposz           0x10              eobj/libengine.a(engine.o)
syncvalhead         0x40              obj/global.o
globaly             0x10              eobj/libengine.a(engine.o)
RunMode             0x10              obj/config.o
tempwallptr         0x10              obj/game.o
NumBits             0x10              obj/config.o
neartaghitdist      0x10              obj/global.o
wall                0x80000           eobj/libengine.a(engine.o)
parallaxyscale      0x10              eobj/libengine.a(engine.o)
last_onehundred     0x10              obj/menus.o
cp                  0x10              obj/game.o
myjumpingtoggle     0x10              obj/global.o
_MIDI_PositionInTicks
                    0x10              obj/midi.o
slimepal            0x300             obj/game.o
MouseAnalogueScale  0x10              obj/config.o
searchsector        0x10              eobj/libengine.a(engine.o)
globalposy          0x10              eobj/libengine.a(engine.o)
validmodecnt        0x10              eobj/libengine.a(engine.o)
ototalclock         0x10              obj/global.o
aplWeaponSound2Sound
                    0x30              obj/gamedef.o
bwglGetPixelFormat  0x10              eobj/libengine.a(glbuild.o)
prevspritestat      0x8000            eobj/libengine.a(engine.o)
numbunches          0x10              eobj/libengine.a(engine.o)
asm4                0x10              eobj/libengine.a(engine.o)
JoystickDigitalFunctions
                    0x40              obj/config.o
JoystickFunctions   0x120             obj/config.o
globaly3            0x10              eobj/libengine.a(engine.o)
_MIDI_GlobalPositionInTicks
                    0x10              obj/midi.o
AmbienceToggle      0x10              obj/config.o
reciptable          0x2000            eobj/libengine.a(engine.o)
windowx2            0x10              eobj/libengine.a(engine.o)
tempbuf             0x800             obj/global.o
bglColorMask        0x10              eobj/libengine.a(glbuild.o)
display_mirror      0x10              obj/global.o
shrinkerblastradius
                    0x10              obj/global.o
gotsector           0x200             eobj/libengine.a(engine.o)
show2dsprite        0x800             eobj/libengine.a(engine.o)
KeyboardKeys        0x70              obj/config.o
cloudy              0x100             obj/global.o
viewingrangerecip   0x10              eobj/libengine.a(engine.o)
bglPolygonMode      0x10              eobj/libengine.a(glbuild.o)
multiflag           0x10              obj/global.o
xyaspect            0x10              eobj/libengine.a(engine.o)
neartagsprite       0x10              obj/global.o
soundps             0xbc0             obj/global.o
movefifosendplc     0x10              obj/global.o
nomorelogohack      0x10              obj/game.o
bglPolygonOffset    0x10              eobj/libengine.a(glbuild.o)
lumplockbyte        0x10              obj/rts.o
startumost          0xc80             eobj/libengine.a(engine.o)
killit_flag         0x10              obj/global.o
earthquaketime      0x10              obj/global.o
tilefileoffs        0xf000            eobj/libengine.a(engine.o)
bglTexCoord2f       0x10              eobj/libengine.a(glbuild.o)
globalpisibility    0x10              eobj/libengine.a(engine.o)
numframes           0x10              eobj/libengine.a(engine.o)
last_menu           0x10              obj/menus.o
nextspritesect      0x8000            eobj/libengine.a(engine.o)
bwglSwapBuffers     0x10              eobj/libengine.a(glbuild.o)
animatesect         0x200             obj/global.o
bufplce             0x10              eobj/libengine.a(engine.o)
asm1                0x10              eobj/libengine.a(engine.o)
bglFogf             0x10              eobj/libengine.a(glbuild.o)
bglFogi             0x10              eobj/libengine.a(glbuild.o)
mymaxlag            0x10              obj/global.o
globalpicnum        0x10              eobj/libengine.a(engine.o)
bglReadPixels       0x10              eobj/libengine.a(glbuild.o)
espbak              0x10              eobj/libengine.a(engine.o)
picsiz              0x3c00            eobj/libengine.a(engine.o)
globalvisibility    0x10              eobj/libengine.a(engine.o)
JoystickAnalogueAxes
                    0x20              obj/config.o
lastcontroltime     0x10              obj/player.o
bglClear            0x10              eobj/libengine.a(glbuild.o)
turnheldtime        0x10              obj/player.o
hudmem              0x78000           eobj/libengine.a(engine.o)
myz                 0x10              obj/global.o
recsync             0x9d80            obj/global.o
searchsect          0x2000            obj/player.o
globalshiftval      0x10              eobj/libengine.a(engine.o)
aplWeaponShoots     0x30              obj/gamedef.o
rpgblastradius      0x10              obj/global.o
bwglChoosePixelFormat
                    0x10              eobj/libengine.a(glbuild.o)
myminlag            0x40              obj/global.o
bglFrustum          0x10              eobj/libengine.a(glbuild.o)
globaluclip         0x10              eobj/libengine.a(engine.o)
g_gun_pos           0x10              obj/player.o
defaultlabelcnt     0x10              obj/global.o
myxbak              0x400             obj/global.o
MusicToggle         0x10              obj/config.o
pub                 0x10              obj/global.o
sector              0x28000           eobj/libengine.a(engine.o)
myzbak              0x400             obj/global.o
dashow2dsector      0x200             obj/player.o
myhorizbak          0x400             obj/global.o
MV_LeftVolume       0x10              obj/multivoc.o
__w32_sharedptr_unexpected
                    0x10              c:/mingw/bin/../lib/gcc/mingw32/3.4.2/libgcc.a(w32-shared-ptr.o)
recbuf              0x50              obj/game.o
validmode           0x1000            eobj/libengine.a(engine.o)
numanimwalls        0x10              obj/global.o
KB_LastScan         0x10              obj/keyboard.o
bwglMakeCurrent     0x10              eobj/libengine.a(glbuild.o)
bglGetFloatv        0x10              eobj/libengine.a(glbuild.o)
globalbufplc        0x10              eobj/libengine.a(engine.o)
svel                0x10              obj/global.o
MouseFunctions      0x30              obj/config.o
labelcode           0x10              obj/global.o
gvo                 0x10              eobj/libengine.a(engine.o)
dynamictostatic     0x7800            obj/namesdyn.o
halfxdim16          0x10              eobj/libengine.a(engine.o)
myhorizoff          0x10              obj/global.o
myreturntocenter    0x10              obj/global.o
bglGenTextures      0x10              eobj/libengine.a(glbuild.o)
gotpic              0x780             eobj/libengine.a(engine.o)
screencapt          0x10              obj/game.o
omyx                0x10              obj/global.o
avgsvel             0x10              obj/global.o
onbar               0x10              obj/menus.o
MV_MixDestination   0x10              obj/multivoc.o
wy1                 0x10              eobj/libengine.a(engine.o)
g_looking_angSR1    0x10              obj/player.o
cheatbuf            0x20              obj/game.o
avgavel             0x10              obj/global.o
numsectors          0x10              eobj/libengine.a(engine.o)
soundpe             0xbc0             obj/global.o
numpalookups        0x10              eobj/libengine.a(engine.o)
ShowOpponentWeapons
                    0x10              obj/config.o
music_select        0x10              obj/global.o
aplWeaponShotsPerBurst
                    0x30              obj/gamedef.o
bglClearColor       0x10              eobj/libengine.a(glbuild.o)
keyasciififoplc     0x10              eobj/libengine.a(winlayer.o)
keyfifoend          0x10              eobj/libengine.a(winlayer.o)
hittype             0x160000          obj/global.o
error               0x10              obj/global.o
avgfvel             0x10              obj/global.o
bglDepthMask        0x10              eobj/libengine.a(glbuild.o)
uplc                0xc80             eobj/libengine.a(engine.o)
guo                 0x10              eobj/libengine.a(engine.o)
bglColor4ub         0x10              eobj/libengine.a(glbuild.o)
bwglDescribePixelFormat
                    0x10              eobj/libengine.a(glbuild.o)
ReverseStereo       0x10              obj/config.o
user_quote          0x200             obj/game.o
quotebot            0x10              obj/game.o
MixRate             0x10              obj/config.o
globalx1            0x10              eobj/libengine.a(engine.o)
searchparent        0x2000            obj/player.o
bglCompressedTexImage2DARB
                    0x10              eobj/libengine.a(glbuild.o)
otherminlag         0x10              obj/global.o
bouncemineblastradius
                    0x10              obj/global.o
xdim                0x10              eobj/libengine.a(engine.o)
projectile          0xe1000           obj/game.o
screenpeek          0x10              obj/global.o
nonsharedtimer      0x10              obj/game.o
keyfifo             0x40              eobj/libengine.a(winlayer.o)
pointhighlight      0x10              eobj/libengine.a(engine.o)
MV_RightVolume      0x10              obj/multivoc.o
cyclers             0x3000            obj/global.o
globaly1            0x10              eobj/libengine.a(engine.o)
warning             0x10              obj/global.o
bglFogfv            0x10              eobj/libengine.a(glbuild.o)
max_player_health   0x10              obj/global.o
bglTexSubImage2D    0x10              eobj/libengine.a(glbuild.o)
bglDepthFunc        0x10              eobj/libengine.a(glbuild.o)
headspritesect      0x2010            eobj/libengine.a(engine.o)
globalposx          0x10              eobj/libengine.a(engine.o)
curpalette          0x400             eobj/libengine.a(engine.o)
aplWeaponFireSound  0x30              obj/gamedef.o
frags               0x200             obj/global.o
yxaspect            0x10              eobj/libengine.a(engine.o)
cheatbuflen         0x10              obj/game.o
rtsplaying          0x10              obj/global.o
myangbak            0x200             obj/global.o
dmost               0xc80             eobj/libengine.a(engine.o)
singlobalang        0x10              eobj/libengine.a(engine.o)
bglTexParameteri    0x10              eobj/libengine.a(glbuild.o)
MouseAnalogueAxes   0x10              obj/config.o
numhits             0x10              eobj/libengine.a(engine.o)
MV_MixPosition      0x10              obj/multivoc.o
lastvisinc          0x10              obj/player.o
dmval               0x10              eobj/libengine.a(pragmas.o)
po                  0x100             obj/global.o
aplWeaponRenderSize
                    0x30              obj/gamedef.o
spriteext           0x59600           eobj/libengine.a(engine.o)
bglTexEnvf          0x10              eobj/libengine.a(glbuild.o)
backflag            0x10              obj/sounds.o
artversion          0x10              eobj/libengine.a(engine.o)
curpalettefaded     0x400             eobj/libengine.a(engine.o)
tripbombblastradius
                    0x10              obj/global.o
actorLoadEventScrptr
                    0xf000            obj/gamedef.o
numtiles            0x10              eobj/libengine.a(engine.o)
waloff              0xf000            eobj/libengine.a(engine.o)
bglHint             0x10              eobj/libengine.a(glbuild.o)
numlumps            0x10              obj/rts.o
inputfifo           0x10000           obj/global.o
bglGetString        0x10              eobj/libengine.a(glbuild.o)
bitdepth            0x10              eobj/libengine.a(kplib.o)
bglPushAttrib       0x10              eobj/libengine.a(glbuild.o)
globalyscale        0x10              eobj/libengine.a(engine.o)
animatecnt          0x10              obj/global.o
omyy                0x10              obj/global.o
soundsiz            0x1770            obj/global.o
bglBegin            0x10              eobj/libengine.a(glbuild.o)
automapping         0x10              eobj/libengine.a(engine.o)
avghorz             0x10              obj/global.o
cosglobalang        0x10              eobj/libengine.a(engine.o)
MusicVolume         0x10              obj/config.o
bwglDeleteContext   0x10              eobj/libengine.a(glbuild.o)
animategoal         0x400             obj/global.o
g_szBuf             0x400             obj/gamedef.o
MV_HarshClipTable   0x10              obj/multivoc.o
palookup            0x400             eobj/libengine.a(engine.o)
last_zero           0x10              obj/menus.o
showinvisibility    0x10              eobj/libengine.a(engine.o)
bglPopAttrib        0x10              eobj/libengine.a(glbuild.o)
user_quote_time     0x10              obj/game.o
playerquitflag      0x10              obj/global.o
current_menu        0x10              obj/global.o
globalzx            0x10              eobj/libengine.a(engine.o)
parallaxtype        0x10              eobj/libengine.a(engine.o)

Memory Configuration

Name             Origin             Length             Attributes
*default*        0x00000000         0xffffffff

Linker script and memory map

                0x00400000                __image_base__ = 0x400000
                0x00000000                __dll__ = 0x0
                0x00001000                __section_alignment__ = 0x1000
                0x00000200                __file_alignment__ = 0x200
                0x00000004                __major_os_version__ = 0x4
                0x00000000                __minor_os_version__ = 0x0
                0x00000001                __major_image_version__ = 0x1
                0x00000000                __minor_image_version__ = 0x0
                0x00000004                __major_subsystem_version__ = 0x4
                0x00000000                __minor_subsystem_version__ = 0x0
                0x00000002                __subsystem__ = 0x2
                0x00200000                __size_of_stack_reserve__ = 0x200000
                0x00001000                __size_of_stack_commit__ = 0x1000
                0x00100000                __size_of_heap_reserve__ = 0x100000
                0x00001000                __size_of_heap_commit__ = 0x1000
                0x00000000                __loader_flags__ = 0x0
LOAD c:/mingw/bin/../lib/gcc/mingw32/3.4.2/../../../crt2.o
LOAD c:/mingw/bin/../lib/gcc/mingw32/3.4.2/crtbegin.o
LOAD obj/game.o
LOAD obj/actors.o
LOAD obj/anim.o
LOAD obj/animlib.o
LOAD obj/config.o
LOAD obj/gamedef.o
LOAD obj/gameexec.o
LOAD obj/global.o
LOAD obj/menus.o
LOAD obj/namesdyn.o
LOAD obj/player.o
LOAD obj/premap.o
LOAD obj/savegame.o
LOAD obj/sector.o
LOAD obj/sounds.o
LOAD obj/rts.o
LOAD obj/testcd.o
LOAD obj/osdfuncs.o
LOAD obj/osdcmds.o
LOAD obj/util_lib.o
LOAD obj/file_lib.o
LOAD obj/control.o
LOAD obj/keyboard.o
LOAD obj/mouse.o
LOAD obj/mathutil.o
LOAD obj/scriplib.o
LOAD obj/gameres.o
LOAD obj/winbits.o
LOAD obj/midi.o
LOAD obj/mpu401.o
LOAD obj/music.o
LOAD obj/mv_mix.o
LOAD obj/mv_mix16.o
LOAD obj/mvreverb.o
LOAD obj/pitch.o
LOAD obj/multivoc.o
LOAD obj/ll_man.o
LOAD obj/fx_man.o
LOAD obj/dsoundout.o
LOAD eobj/libengine.a
LOAD c:/mingw/bin/../lib/gcc/mingw32/3.4.2/../../../libm.a
LOAD c:/mingw/bin/../lib/gcc/mingw32/3.4.2/../../../libmingwex.a
LOAD c:/mingw/bin/../lib/gcc/mingw32/3.4.2/../../../libwinmm.a
LOAD c:/mingw/bin/../lib/gcc/mingw32/3.4.2/../../../libwsock32.a
LOAD c:/mingw/bin/../lib/gcc/mingw32/3.4.2/../../../libdxguid.a
LOAD c:/mingw/bin/../lib/gcc/mingw32/3.4.2/../../../libsupc++.a
LOAD c:/mingw/bin/../lib/gcc/mingw32/3.4.2/../../../libmingw32.a
LOAD c:/mingw/bin/../lib/gcc/mingw32/3.4.2/libgcc.a
LOAD c:/mingw/bin/../lib/gcc/mingw32/3.4.2/../../../libmoldname.a
LOAD c:/mingw/bin/../lib/gcc/mingw32/3.4.2/../../../libmingwex.a
LOAD c:/mingw/bin/../lib/gcc/mingw32/3.4.2/../../../libmsvcrt.a
LOAD c:/mingw/bin/../lib/gcc/mingw32/3.4.2/../../../libgdi32.a
LOAD c:/mingw/bin/../lib/gcc/mingw32/3.4.2/../../../libcomdlg32.a
LOAD c:/mingw/bin/../lib/gcc/mingw32/3.4.2/../../../libuser32.a
LOAD c:/mingw/bin/../lib/gcc/mingw32/3.4.2/../../../libkernel32.a
LOAD c:/mingw/bin/../lib/gcc/mingw32/3.4.2/../../../libadvapi32.a
LOAD c:/mingw/bin/../lib/gcc/mingw32/3.4.2/../../../libshell32.a
LOAD c:/mingw/bin/../lib/gcc/mingw32/3.4.2/../../../libmingw32.a
LOAD c:/mingw/bin/../lib/gcc/mingw32/3.4.2/libgcc.a
LOAD c:/mingw/bin/../lib/gcc/mingw32/3.4.2/../../../libmoldname.a
LOAD c:/mingw/bin/../lib/gcc/mingw32/3.4.2/../../../libmingwex.a
LOAD c:/mingw/bin/../lib/gcc/mingw32/3.4.2/../../../libmsvcrt.a
LOAD c:/mingw/bin/../lib/gcc/mingw32/3.4.2/crtend.o

.text           0x00401000    0xfac00
 *(.init)
 *(.text)
 .text          0x00401000      0x2d0 c:/mingw/bin/../lib/gcc/mingw32/3.4.2/../../../crt2.o
                0x00401290                WinMainCRTStartup
                0x00401270                mainCRTStartup
                0x004012b0                atexit
                0x004012c0                _onexit
 .text          0x004012d0       0x10 c:/mingw/bin/../lib/gcc/mingw32/3.4.2/crtbegin.o
                0x004012d0                __do_sjlj_init
 .text          0x004012e0    0x20fe0 obj/game.o
                0x00422256                GetTime
                0x0040a7e3                typemode
                0x0042226f                UpperLeft
                0x0040c0f2                displayrest
                0x0040441f                checkspriteflagsp
                0x00413997                animatesprites
                0x004045e3                badguy
                0x0041e73d                dobonus
                0x0040d0f2                drawbackground
                0x00421153                cameratext
                0x00422282                LowerRight
                0x0041a4ea                Startup
                0x0040f266                wallswitchcheck
                0x0040f3d3                spawn
                0x00401634                txgametext
                0x0041aa7f                writestring
                0x0040ada0                moveclouds
                0x004097b4                tics
                0x0041a25b                compilecons
                0x0041a8d1                getnames
                0x00404988                myospalx
                0x0040a4ff                strget
                0x0041e329                doorders
                0x0041bb8b                opendemowrite
                0x004219a1                ceilingglass
                0x00421e3f                SetupGameButtons
                0x00409cab                operatefta
                0x0040eef9                LocateTheLocator
                0x0041ab3e                load_script
                0x0041b647                opendemoread
                0x0040a0ce                FTA
                0x0041c04e                playback
                0x004043f3                checkspriteflags
                0x0040ae88                drawoverheadmap
                0x0042157b                lotsofglass
                0x0040179c                gametext
                0x00401aca                gamenumber
                0x00416757                cheats
                0x00401b5c                allowtimetocorrecterrorswhenquitting
                0x00418d9a                checkcommandline
                0x00401874                minitextshade
                0x004043ae                inventory
                0x00404794                myos
                0x00421b32                lotsofcolourglass
                0x00418d7f                comlinehelp
                0x00401808                gametextpal
                0x00407545                digitalnumber
                0x00406e81                weapon_amounts
                0x004078e3                displayinventory
                0x0041a1bd                loadtmb
                0x0041abc4                app_main
                0x0041c70c                fakedomovethingscorrect
                0x0042225c                CenterCenter
                0x0041bef1                record
                0x00401bef                adduserquote
                0x0040cd4d                view
                0x0041dc37                domovethings
                0x0040ef59                EGS
                0x00421875                spriteglass
                0x00401a8d                minitext
                0x004040ca                check_fta_sounds
                0x00402f98                faketimerhandler
                0x0041c8bd                fakedomovethings
                0x0040a3df                gameexit
                0x0041a231                Shutdown
                0x0041aaf1                copyprotect
                0x00417d21                nonsharedkeys
                0x00407e0c                displayfragbar
                0x0040510d                orderweaponnum
                0x00401505                setgamepalette
                0x00421444                vglass
                0x004098cb                coords
                0x004012e0                setstatusbarscale
                0x004080f0                coolgaugetext
                0x00405dc0                weaponnum999
                0x00404845                myospal
                0x004222a8                CenterRudder
                0x00404a1a                invennum
                0x00404436                badguypic
                0x00407763                txdigitalnumber
                0x00419678                printstr
                0x0040130b                patchstatusbar
                0x0040a181                showtwoscreens
                0x00405362                weaponnum
                0x004048d7                myosx
                0x0041aaf9                backtomenu
                0x00403ef7                checksync
                0x00416165                CheatGetInventory
                0x0040c06b                palto
                0x00419679                Logo
                0x00422295                CenterThrottle
                0x00401c64                getpackets
                0x0041c641                moveloop
                0x0040e3ee                displayrooms
                0x00403de2                caches
                0x0041a473                sanitizegametype
                0x0041bf99                closedemowrite
                0x0041a891                sendscore
 .text          0x004222c0    0x14600 obj/actors.o
                0x00423b90                lotsofmoney
                0x0042239f                dointerpolations
                0x004224fc                addweaponnoswitch
                0x0042485a                ifhitsectors
                0x00424071                gutsdir
                0x00423d72                lotsofpaper
                0x0042427e                clearsectinterpolate
                0x00428001                bounce
                0x004222e1                setinterpolation
                0x0042240d                restoreinterpolations
                0x004241c8                setsectinterpolate
                0x00422591                addweapon
                0x00424433                movefta
                0x0042a52f                movetransports
                0x00424f80                moveplayers
                0x00423e63                guts
                0x00425c1e                movestandables
                0x00422ae7                hitradius
                0x00423c81                lotsofmail
                0x004226f3                checkavailinven
                0x00424323                ms
                0x00422322                stopinterpolation
                0x004234e8                movesprite
                0x0042582b                movefallers
                0x004229cb                ifsquished
                0x004305ef                moveeffectors
                0x0042f337                moveexplosions
                0x00422779                checkavailweapon
                0x00423b28                insertspriteq
                0x004224bc                addammo
                0x00422476                floorspace
                0x004222c0                updateinterpolations
                0x00422430                ceilingspace
                0x00428213                moveweapons
                0x0042b6ab                moveactors
                0x004248b6                ifhitbyweapon
                0x00425398                movefx
                0x00423aab                ssp
                0x00424d9a                movedummyplayers
                0x00424ca4                movecyclers
 .text          0x004368c0      0x6e0 obj/anim.o
                0x00436af2                first4animsounds
                0x00436bf2                endanimvol43
                0x00436b50                intro42animsounds
                0x00436c49                playanm
                0x004368c0                endanimsounds
                0x00436b9b                endanimvol42
                0x00436aa2                intro4animsounds
                0x00436b6a                endanimvol41
                0x00436a71                logoanimsounds
 .text          0x00436fa0      0x4a0 obj/animlib.o
                0x004370cd                CPlayRunSkipDump
                0x004373a5                ANIM_DrawFrame
                0x00437186                renderframe
                0x0043741e                ANIM_GetPalette
                0x00437272                ANIM_LoadAnim
                0x00436fc4                findpage
                0x00437363                ANIM_FreeAnim
                0x0043738a                ANIM_NumFrames
                0x00437027                loadpage
                0x0043721f                drawframe
 .text          0x00437440     0x28f0 obj/config.o
                0x00437fdb                CONFIG_SetupJoystick
                0x00437503                CONFIG_AnalogNumToName
                0x00437490                CONFIG_AnalogNameToNum
                0x00437b41                CONFIG_ReadKeys
                0x0043747a                CONFIG_FunctionNumToName
                0x00437440                CONFIG_FunctionNameToNum
                0x00438490                CONFIG_ReadSetup
                0x0043753b                CONFIG_SetDefaults
                0x00438ea9                CONFIG_WriteSetup
                0x00438350                readsavenames
                0x00437cbd                CONFIG_SetupMouse
 .text          0x00439d30     0xb7e0 obj/gamedef.o
                0x00440bbd                AddSystemVars
                0x0043bf1a                parsecommand
                0x0043be8f                CountCaseStatements
                0x00444628                InitProjectiles
                0x0043bab7                transvar
                0x0043b023                GetGameValuePtr
                0x0043a03e                DefineProjectile
                0x0043b5f2                transvartype
                0x0043b372                keyword
                0x0043aa59                AddGameVar
                0x004407aa                copydefaultcons
                0x0043afa8                GetGameVar
                0x0043b203                getlabeloffset
                0x0043a345                ReadGameVars
                0x00444c94                loadefs
                0x0043b1a6                getlabelid
                0x00440856                FreeGameVars
                0x0043a5a1                SaveGameVars
                0x0043b0ea                ispecial
                0x0043b11c                isaltok
                0x0043bb27                transnum
                0x0043b0a2                GetDefID
                0x0044090a                InitGameVarPointers
                0x004450d3                ReportError
                0x00444766                ResetSystemDefaults
                0x0043a2c7                AddLog
                0x0043a294                CheckEventSync
                0x0043baca                transmultvarstype
                0x0043ace2                ResetActorGameVars
                0x0043aa08                ResetGameVars
                0x00443a89                AddDefaultDefinitions
                0x0043b401                transword
                0x0043b251                getlabel
                0x0043a7e3                DumpGameVars
                0x0043ad6e                GetGameVarID
                0x00439da5                skipcomments
                0x00444c74                InitGameVars
                0x0043baf8                transmultvars
                0x00443a34                AddDefinition
                0x004408bc                ClearGameVars
                0x0043aee8                SetGameVarID
                0x00440779                passone
                0x0043ad26                GetGameID
 .text          0x00445510    0x10420 obj/gameexec.o
                0x0044b948                getglobalz
                0x004497e5                DoSector
                0x0044b38a                OnEvent
                0x0044cad8                parse
                0x0044bd8d                alterang
                0x00449364                DoWall
                0x0044bd3a                getincangle
                0x0044aaf5                DoProjectile
                0x0044620b                DoThisProjectile
                0x0045553e                LoadActor
                0x00449d92                DoActor
                0x0044ca9d                parseifelse
                0x0044bb8f                makeitfall
                0x00446a38                DoPlayer
                0x0044c0a0                move
                0x0044b4bf                dodge
                0x0045560f                execute
                0x0044b608                furthestangle
                0x0044916b                DoInput
                0x00445510                DoUserDef
                0x0044b758                furthestcanseepoint
 .text          0x00455930     0xf140 obj/menus.o
                0x0045673e                bar
                0x004559ba                savetemp
                0x00456c38                getfilenames
                0x00455a05                getangplayers
                0x004560ac                menutext
                0x00455930                cmenu
                0x00456bef                clearfilenames
                0x0045678d                barsm
                0x00456079                probesm
                0x0045696a                dispnames
                0x00456046                probe
                0x00456ce1                menus
 .text          0x00464a70     0x91e0 obj/namesdyn.o
                0x00464a70                processnames
                0x0046b582                setupdynamictostatic
 .text          0x0046dc50    0x14140 obj/player.o
                0x0046e3b9                hits
                0x00474900                animatefist
                0x0046df82                forceplayerangle
                0x0047513f                displaymasks
                0x004747b8                displayloogie
                0x00475514                animateaccess
                0x0047aef5                checkweapons
                0x0046dd71                incur_damage
                0x0046e4b6                hitasprite
                0x0047f8ae                getspritescore
                0x00474a91                animateknee
                0x0047af8c                processinput
                0x0046dccc                fadepal
                0x0047a908                doincrements
                0x00479fd0                getinput
                0x0046e191                hitscantrail
                0x004753b0                animatetip
                0x00475737                displayweapon
                0x0046e616                hitawall
                0x0046e6de                aim
                0x0046dfc1                tracers
                0x0047fcaf                computergetinput
                0x0047507c                DoSpawn
                0x0046dc50                setpal
                0x00474deb                DoFire
                0x0046ebda                shoot
                0x00474c60                animateknuckles
                0x0046dedb                quickkill
 .text          0x00481d90     0x4540 obj/premap.o
                0x00483793                resetweapons
                0x0048473b                newgame
                0x00483c07                prelevel
                0x00482c3d                getsound
                0x00485935                clearfifo
                0x00485410                waitforeverybody
                0x004830dd                xyzmirror
                0x00482720                cachegoodsprites
                0x004849f6                resetpspritevars
                0x00485b3d                enterlevel
                0x00482de6                cacheit
                0x00483903                resetprestat
                0x0048511f                resettimevars
                0x004831df                vscrn
                0x004854fd                dofrontscreens
                0x00483af2                setupbackdrop
                0x004833f6                resetplayerstats
                0x004850d2                clearfrags
                0x00485177                genspriteremaps
                0x00485a60                resetmys
                0x00482d8a                precachenecessarysounds
                0x00483858                resetinventory
                0x00483347                pickrandomspot
                0x00481e90                cachespritenum
 .text          0x004862d0     0x25d0 obj/savegame.o
                0x004862d0                loadpheader
                0x0048653e                loadplayer
                0x00487a59                saveplayer
 .text          0x004888a0     0x98f0 obj/sector.o
                0x0048d32c                checkhitsprite
                0x00489405                animatewalls
                0x0048ad71                operatemasterswitches
                0x004891ed                getanimationgoal
                0x004892d0                animatecamsprite
                0x00488c4a                isanearoperator
                0x00488f43                doanimations
                0x0048c19d                breakwall
                0x0048f39d                cheatkeys
                0x00488c25                isanunderoperator
                0x0048f2ab                allignwarpelevators
                0x0048aa3d                operateactivators
                0x0048c11a                activatebysector
                0x0048c203                checkhitwall
                0x00488b9a                isadoorwall
                0x00488a83                check_activator_motion
                0x0048d077                checkhitceiling
                0x00488d56                findplayer
                0x004897ad                operatesectors
                0x00488ce8                dist
                0x004910c6                checksectors
                0x0048add1                operateforcefields
                0x0048cdb5                checkplayerhurt
                0x0048a98e                operaterespawns
                0x00488cc2                ldist
                0x004888a0                callsound
                0x00488d1c                txdist
                0x00488c6f                checkcursectnums
                0x0048aeed                checkhitswitch
                0x00489215                setanimation
                0x00488e78                findotherplayer
                0x0048964c                activatewarpelevators
 .text          0x00492190     0x1470 obj/sounds.o
                0x0049232e                MusicUpdate
                0x00493024                stopenvsound
                0x0049358a                clearsoundlocks
                0x00493084                pan3dsound
                0x00492fd4                stopspritesound
                0x004924b7                loadsound
                0x004925cb                xyzsound
                0x00492436                playmusic
                0x00492372                intomenusounds
                0x00492f7f                spritesound
                0x0049233a                USRHOOKS_GetMem
                0x0049228d                MusicStartup
                0x00493428                testcallback
                0x00492244                SoundShutdown
                0x004935ef                issoundplaying
                0x00492300                MusicShutdown
                0x00492cfb                sound
                0x004935cb                isspritemakingsound
                0x00492190                SoundStartup
                0x00492fe8                stopsound
                0x0049235a                USRHOOKS_FreeMem
 .text          0x00493600      0x420 obj/rts.o
                0x0049389c                RTS_NumSounds
                0x00493980                RTS_GetSound
                0x004938d6                RTS_GetSoundName
                0x004938a3                RTS_SoundLength
                0x004937ea                RTS_Init
                0x00493908                RTS_ReadLump
                0x00493600                RTS_AddFile
 .text          0x00493a20       0x10 obj/testcd.o
                0x00493a20                testcd
 .text          0x00493a30      0x470 obj/osdfuncs.o
                0x00493adc                GAME_drawosdstr
                0x00493ca9                GAME_getrowheight
                0x00493cde                GAME_clearbackground
                0x00493a30                GAME_drawosdchar
                0x00493c90                GAME_getcolumnwidth
                0x00493cb1                GAME_onshowosd
                0x00493bc9                GAME_drawosdcursor
 .text          0x00493ea0     0x1440 obj/osdcmds.o
                0x00494b44                osdcmd_exec
                0x00494d2a                osdcmd_sensitivity
                0x004949f5                osdcmd_setvar
                0x00494e04                osdcmd_give
                0x00495091                registerosdcommands
                0x00494ff8                onvideomodechange
                0x00494d82                osdcmd_gamma
                0x0049433f                osdcmd_noclip
                0x00494af8                osdcmd_cmenu
                0x00494ba1                osdcmd_cvar_set
                0x00493f0f                osdcmd_echo
                0x00494172                osdcmd_map
                0x0049437f                osdcmd_fileinfo
                0x00493f64                osdcmd_changelevel
                0x00493ea0                osdcmd_quit
                0x004942ff                osdcmd_god
 .text          0x004952e0      0x170 obj/util_lib.o
                0x00495440                IntelShort
                0x00495347                SafeMalloc
                0x00495382                SafeFree
                0x0049544b                IntelLong
                0x004953a7                SafeRealloc
                0x004952e0                RegisterShutdownFunction
                0x00495446                MotoLong
                0x004952ea                CheckParm
                0x004953f4                ParseHex
                0x00495417                ParseNum
                0x0049543a                MotoShort
 .text          0x00495450      0x270 obj/file_lib.o
                0x0049561c                SafeRead
                0x00495600                SafeFileLength
                0x00495507                SafeOpenRead
                0x00495566                SafeClose
                0x00495450                SafeOpen
                0x004955dd                SafeFileExists
 .text          0x004956c0     0x12f0 obj/control.o
                0x00496556                CONTROL_ClearUserInput
                0x0049593d                CONTROL_MapKey
                0x004960ce                CONTROL_PollDevices
                0x00495710                CONTROL_SetMouseSensitivity
                0x00495ae0                CONTROL_MapButton
                0x00495e4c                CONTROL_GetDeviceButtons
                0x0049576a                CONTROL_StartJoy
                0x00495797                CONTROL_CheckRange
                0x00495b4e                CONTROL_MapAnalogAxis
                0x0049571f                CONTROL_StartMouse
                0x00496767                CONTROL_Startup
                0x0049636b                CONTROL_GetUserInput
                0x00495705                CONTROL_GetMouseSensitivity
                0x00496766                CONTROL_Ack
                0x00496765                CONTROL_WaitRelease
                0x00495c43                CONTROL_ClearFlags
                0x00495992                CONTROL_PrintKeyMap
                0x004962c8                CONTROL_ButtonFunctionState
                0x00496973                CONTROL_Shutdown
                0x004956c0                CONTROL_GetMouseDelta
                0x00495c59                CONTROL_ClearAssignments
                0x00495736                CONTROL_FilterJoyDelta
                0x00496639                CONTROL_ClearButton
                0x00496013                CONTROL_ScaleAxis
                0x00495789                CONTROL_GetTime
                0x00495768                CONTROL_SetJoyScale
                0x00496683                CONTROL_GetInput
                0x00495f91                CONTROL_DigitizeAxis
                0x004958d6                CONTROL_DefineFlag
                0x00495735                CONTROL_GetJoyAbs
                0x004957fc                CONTROL_KeyboardFunctionPressed
                0x0049577e                CONTROL_ShutJoy
                0x00495bb3                CONTROL_MapDigitalAxis
                0x004959ce                CONTROL_PrintControlFlag
                0x00495915                CONTROL_FlagActive
                0x00496232                CONTROL_AxisFunctionState
                0x00495887                CONTROL_ClearKeyboardFunction
                0x00495a1c                CONTROL_PrintAxes
                0x00495b83                CONTROL_SetAnalogAxisScale
                0x004957a3                CONTROL_SetFlag
                0x00495769                CONTROL_CenterJoystick
                0x00495737                CONTROL_GetJoyDelta
                0x0049604f                CONTROL_ApplyAxis
 .text          0x004969b0      0x120 obj/keyboard.o
                0x00496a67                KB_TurnKeypadOn
                0x00496a72                KB_TurnKeypadOff
                0x00496a02                KB_ScanCodeToString
                0x00496a27                KB_StringToScanCode
                0x004969cc                KB_FlushKeyboardQueue
                0x004969cb                KB_Addch
                0x00496a94                KB_Startup
                0x004969bc                KB_Getch
                0x004969b0                KB_KeyWaiting
                0x004969d8                KB_ClearKeysDown
                0x00496a7d                KB_KeypadActive
                0x00496ab1                KB_Shutdown
 .text          0x00496ad0       0x70 obj/mouse.o
                0x00496ad0                MOUSE_Init
                0x00496af6                MOUSE_GetButtons
                0x00496b1f                MOUSE_GetPosition
                0x00496af5                MOUSE_HideCursor
                0x00496ae8                MOUSE_Shutdown
                0x00496b0d                MOUSE_ClearButton
                0x00496af4                MOUSE_ShowCursor
                0x00496b20                MOUSE_GetDelta
 .text          0x00496b40       0xa0 obj/mathutil.o
                0x00496b87                FindDistance3D
                0x00496b40                FindDistance2D
 .text          0x00496be0     0x1720 obj/scriplib.o
                0x0049751b                SCRIPT_Init
                0x00497a95                SCRIPT_GetDoubleString
                0x00497615                SCRIPT_Save
                0x00497eb0                SCRIPT_GetDouble
                0x00496c43                SCRIPT_Delete
                0x004977a0                SCRIPT_Section
                0x00496e70                SCRIPT_EntryExists
                0x00497cd6                SCRIPT_GetNumber
                0x00496dad                SCRIPT_AddSection
                0x00497f05                SCRIPT_PutComment
                0x004982ac                SCRIPT_PutDouble
                0x00497f06                SCRIPT_PutEOL
                0x00496ed4                SCRIPT_AddEntry
                0x00496be0                SCRIPT_New
                0x00497953                SCRIPT_GetString
                0x0049756c                SCRIPT_Load
                0x00497f4e                SCRIPT_PutString
                0x0049787a                SCRIPT_Entry
                0x00497f07                SCRIPT_PutMultiComment
                0x00498201                SCRIPT_PutNumber
                0x00498269                SCRIPT_PutBoolean
                0x00497553                SCRIPT_Free
                0x0049804a                SCRIPT_PutDoubleString
                0x00497566                SCRIPT_Parse
                0x00496ce2                SCRIPT_FreeSection
                0x00497807                SCRIPT_NumberEntries
                0x00496d33                SCRIPT_SectionExists
                0x004978fa                SCRIPT_GetRaw
                0x00497f23                SCRIPT_PutRaw
                0x00497f08                SCRIPT_PutSection
                0x00497752                SCRIPT_NumberSections
                0x00496fca                SCRIPT_ParseBuffer
                0x00497d93                SCRIPT_GetBoolean
 .text          0x00498300      0x140 obj/winbits.o
                0x004983c5                Error
                0x00498300                Win_YesNoBox
                0x00498368                Win_MsgBox
 .text          0x00498440     0x1b10 obj/midi.o
                0x00499903                MIDI_GetSongLength
                0x00499457                MIDI_SetDivision
                0x00499052                MIDI_SetVolume
                0x0049913a                MIDI_PauseSong
                0x0049946a                MIDI_GetTempo
                0x004997f9                MIDI_SetSongPosition
                0x004990ce                MIDI_GetVolume
                0x00499111                MIDI_SetLoopFlag
                0x00498dd4                MIDI_AllNotesOff
                0x00499f1d                MIDI_UpdateMusic
                0x00499740                MIDI_SetSongTime
                0x0049915e                MIDI_SongPlaying
                0x004998bf                MIDI_GetSongPosition
                0x00498f9e                MIDI_Reset
                0x00499d91                MIDI_LoadTimbres
                0x00499164                MIDI_SetMidiFuncs
                0x0049916e                MIDI_StopSong
                0x00498dbc                MIDI_RerouteMidiChannel
                0x004996cf                MIDI_SetSongTick
                0x0049911b                MIDI_ContinueSong
                0x00499206                MIDI_PlaySong
                0x00498f0f                MIDI_SetUserChannelVolume
                0x004990f8                MIDI_SetContext
                0x0049940f                MIDI_SetTempo
                0x00498f54                MIDI_ResetUserChannelVolume
                0x0049910b                MIDI_GetContext
 .text          0x00499f50      0x680 obj/mpu401.o
                0x0049a036                MPU_Pause
                0x0049a35a                MPU_Init
                0x0049a5c6                MPU_SetVolume
                0x0049a41c                MPU_NoteOn
                0x0049a260                MPU_SendMidiImmediate
                0x0049a452                MPU_PolyAftertouch
                0x0049a4be                MPU_ProgramChange
                0x0049a056                MPU_Unpause
                0x0049a54e                MPU_SetTempo
                0x0049a5c7                MPU_GetVolume
                0x0049a488                MPU_ControlChange
                0x0049a32e                MPU_Reset
                0x0049a518                MPU_PitchBend
                0x0049a3e6                MPU_NoteOff
                0x0049a00c                MPU_BeginPlayback
                0x0049a590                MPU_SetDivision
                0x00499f50                MPU_FinishBuffer
                0x0049a0dd                MPU_GetNextBuffer
                0x0049a4eb                MPU_ChannelAftertouch
                0x0049a0f9                MPU_SendMidi
                0x0049a076                MPU_MIDICallback@20
 .text          0x0049a5d0      0x2f0 obj/music.o
                0x0049a78f                MUSIC_GetContext
                0x0049a6aa                MUSIC_SetMidiChannelVolume
                0x0049a742                MUSIC_PlaySong
                0x0049a77c                MUSIC_SetContext
                0x0049a7ae                MUSIC_SetSongTime
                0x0049a6eb                MUSIC_SetLoopFlag
                0x0049a86e                MUSIC_FadeVolume
                0x0049a7e4                MUSIC_GetSongPosition
                0x0049a88c                MUSIC_StopFade
                0x0049a6fe                MUSIC_SongPlaying
                0x0049a70a                MUSIC_Continue
                0x0049a886                MUSIC_FadeActive
                0x0049a79b                MUSIC_SetSongTick
                0x0049a8a9                MUSIC_Update
                0x0049a716                MUSIC_Pause
                0x0049a6d1                MUSIC_GetVolume
                0x0049a5d0                MUSIC_ErrorString
                0x0049a722                MUSIC_StopSong
                0x0049a80a                MUSIC_InitMidi
                0x0049a7f7                MUSIC_GetSongLength
                0x0049a7c1                MUSIC_SetSongPosition
                0x0049a88d                MUSIC_RerouteMidiChannel
                0x0049a62d                MUSIC_Init
                0x0049a6c5                MUSIC_ResetMidiChannelVolumes
                0x0049a667                MUSIC_Shutdown
                0x0049a8a8                MUSIC_RegisterTimbreBank
                0x0049a678                MUSIC_SetVolume
 .text          0x0049a8c0       0xd0 obj/pitch.o
                0x0049a8c0                PITCH_GetScale
 .text          0x0049a990     0x2380 obj/multivoc.o
                0x0049bb90                MV_SetReverbDelay
                0x0049bb00                MV_SetReverb
                0x0049c435                MV_PlayVOC3D
                0x0049c4ed                MV_PlayVOC
                0x0049c19a                MV_PlayLoopedWAV
                0x0049c90f                MV_SetCallBack
                0x0049b99f                MV_EndLooping
                0x0049b459                MV_Kill
                0x0049cc27                MV_Shutdown
                0x0049bbee                MV_SetMixMode
                0x0049c8da                MV_SetVolume
                0x0049b622                MV_VoiceAvailable
                0x0049b4e4                MV_VoicesPlaying
                0x0049bd0e                MV_StartPlayback
                0x0049bf1d                MV_PlayRaw
                0x0049c929                MV_Init
                0x0049ba14                MV_SetPan
                0x0049bdcc                MV_StopPlayback
                0x0049c69d                MV_CreateVolumeTable
                0x0049bf80                MV_PlayLoopedRaw
                0x0049c919                MV_SetReverseStereo
                0x0049c540                MV_PlayLoopedVOC
                0x0049a990                ClearBuffer_DW
                0x0049c923                MV_GetReverseStereo
                0x0049ba7d                MV_Pan3D
                0x0049b3d6                MV_VoicePlaying
                0x0049c08f                MV_PlayWAV
                0x0049bb3e                MV_SetFastReverb
                0x0049c0e2                MV_PlayWAV3D
                0x0049b756                MV_SetFrequency
                0x0049b6f6                MV_SetPitch
                0x0049b40b                MV_KillAllVoices
                0x0049be24                MV_StartDemandFeedPlayback
                0x0049a9ab                MV_ErrorString
                0x0049bb83                MV_GetReverbDelay
                0x0049b926                MV_SetVoiceVolume
                0x0049c909                MV_GetVolume
                0x0049bb68                MV_GetMaxReverbDelay
 .text          0x0049cd10       0xb0 obj/ll_man.o
                0x0049cd10                LL_AddNode
                0x0049cd55                LL_RemoveNode
 .text          0x0049cdc0      0x6b0 obj/fx_man.o
                0x0049d3f7                FX_StartDemandFeedPlayback
                0x0049d171                FX_PlayLoopedWAV
                0x0049d385                FX_SoundActive
                0x0049cef9                FX_SetVolume
                0x0049cf75                FX_SetReverbDelay
                0x0049d455                AudioUpdate
                0x0049cf4a                FX_SetFastReverb
                0x0049cf69                FX_GetReverbDelay
                0x0049cf88                FX_VoiceAvailable
                0x0049cf0c                FX_GetVolume
                0x0049d05f                FX_PlayVOC
                0x0049d030                FX_SetFrequency
                0x0049cf9b                FX_EndLooping
                0x0049d0b5                FX_PlayLoopedVOC
                0x0049d2d9                FX_PlayLoopedRaw
                0x0049d225                FX_PlayWAV3D
                0x0049cee1                FX_SetCallBack
                0x0049d3d1                FX_StopAllSounds
                0x0049d398                FX_SoundsPlaying
                0x0049d34f                FX_Pan3D
                0x0049d001                FX_SetPitch
                0x0049cfc2                FX_SetPan
                0x0049cf37                FX_SetReverb
                0x0049ceaa                FX_Shutdown
                0x0049d273                FX_PlayRaw
                0x0049d11b                FX_PlayWAV
                0x0049d3a4                FX_StopSound
                0x0049cf2b                FX_GetReverseStereo
                0x0049cf18                FX_SetReverseStereo
                0x0049d1d7                FX_PlayVOC3D
                0x0049ce1d                FX_Init
                0x0049cdc0                FX_ErrorString
                0x0049cf5d                FX_GetMaxReverbDelay
 .text          0x0049d470      0xc00 obj/dsoundout.o
                0x0049d470                DisableInterrupts
                0x0049d96c                DSOUND_Shutdown
                0x0049d4c2                DSOUND_ErrorString
                0x0049df56                DSOUND_StopPlayback
                0x0049d499                RestoreInterrupts
                0x0049dae6                DSOUND_SetMixMode
                0x0049d557                DSOUND_Init
                0x0049dc82                DSOUND_BeginBufferedPlayback
 .text          0x0049e070    0x42220 eobj/libengine.a(engine.o)
                0x004d4f30                drawrooms
                0x004db5f0                setviewback
                0x004a5a30                testvisiblemost
                0x004e0240                getrendermode
                0x004d6700                clipmove
                0x004ac770                gloadtile_cached
                0x004d5890                changespritesect
                0x004da940                setvgapalette
                0x0049f0b0                partition
                0x004da9d0                setbrightness
                0x004a02d0                md_defineskin
                0x004a3d00                gltexmayhavealpha
                0x004a3e00                gltexapplyprops
                0x004a7ab0                dxtfilter
                0x004a5950                vsinsaft
                0x0049e110                hicinit
                0x004a4230                polymost_glinit
                0x004db3e0                setviewtotile
                0x004dae80                setpalettefade
                0x004d1760                inside
                0x004db770                squarerotatetile
                0x004a5320                trytexcache
                0x004a4330                resizeglcheck
                0x004df010                printext16
                0x004ad730                polymost_precache
                0x004d4250                polymost_drawrooms
                0x004c8cc0                drawmasks
                0x004cea20                lastwall
                0x004d59a0                changespritestat
                0x004d13d0                qloadkvx
                0x004a5e30                getceilzofslope
                0x004a0210                md_definehud
                0x004d0320                loadmaphack
                0x004d1500                clipinsidebox
                0x004b2210                loadtile
                0x0049e2a0                hicsetsubsttex
                0x004d9e70                setaspect
                0x004d2bd0                hitscan
                0x004df150                printext256
                0x004dd1c0                clear2dscreen
                0x004a4df0                gloadtile_art
                0x004bf270                polymost_drawsprite
                0x004a2df0                md_loadmodel
                0x004d1200                copytilepiece
                0x004d1650                clipinsideboxline
                0x004a9710                mddraw
                0x004dd210                draw2dgrid
                0x004d5980                deletesprite
                0x004d0300                insertsprite
                0x0049e090                loadvoxel
                0x004a05f0                md_setmisc
                0x004d5850                krecip
                0x004db220                plotpixel
                0x004a7900                polymost_initosdfuncs
                0x0049ed20                md_undefinetile
                0x004a7ec0                writexcache
                0x0049e1f0                hicsetpalettetint
                0x004a6b70                setpolymost2dview
                0x004dbc80                alignflorslope
                0x004dbdb0                loopnumofsector
                0x004db830                preparemirror
                0x004a0640                md_undefinemodel
                0x0049e080                kfree
                0x004d9f00                setview
                0x004d8d30                updatesectorz
                0x004adc70                polymost_fillpolygon
                0x004dc210                drawline256
                0x004a0520                md_defineframe
                0x004a5ab0                getzsofslope
                0x004c8b00                uninitengine
                0x004a4140                polymost_glreset
                0x004dabc0                setgamemode
                0x004d1910                loadoldboard
                0x004b86f0                drawpoly
                0x004dba90                sectorofwall
                0x004dfc50                screencapture_pcx
                0x004a3dc0                gltexinvalidateall
                0x004cea70                drawmapview
                0x004a5ce0                getflorzofslope
                0x004da050                flushperms
                0x004e0200                setrendermode
                0x0049e410                hicsetskybox
                0x004d8fc0                getmousevalues
                0x004d88c0                pushmove
                0x004d5810                ksqrt
                0x004a45e0                fixtransparency
                0x004dcf20                qsetmode640350
                0x004ac980                gloadtile_hi
                0x004a58d0                vsdel
                0x004d6620                dragpoint
                0x004a6c70                polymost_printext256
                0x004d0d10                loadpics
                0x004d0980                clearallviews
                0x004d1110                allocatepermanenttile
                0x004dd0b0                qsetmodeany
                0x004da510                makepalookup
                0x004dcb20                drawcircle16
                0x004c83c0                initengine
                0x004d0af0                nextpage
                0x004da060                rotatesprite
                0x004d56f0                getangle
                0x004db370                getpixel
                0x0049f220                gloadtex
                0x004a3d50                gltexinvalidate
                0x004d58f0                setsprite
                0x004a26a0                mdload
                0x004c8bd0                initspritelists
                0x004d8ff0                krand
                0x0049e6a0                drawline2d
                0x004dd4d0                draw2dscreen
                0x004dbb50                alignceilslope
                0x004e01d0                screencapture
                0x004bb620                polymost_dorotatesprite
                0x0049ff40                mdfree
                0x004d5a00                nextsectorneighborz
                0x004a0430                md_defineanimation
                0x004d5d60                neartag
                0x004a5500                initmosts
                0x0049e070                kmalloc
                0x004dc6e0                drawline16
                0x004ad800                polymost_drawtilescreen
                0x004d8f00                rotatepoint
                0x0049e5d0                hicclearsubst
                0x0049ed50                mdloadskin_trytexcache
                0x004d9010                getzrange
                0x004dbe10                setfirstwall
                0x004db940                completemirror
                0x004db050                clearview
                0x004d0540                saveboard
                0x0049f1b0                quicksort
                0x004e0250                setrollangle
                0x004db540                invalidatetile
                0x004d5ad0                cansee
                0x004d1830                updatesector
                0x0049ec10                md_tilehasmodel
                0x004dcfd0                qsetmode640480
                0x004c1df0                domost
                0x004a8460                dedxtfilter
                0x004d2680                loadboard
                0x004c0a90                polymost_drawmaskwall
                0x004df5c0                screencapture_tga
 .text          0x004e0290     0x7090 eobj/libengine.a(winlayer.o)
                0x004e0a90                debugprintf
                0x004e13f0                handleevents
                0x004e0b30                readmousexy
                0x004e53f0                setvideomode
                0x004e69d0                initsystem
                0x004e2990                getvalidmodes
                0x004e2180                grabmouse
                0x004e0af0                bflushchars
                0x004e0aa0                bgetchar
                0x004e1300                sampletimer
                0x004e0400                wm_ynbox
                0x004e60d0                inittimer
                0x004e0980                win_getstartupwin
                0x004e6cd0                WinMain@16
                0x004e1260                getticks
                0x004e0b90                readmousebstatus
                0x004e3e90                setgamma
                0x004e1160                getkeyname
                0x004e2880                gettimerfreq
                0x004e02a0                win_gethinstance
                0x004e2fe0                begindrawing
                0x004e09d0                win_getstartupcommand
                0x004e0290                win_gethwnd
                0x004e2fd0                resetvideomode
                0x004e0dc0                releaseallbuttons
                0x004e21c0                uninitmouse
                0x004e1180                getjoyname
                0x004e0b00                setkeypresscallback
                0x004e0ad0                bkbhit
                0x004e38b0                showframe
                0x004e02b0                win_allowtaskswitching
                0x004e0b10                setmousepresscallback
                0x004e0360                win_checkinstance
                0x004e0a60                uninittimer
                0x004e30e0                enddrawing
                0x004e0470                wm_setapptitle
                0x004e1d70                initprintf
                0x004e49f0                uninitsystem
                0x004e21f0                getjoydeadzone
                0x004e2340                setjoydeadzone
                0x004e03a0                wm_msgbox
                0x004e2720                uninitinput
                0x004e4630                setpalette
                0x004e61e0                initinput
                0x004e0b20                setjoypresscallback
                0x004e1250                installusertimercallback
                0x004e2e10                checkvideomode
                0x004e2490                initmouse
 .text          0x004e7320     0x1290 eobj/libengine.a(mmulti.o)
                0x004e7740                initmultiplayersparms
                0x004e7680                setpackettimeout
                0x004e7340                netinit
                0x004e8380                initmultiplayerscycle
                0x004e76e0                sendlogoff
                0x004e75d0                isvalidipaddress
                0x004e7d00                dosendpackets
                0x004e7730                uninitmultiplayers
                0x004e7f30                getpacket
                0x004e76d0                sendlogon
                0x004e76a0                getoutputcirclesize
                0x004e7520                netread
                0x004e7690                genericmultifunction
                0x004e7320                netuninit
                0x004e76c0                flushpackets
                0x004e8490                initmultiplayers
                0x004e74a0                netsend
                0x004e84e0                sendpacket
                0x004e76b0                setsocket
 .text          0x004e85b0     0x2d90 eobj/libengine.a(cache1d.o)
                0x004e87a0                agecache
                0x004e9a70                kfilelength
                0x004e9c30                kclose
                0x004e86a0                suckcache
                0x004e8fb0                fopenfrompath
                0x004e94d0                uninitgroupfile
                0x004e9390                uninitsinglegroupfile
                0x004eb020                dfwrite
                0x004e8610                initcache
                0x004e8f50                openfrompath
                0x004e9900                klseek
                0x004ea800                dfread
                0x004e8cf0                addsearchpath
                0x004e8e00                findfrompath
                0x004e9550                kopen4load
                0x004e8960                allocache
                0x004e9dc0                klistfree
                0x004ea540                kdfread
                0x004e90b0                initgroupfile
                0x004e9750                kread
                0x004e9b40                ktell
                0x004e9df0                klistpath
                0x004ead30                kdfwrite
 .text          0x004eb340     0x1d20 eobj/libengine.a(osd.o)
                0x004eb8c0                OSD_SetParameters
                0x004ec250                OSD_Dispatch
                0x004ebab0                OSD_Draw
                0x004eb700                OSD_SetFunctions
                0x004eb900                OSD_CaptureKey
                0x004ebe40                OSD_RegisterFunction
                0x004ec0f0                OSD_Printf
                0x004eb690                OSD_SetLogFile
                0x004eb910                OSD_ResizeDisplay
                0x004eba50                OSD_ShowDisplay
                0x004eb650                OSD_Cleanup
                0x004ec050                OSD_Init
                0x004ec5e0                OSD_HandleKey
                0x004ec3c0                OSD_DispatchQueued
 .text          0x004ed060     0x2510 eobj/libengine.a(defs.o)
                0x004ef530                loaddefinitionsfile
 .text          0x004ef570      0x750 eobj/libengine.a(compat.o)
                0x004ef680                Bopendir
                0x004efbf0                Bwildmatch
                0x004ef840                Bstrtoken
                0x004ef570                Bgethomedir
                0x004ef810                Bclosedir
                0x004ef650                Bfilelength
                0x004ef5c0                Bgetsystemdrives
                0x004ef6e0                Breaddir
                0x004ef900                Bcorrectfilename
                0x004efaa0                Bcanonicalisefilename
                0x004efca0                Bgetsysmemsize
 .text          0x004efcc0      0x160 eobj/libengine.a(pragmas.o)
                0x004efcc0                boundmulscale
                0x004efcf0                clearbufbyte
                0x004efdc0                copybufreverse
                0x004efd50                copybufbyte
 .text          0x004efe20      0x510 eobj/libengine.a(baselayer.o)
                0x004f0270                baselayer_init
 .text          0x004f0330       0xe0 eobj/libengine.a(crc32.o)
                0x004f0330                initcrc32table
                0x004f0380                crc32init
                0x004f03c0                crc32finish
                0x004f0390                crc32block
                0x004f03d0                crc32once
 .text          0x004f0410      0xb90 eobj/libengine.a(glbuild.o)
                0x004f0530                unloadgldriver
                0x004f0750                loadgldriver
                0x004f04c0                loadglextensions
 .text          0x004f0fa0      0xc60 eobj/libengine.a(scriptfile.o)
                0x004f1720                scriptfile_fromfile
                0x004f1050                scriptfile_getlinum
                0x004f10b0                scriptfile_getstring
                0x004f1bb0                scriptfile_clearsymbols
                0x004f17f0                scriptfile_getsymbolvalue
                0x004f14e0                scriptfile_preparse
                0x004f1200                scriptfile_getdouble
                0x004f19d0                scriptfile_close
                0x004f1410                scriptfile_getbraces
                0x004f1100                scriptfile_getnumber
                0x004f1a60                scriptfile_addsymbolvalue
                0x004f1010                scriptfile_gettoken
                0x004f1930                scriptfile_fromstring
                0x004f1880                scriptfile_getsymbol
 .text          0x004f1c00      0x100 eobj/libengine.a(lzf_d.o)
                0x004f1c00                lzf_decompress
 .text          0x004f1d00      0x250 eobj/libengine.a(lzf_c.o)
                0x004f1d00                lzf_compress
 .text          0x004f1f50      0x7c0 eobj/libengine.a(md4.o)
                0x004f2620                md4finish
                0x004f2520                md4block
                0x004f26c0                md4once
                0x004f1f50                md4init
 .text          0x004f2710     0x7680 eobj/libengine.a(kplib.o)
                0x004f8ad0                kzopen
                0x004f4e50                kprender
                0x004f8d40                kzfindfilestart
                0x004f9c60                kpzload
                0x004f9c00                kzeof
                0x004f8760                kzuninit
                0x004f9080                kzread
                0x004f9bb0                kztell
                0x004f9bd0                kzgetc
                0x004f9b40                kzseek
                0x004f4be0                kpgetdim
                0x004f87b0                kzaddstack
                0x004f9c30                kzclose
                0x004f9b20                kzfilelength
                0x004f8d90                kzfindfile
 .text          0x004f9d90       0x30 c:/mingw/bin/../lib/gcc/mingw32/3.4.2/../../../libmingwex.a(snprintf.o)
                0x004f9d90                snprintf
 .text          0x004f9dc0      0x560 c:/mingw/bin/../lib/gcc/mingw32/3.4.2/../../../libmingwex.a(dirent.o)
                0x004fa1b0                rewinddir
                0x004fa210                telldir
                0x004fa150                closedir
                0x004fa000                readdir
                0x004f9dc0                opendir
                0x004fa250                seekdir
 .text          0x004fa320        0x8 c:/mingw/bin/../lib/gcc/mingw32/3.4.2/../../../libwinmm.a(dgtfs00084.o)
                0x004fa320                midiOutPrepareHeader@12
 *fill*         0x004fa328        0x8 00
 .text          0x004fa330        0x8 c:/mingw/bin/../lib/gcc/mingw32/3.4.2/../../../libwinmm.a(dgtfs00091.o)
                0x004fa330                midiStreamOut@12
 *fill*         0x004fa338        0x8 00
 .text          0x004fa340        0x8 c:/mingw/bin/../lib/gcc/mingw32/3.4.2/../../../libwinmm.a(dgtfs00095.o)
                0x004fa340                midiStreamRestart@4
 *fill*         0x004fa348        0x8 00
 .text          0x004fa350        0x8 c:/mingw/bin/../lib/gcc/mingw32/3.4.2/../../../libwinmm.a(dgtfs00092.o)
                0x004fa350                midiStreamPause@4
 *fill*         0x004fa358        0x8 00
 .text          0x004fa360        0x8 c:/mingw/bin/../lib/gcc/mingw32/3.4.2/../../../libwinmm.a(dgtfs00088.o)
                0x004fa360                midiOutUnprepareHeader@12
 *fill*         0x004fa368        0x8 00
 .text          0x004fa370        0x8 c:/mingw/bin/../lib/gcc/mingw32/3.4.2/../../../libwinmm.a(dgtfs00087.o)
                0x004fa370                midiOutShortMsg@8
 *fill*         0x004fa378        0x8 00
 .text          0x004fa380        0x8 c:/mingw/bin/../lib/gcc/mingw32/3.4.2/../../../libwinmm.a(dgtfs00081.o)
                0x004fa380                midiOutLongMsg@12
 *fill*         0x004fa388        0x8 00
 .text          0x004fa390        0x8 c:/mingw/bin/../lib/gcc/mingw32/3.4.2/../../../libwinmm.a(dgtfs00096.o)
                0x004fa390                midiStreamStop@4
 *fill*         0x004fa398        0x8 00
 .text          0x004fa3a0        0x8 c:/mingw/bin/../lib/gcc/mingw32/3.4.2/../../../libwinmm.a(dgtfs00089.o)
                0x004fa3a0                midiStreamClose@4
 *fill*         0x004fa3a8        0x8 00
 .text          0x004fa3b0        0x8 c:/mingw/bin/../lib/gcc/mingw32/3.4.2/../../../libwinmm.a(dgtfs00074.o)
                0x004fa3b0                midiOutGetDevCapsA@12
 *fill*         0x004fa3b8        0x8 00
 .text          0x004fa3c0        0x8 c:/mingw/bin/../lib/gcc/mingw32/3.4.2/../../../libwinmm.a(dgtfs00090.o)
                0x004fa3c0                midiStreamOpen@24
 *fill*         0x004fa3c8        0x8 00
 .text          0x004fa3d0        0x8 c:/mingw/bin/../lib/gcc/mingw32/3.4.2/../../../libwinmm.a(dgtfs00094.o)
                0x004fa3d0                midiStreamProperty@12
 *fill*         0x004fa3d8        0x8 00
 .text          0x004fa3e0        0x8 c:/mingw/bin/../lib/gcc/mingw32/3.4.2/../../../libwsock32.a(deoes00037.o)
                0x004fa3e0                closesocket@4
 *fill*         0x004fa3e8        0x8 00
 .text          0x004fa3f0        0x8 c:/mingw/bin/../lib/gcc/mingw32/3.4.2/../../../libwsock32.a(deoes00025.o)
                0x004fa3f0                WSACleanup@0
 *fill*         0x004fa3f8        0x8 00
 .text          0x004fa400        0x8 c:/mingw/bin/../lib/gcc/mingw32/3.4.2/../../../libwsock32.a(deoes00031.o)
                0x004fa400                WSAStartup@8
 *fill*         0x004fa408        0x8 00
 .text          0x004fa410        0x8 c:/mingw/bin/../lib/gcc/mingw32/3.4.2/../../../libwsock32.a(deoes00072.o)
                0x004fa410                socket@12
 *fill*         0x004fa418        0x8 00
 .text          0x004fa420        0x8 c:/mingw/bin/../lib/gcc/mingw32/3.4.2/../../../libwsock32.a(deoes00056.o)
                0x004fa420                ioctlsocket@12
 *fill*         0x004fa428        0x8 00
 .text          0x004fa430        0x8 c:/mingw/bin/../lib/gcc/mingw32/3.4.2/../../../libwsock32.a(deoes00052.o)
                0x004fa430                htons@4
 *fill*         0x004fa438        0x8 00
 .text          0x004fa440        0x8 c:/mingw/bin/../lib/gcc/mingw32/3.4.2/../../../libwsock32.a(deoes00036.o)
                0x004fa440                bind@12
 *fill*         0x004fa448        0x8 00
 .text          0x004fa450        0x8 c:/mingw/bin/../lib/gcc/mingw32/3.4.2/../../../libwsock32.a(deoes00042.o)
                0x004fa450                gethostname@8
 *fill*         0x004fa458        0x8 00
 .text          0x004fa460        0x8 c:/mingw/bin/../lib/gcc/mingw32/3.4.2/../../../libwsock32.a(deoes00041.o)
                0x004fa460                gethostbyname@4
 *fill*         0x004fa468        0x8 00
 .text          0x004fa470        0x8 c:/mingw/bin/../lib/gcc/mingw32/3.4.2/../../../libwsock32.a(deoes00055.o)
                0x004fa470                inet_ntoa@4
 *fill*         0x004fa478        0x8 00
 .text          0x004fa480        0x8 c:/mingw/bin/../lib/gcc/mingw32/3.4.2/../../../libwsock32.a(deoes00068.o)
                0x004fa480                sendto@24
 *fill*         0x004fa488        0x8 00
 .text          0x004fa490        0x8 c:/mingw/bin/../lib/gcc/mingw32/3.4.2/../../../libwsock32.a(deoes00062.o)
                0x004fa490                recvfrom@24
 *fill*         0x004fa498        0x8 00
 .text          0x004fa4a0        0x8 c:/mingw/bin/../lib/gcc/mingw32/3.4.2/../../../libwsock32.a(deoes00053.o)
                0x004fa4a0                inet_addr@4
 *fill*         0x004fa4a8        0x8 00
 .text          0x004fa4b0        0x8 c:/mingw/bin/../lib/gcc/mingw32/3.4.2/../../../libwsock32.a(deoes00059.o)
                0x004fa4b0                ntohs@4
 *fill*         0x004fa4b8        0x8 00
 .text          0x004fa4c0      0x3c0 c:/mingw/bin/../lib/gcc/mingw32/3.4.2/../../../libdxguid.a(dxguid.o)
                0x004fa770                GUID_POV
                0x004fa720                GUID_RyAxis
                0x004fa640                CLSID_DirectInputDevice
                0x004fa570                IID_IDirectDrawColorControl
                0x004fa5f0                IID_IDirectSoundCapture
                0x004fa550                IID_IDirectDrawPalette
                0x004fa4d0                CLSID_DirectDrawClipper
                0x004fa760                GUID_Key
                0x004fa6a0                IID_IDirectInputDeviceW
                0x004fa790                GUID_SysMouse
                0x004fa670                IID_IDirectInput2A
                0x004fa4c0                CLSID_DirectDraw
                0x004fa690                IID_IDirectInputDeviceA
                0x004fa610                IID_IDirectSoundNotify
                0x004fa540                IID_IDirectDrawSurface4
                0x004fa7a0                GUID_SysKeyboard
                0x004fa5d0                IID_IDirectSound3DListener
                0x004fa750                GUID_Button
                0x004fa810                GUID_SawtoothUp
                0x004fa4f0                IID_IDirectDraw2
                0x004fa680                IID_IDirectInput2W
                0x004fa4e0                IID_IDirectDraw
                0x004fa700                GUID_ZAxis
                0x004fa7b0                GUID_Joystick
                0x004fa800                GUID_Triangle
                0x004fa5a0                CLSID_DirectSoundCapture
                0x004fa590                CLSID_DirectSound
                0x004fa520                IID_IDirectDrawSurface2
                0x004fa780                GUID_Unknown
                0x004fa820                GUID_SawtoothDown
                0x004fa660                IID_IDirectInputW
                0x004fa510                IID_IDirectDrawSurface
                0x004fa500                IID_IDirectDraw4
                0x004fa600                IID_IDirectSoundCaptureBuffer
                0x004fa7c0                GUID_ConstantForce
                0x004fa7e0                GUID_Square
                0x004fa5b0                IID_IDirectSound
                0x004fa830                GUID_Spring
                0x004fa730                GUID_RzAxis
                0x004fa5c0                IID_IDirectSoundBuffer
                0x004fa6d0                IID_IDirectInputEffect
                0x004fa7d0                GUID_RampForce
                0x004fa840                GUID_Damper
                0x004fa6c0                IID_IDirectInputDevice2W
                0x004fa870                GUID_CustomForce
                0x004fa620                IID_IKsPropertySet
                0x004fa7f0                GUID_Sine
                0x004fa580                IID_IDirectDrawGammaControl
                0x004fa850                GUID_Inertia
                0x004fa6b0                IID_IDirectInputDevice2A
                0x004fa630                CLSID_DirectInput
                0x004fa710                GUID_RxAxis
                0x004fa530                IID_IDirectDrawSurface3
                0x004fa6e0                GUID_XAxis
                0x004fa860                GUID_Friction
                0x004fa6f0                GUID_YAxis
                0x004fa560                IID_IDirectDrawClipper
                0x004fa5e0                IID_IDirectSound3DBuffer
                0x004fa650                IID_IDirectInputA
                0x004fa740                GUID_Slider
 .text          0x004fa880      0x120 c:/mingw/bin/../lib/gcc/mingw32/3.4.2/../../../libmingw32.a(main.o)
                0x004fa880                main
 .text          0x004fa9a0       0x30 c:/mingw/bin/../lib/gcc/mingw32/3.4.2/../../../libmingw32.a(pseudo-reloc.o)
                0x004fa9a0                _pei386_runtime_relocator
 .text          0x004fa9d0       0x10 c:/mingw/bin/../lib/gcc/mingw32/3.4.2/../../../libmingw32.a(CRT_fp10.o)
                0x004fa9d0                _fpreset
                0x004fa9d0                fpreset
 .text          0x004fa9e0      0x100 c:/mingw/bin/../lib/gcc/mingw32/3.4.2/../../../libmingw32.a(gccmain.o)
                0x004faa70                __main
                0x004fa9e0                __do_global_dtors
                0x004faa10                __do_global_ctors
 .text          0x004faae0      0x2f0 c:/mingw/bin/../lib/gcc/mingw32/3.4.2/libgcc.a(w32-shared-ptr.o)
                0x004fab90                __w32_sharedptr_initialize
 .text          0x004fadd0       0x30 c:/mingw/bin/../lib/gcc/mingw32/3.4.2/libgcc.a(_chkstk.o)
                0x004fadd0                __chkstk
                0x004fadd0                _alloca
 .text          0x004fae00      0x160 c:/mingw/bin/../lib/gcc/mingw32/3.4.2/libgcc.a(_divdi3.o)
                0x004fae00                __divdi3
 .text          0x004faf60       0x50 c:/mingw/bin/../lib/gcc/mingw32/3.4.2/libgcc.a(_eprintf.o)
                0x004faf60                __eprintf
 .text          0x004fafb0        0x8 c:/mingw/bin/../lib/gcc/mingw32/3.4.2/../../../libmoldname.a(duuds00002.o)
                0x004fafb0                chdir
 *fill*         0x004fafb8        0x8 00
 .text          0x004fafc0        0x8 c:/mingw/bin/../lib/gcc/mingw32/3.4.2/../../../libmoldname.a(duuds00055.o)
                0x004fafc0                mkdir
 *fill*         0x004fafc8        0x8 00
 .text          0x004fafd0        0x8 c:/mingw/bin/../lib/gcc/mingw32/3.4.2/../../../libmoldname.a(duuds00037.o)
                0x004fafd0                getcwd
 *fill*         0x004fafd8        0x8 00
 .text          0x004fafe0        0x8 c:/mingw/bin/../lib/gcc/mingw32/3.4.2/../../../libmoldname.a(duuds00000.o)
                0x004fafe0                access
 *fill*         0x004fafe8        0x8 00
 .text          0x004faff0        0x8 c:/mingw/bin/../lib/gcc/mingw32/3.4.2/../../../libmoldname.a(duuds00081.o)
                0x004faff0                strdup
 *fill*         0x004faff8        0x8 00
 .text          0x004fb000        0x8 c:/mingw/bin/../lib/gcc/mingw32/3.4.2/../../../libmoldname.a(duuds00064.o)
                0x004fb000                read
 *fill*         0x004fb008        0x8 00
 .text          0x004fb010        0x8 c:/mingw/bin/../lib/gcc/mingw32/3.4.2/../../../libmoldname.a(duuds00006.o)
                0x004fb010                close
 *fill*         0x004fb018        0x8 00
 .text          0x004fb020        0x8 c:/mingw/bin/../lib/gcc/mingw32/3.4.2/../../../libmoldname.a(duuds00110.o)
                0x004fb020                write
 *fill*         0x004fb028        0x8 00
 .text          0x004fb030        0x8 c:/mingw/bin/../lib/gcc/mingw32/3.4.2/../../../libmoldname.a(duuds00058.o)
                0x004fb030                open
 *fill*         0x004fb038        0x8 00
 .text          0x004fb040        0x8 c:/mingw/bin/../lib/gcc/mingw32/3.4.2/../../../libmoldname.a(duuds00079.o)
                0x004fb040                stat
 *fill*         0x004fb048        0x8 00
 .text          0x004fb050        0x8 c:/mingw/bin/../lib/gcc/mingw32/3.4.2/../../../libmoldname.a(duuds00051.o)
                0x004fb050                lseek
 *fill*         0x004fb058        0x8 00
 .text          0x004fb060        0x8 c:/mingw/bin/../lib/gcc/mingw32/3.4.2/../../../libmoldname.a(duuds00023.o)
                0x004fb060                fdopen
 *fill*         0x004fb068        0x8 00
 .text          0x004fb070        0x8 c:/mingw/bin/../lib/gcc/mingw32/3.4.2/../../../libmoldname.a(duuds00032.o)
                0x004fb070                fstat
 *fill*         0x004fb078        0x8 00
 .text          0x004fb080        0x8 c:/mingw/bin/../lib/gcc/mingw32/3.4.2/../../../libmoldname.a(duuds00026.o)
                0x004fb080                filelength
 *fill*         0x004fb088        0x8 00
 .text          0x004fb090        0x8 c:/mingw/bin/../lib/gcc/mingw32/3.4.2/../../../libmsvcrt.a(dwpds00080.o)
                0x004fb090                __set_app_type
 *fill*         0x004fb098        0x8 00
 .text          0x004fb0a0        0x8 c:/mingw/bin/../lib/gcc/mingw32/3.4.2/../../../libmsvcrt.a(dwpds00121.o)
                0x004fb0a0                _cexit
 *fill*         0x004fb0a8        0x8 00
 .text          0x004fb0b0        0x8 c:/mingw/bin/../lib/gcc/mingw32/3.4.2/../../../libmsvcrt.a(dwpds00060.o)
                0x004fb0b0                __p__environ
 *fill*         0x004fb0b8        0x8 00
 .text          0x004fb0c0        0x8 c:/mingw/bin/../lib/gcc/mingw32/3.4.2/../../../libmsvcrt.a(dwpds00656.o)
                0x004fb0c0                signal
 *fill*         0x004fb0c8        0x8 00
 .text          0x004fb0d0        0x8 c:/mingw/bin/../lib/gcc/mingw32/3.4.2/../../../libmsvcrt.a(dwpds00062.o)
                0x004fb0d0                __p__fmode
 *fill*         0x004fb0d8        0x8 00
 .text          0x004fb0e0        0x8 c:/mingw/bin/../lib/gcc/mingw32/3.4.2/../../../libmsvcrt.a(dwpds00388.o)
                0x004fb0e0                _setmode
 *fill*         0x004fb0e8        0x8 00
 .text          0x004fb0f0        0x8 c:/mingw/bin/../lib/gcc/mingw32/3.4.2/../../../libmsvcrt.a(dwpds00039.o)
                0x004fb0f0                __getmainargs
 *fill*         0x004fb0f8        0x8 00
 .text          0x004fb100        0x8 c:/mingw/bin/../lib/gcc/mingw32/3.4.2/../../../libmsvcrt.a(dwpds00579.o)
                0x004fb100                fseek
 *fill*         0x004fb108        0x8 00
 .text          0x004fb110        0x8 c:/mingw/bin/../lib/gcc/mingw32/3.4.2/../../../libmsvcrt.a(dwpds00583.o)
                0x004fb110                fwrite
 *fill*         0x004fb118        0x8 00
 .text          0x004fb120        0x8 c:/mingw/bin/../lib/gcc/mingw32/3.4.2/../../../libmsvcrt.a(dwpds00587.o)
                0x004fb120                getenv
 *fill*         0x004fb128        0x8 00
 .text          0x004fb130        0x8 c:/mingw/bin/../lib/gcc/mingw32/3.4.2/../../../libmsvcrt.a(dwpds00680.o)
                0x004fb130                strtok
 *fill*         0x004fb138        0x8 00
 .text          0x004fb140        0x8 c:/mingw/bin/../lib/gcc/mingw32/3.4.2/../../../libmsvcrt.a(dwpds00563.o)
                0x004fb140                fgets
 *fill*         0x004fb148        0x8 00
 .text          0x004fb150        0x8 c:/mingw/bin/../lib/gcc/mingw32/3.4.2/../../../libmsvcrt.a(dwpds00575.o)
                0x004fb150                free
 *fill*         0x004fb158        0x8 00
 .text          0x004fb160        0x8 c:/mingw/bin/../lib/gcc/mingw32/3.4.2/../../../libmsvcrt.a(dwpds00676.o)
                0x004fb160                strrchr
 *fill*         0x004fb168        0x8 00
 .text          0x004fb170        0x8 c:/mingw/bin/../lib/gcc/mingw32/3.4.2/../../../libmsvcrt.a(dwpds00626.o)
                0x004fb170                malloc
 *fill*         0x004fb178        0x8 00
 .text          0x004fb180        0x8 c:/mingw/bin/../lib/gcc/mingw32/3.4.2/../../../libmsvcrt.a(dwpds00543.o)
                0x004fb180                atol
 *fill*         0x004fb188        0x8 00
 .text          0x004fb190        0x8 c:/mingw/bin/../lib/gcc/mingw32/3.4.2/../../../libmsvcrt.a(dwpds00664.o)
                0x004fb190                strchr
 *fill*         0x004fb198        0x8 00
 .text          0x004fb1a0        0x8 c:/mingw/bin/../lib/gcc/mingw32/3.4.2/../../../libmsvcrt.a(dwpds00545.o)
                0x004fb1a0                calloc
 *fill*         0x004fb1a8        0x8 00
 .text          0x004fb1b0        0x8 c:/mingw/bin/../lib/gcc/mingw32/3.4.2/../../../libmsvcrt.a(dwpds00570.o)
                0x004fb1b0                fputc
 *fill*         0x004fb1b8        0x8 00
 .text          0x004fb1c0        0x8 c:/mingw/bin/../lib/gcc/mingw32/3.4.2/../../../libmsvcrt.a(dwpds00569.o)
                0x004fb1c0                fprintf
 *fill*         0x004fb1c8        0x8 00
 .text          0x004fb1d0        0x8 c:/mingw/bin/../lib/gcc/mingw32/3.4.2/../../../libmsvcrt.a(dwpds00692.o)
                0x004fb1d0                tolower
 *fill*         0x004fb1d8        0x8 00
 .text          0x004fb1e0        0x8 c:/mingw/bin/../lib/gcc/mingw32/3.4.2/../../../libmsvcrt.a(dwpds00647.o)
                0x004fb1e0                rand
 *fill*         0x004fb1e8        0x8 00
 .text          0x004fb1f0        0x8 c:/mingw/bin/../lib/gcc/mingw32/3.4.2/../../../libmsvcrt.a(dwpds00663.o)
                0x004fb1f0                strcat
 *fill*         0x004fb1f8        0x8 00
 .text          0x004fb200        0x8 c:/mingw/bin/../lib/gcc/mingw32/3.4.2/../../../libmsvcrt.a(dwpds00554.o)
                0x004fb200                exit
 *fill*         0x004fb208        0x8 00
 .text          0x004fb210        0x8 c:/mingw/bin/../lib/gcc/mingw32/3.4.2/../../../libmsvcrt.a(dwpds00557.o)
                0x004fb210                fclose
 *fill*         0x004fb218        0x8 00
 .text          0x004fb220        0x8 c:/mingw/bin/../lib/gcc/mingw32/3.4.2/../../../libmsvcrt.a(dwpds00634.o)
                0x004fb220                memset
 *fill*         0x004fb228        0x8 00
 .text          0x004fb230        0x8 c:/mingw/bin/../lib/gcc/mingw32/3.4.2/../../../libmsvcrt.a(dwpds00659.o)
                0x004fb230                sprintf
 *fill*         0x004fb238        0x8 00
 .text          0x004fb240        0x8 c:/mingw/bin/../lib/gcc/mingw32/3.4.2/../../../libmsvcrt.a(dwpds00667.o)
                0x004fb240                strcpy
 *fill*         0x004fb248        0x8 00
 .text          0x004fb250        0x8 c:/mingw/bin/../lib/gcc/mingw32/3.4.2/../../../libmsvcrt.a(dwpds00693.o)
                0x004fb250                toupper
 *fill*         0x004fb258        0x8 00
 .text          0x004fb260        0x8 c:/mingw/bin/../lib/gcc/mingw32/3.4.2/../../../libmsvcrt.a(dwpds00411.o)
                0x004fb260                _stricmp
 *fill*         0x004fb268        0x8 00
 .text          0x004fb270        0x8 c:/mingw/bin/../lib/gcc/mingw32/3.4.2/../../../libmsvcrt.a(dwpds00568.o)
                0x004fb270                fopen
 *fill*         0x004fb278        0x8 00
 .text          0x004fb280        0x8 c:/mingw/bin/../lib/gcc/mingw32/3.4.2/../../../libmsvcrt.a(dwpds00632.o)
                0x004fb280                memcpy
 *fill*         0x004fb288        0x8 00
 .text          0x004fb290        0x8 c:/mingw/bin/../lib/gcc/mingw32/3.4.2/../../../libmsvcrt.a(dwpds00642.o)
                0x004fb290                puts
 *fill*         0x004fb298        0x8 00
 .text          0x004fb2a0        0x8 c:/mingw/bin/../lib/gcc/mingw32/3.4.2/../../../libmsvcrt.a(dwpds00665.o)
                0x004fb2a0                strcmp
 *fill*         0x004fb2a8        0x8 00
 .text          0x004fb2b0        0x8 c:/mingw/bin/../lib/gcc/mingw32/3.4.2/../../../libmsvcrt.a(dwpds00235.o)
                0x004fb2b0                _isctype
 *fill*         0x004fb2b8        0x8 00
 .text          0x004fb2c0        0x8 c:/mingw/bin/../lib/gcc/mingw32/3.4.2/../../../libmsvcrt.a(dwpds00622.o)
                0x004fb2c0                localtime
 *fill*         0x004fb2c8        0x8 00
 .text          0x004fb2d0        0x8 c:/mingw/bin/../lib/gcc/mingw32/3.4.2/../../../libmsvcrt.a(dwpds00536.o)
                0x004fb2d0                asctime
 *fill*         0x004fb2d8        0x8 00
 .text          0x004fb2e0        0x8 c:/mingw/bin/../lib/gcc/mingw32/3.4.2/../../../libmsvcrt.a(dwpds00689.o)
                0x004fb2e0                time
 *fill*         0x004fb2e8        0x8 00
 .text          0x004fb2f0        0x8 c:/mingw/bin/../lib/gcc/mingw32/3.4.2/../../../libmsvcrt.a(dwpds00672.o)
                0x004fb2f0                strncat
 *fill*         0x004fb2f8        0x8 00
 .text          0x004fb300        0x8 c:/mingw/bin/../lib/gcc/mingw32/3.4.2/../../../libmsvcrt.a(dwpds00639.o)
                0x004fb300                printf
 *fill*         0x004fb308        0x8 00
 .text          0x004fb310        0x8 c:/mingw/bin/../lib/gcc/mingw32/3.4.2/../../../libmsvcrt.a(dwpds00674.o)
                0x004fb310                strncpy
 *fill*         0x004fb318        0x8 00
 .text          0x004fb320        0x8 c:/mingw/bin/../lib/gcc/mingw32/3.4.2/../../../libmsvcrt.a(dwpds00648.o)
                0x004fb320                realloc
 *fill*         0x004fb328        0x8 00
 .text          0x004fb330        0x8 c:/mingw/bin/../lib/gcc/mingw32/3.4.2/../../../libmsvcrt.a(dwpds00542.o)
                0x004fb330                atoi
 *fill*         0x004fb338        0x8 00
 .text          0x004fb340        0x8 c:/mingw/bin/../lib/gcc/mingw32/3.4.2/../../../libmsvcrt.a(dwpds00681.o)
                0x004fb340                strtol
 *fill*         0x004fb348        0x8 00
 .text          0x004fb350        0x8 c:/mingw/bin/../lib/gcc/mingw32/3.4.2/../../../libmsvcrt.a(dwpds00152.o)
                0x004fb350                _errno
 *fill*         0x004fb358        0x8 00
 .text          0x004fb360        0x8 c:/mingw/bin/../lib/gcc/mingw32/3.4.2/../../../libmsvcrt.a(dwpds00669.o)
                0x004fb360                strerror
 *fill*         0x004fb368        0x8 00
 .text          0x004fb370        0x8 c:/mingw/bin/../lib/gcc/mingw32/3.4.2/../../../libmsvcrt.a(dwpds00415.o)
                0x004fb370                _strnicmp
 *fill*         0x004fb378        0x8 00
 .text          0x004fb380        0x8 c:/mingw/bin/../lib/gcc/mingw32/3.4.2/../../../libmsvcrt.a(dwpds00701.o)
                0x004fb380                vsprintf
 *fill*         0x004fb388        0x8 00
 .text          0x004fb390        0x8 c:/mingw/bin/../lib/gcc/mingw32/3.4.2/../../../libmsvcrt.a(dwpds00682.o)
                0x004fb390                strtoul
 *fill*         0x004fb398        0x8 00
 .text          0x004fb3a0        0x8 c:/mingw/bin/../lib/gcc/mingw32/3.4.2/../../../libmsvcrt.a(dwpds00657.o)
                0x004fb3a0                sin
 *fill*         0x004fb3a8        0x8 00
 .text          0x004fb3b0        0x8 c:/mingw/bin/../lib/gcc/mingw32/3.4.2/../../../libmsvcrt.a(dwpds00549.o)
                0x004fb3b0                cos
 *fill*         0x004fb3b8        0x8 00
 .text          0x004fb3c0        0x8 c:/mingw/bin/../lib/gcc/mingw32/3.4.2/../../../libmsvcrt.a(dwpds00660.o)
                0x004fb3c0                sqrt
 *fill*         0x004fb3c8        0x8 00
 .text          0x004fb3d0        0x8 c:/mingw/bin/../lib/gcc/mingw32/3.4.2/../../../libmsvcrt.a(dwpds00566.o)
                0x004fb3d0                floor
 *fill*         0x004fb3d8        0x8 00
 .text          0x004fb3e0        0x8 c:/mingw/bin/../lib/gcc/mingw32/3.4.2/../../../libmsvcrt.a(dwpds00671.o)
                0x004fb3e0                strlen
 *fill*         0x004fb3e8        0x8 00
 .text          0x004fb3f0        0x8 c:/mingw/bin/../lib/gcc/mingw32/3.4.2/../../../libmsvcrt.a(dwpds00638.o)
                0x004fb3f0                pow
 *fill*         0x004fb3f8        0x8 00
 .text          0x004fb400        0x8 c:/mingw/bin/../lib/gcc/mingw32/3.4.2/../../../libmsvcrt.a(dwpds00645.o)
                0x004fb400                qsort
 *fill*         0x004fb408        0x8 00
 .text          0x004fb410        0x8 c:/mingw/bin/../lib/gcc/mingw32/3.4.2/../../../libmsvcrt.a(dwpds00655.o)
                0x004fb410                setvbuf
 *fill*         0x004fb418        0x8 00
 .text          0x004fb420        0x8 c:/mingw/bin/../lib/gcc/mingw32/3.4.2/../../../libmsvcrt.a(dwpds00576.o)
                0x004fb420                freopen
 *fill*         0x004fb428        0x8 00
 .text          0x004fb430        0x8 c:/mingw/bin/../lib/gcc/mingw32/3.4.2/../../../libmsvcrt.a(dwpds00445.o)
                0x004fb430                _vsnprintf
 *fill*         0x004fb438        0x8 00
 .text          0x004fb440        0x8 c:/mingw/bin/../lib/gcc/mingw32/3.4.2/../../../libmsvcrt.a(dwpds00574.o)
                0x004fb440                fread
 *fill*         0x004fb448        0x8 00
 .text          0x004fb450        0x8 c:/mingw/bin/../lib/gcc/mingw32/3.4.2/../../../libmsvcrt.a(dwpds00571.o)
                0x004fb450                fputs
 *fill*         0x004fb458        0x8 00
 .text          0x004fb460        0x8 c:/mingw/bin/../lib/gcc/mingw32/3.4.2/../../../libmsvcrt.a(dwpds00633.o)
                0x004fb460                memmove
 *fill*         0x004fb468        0x8 00
 .text          0x004fb470        0x8 c:/mingw/bin/../lib/gcc/mingw32/3.4.2/../../../libmsvcrt.a(dwpds00207.o)
                0x004fb470                _getdcwd
 *fill*         0x004fb478        0x8 00
 .text          0x004fb480        0x8 c:/mingw/bin/../lib/gcc/mingw32/3.4.2/../../../libmsvcrt.a(dwpds00581.o)
                0x004fb480                ftell
 *fill*         0x004fb488        0x8 00
 .text          0x004fb490        0x8 c:/mingw/bin/../lib/gcc/mingw32/3.4.2/../../../libmsvcrt.a(dwpds00280.o)
                0x004fb490                _lrotl
 *fill*         0x004fb498        0x8 00
 .text          0x004fb4a0        0x8 c:/mingw/bin/../lib/gcc/mingw32/3.4.2/../../../libmsvcrt.a(dwpds00175.o)
                0x004fb4a0                _findclose
 *fill*         0x004fb4a8        0x8 00
 .text          0x004fb4b0        0x8 c:/mingw/bin/../lib/gcc/mingw32/3.4.2/../../../libmsvcrt.a(dwpds00179.o)
                0x004fb4b0                _findnext
 *fill*         0x004fb4b8        0x8 00
 .text          0x004fb4c0        0x8 c:/mingw/bin/../lib/gcc/mingw32/3.4.2/../../../libmsvcrt.a(dwpds00176.o)
                0x004fb4c0                _findfirst
 *fill*         0x004fb4c8        0x8 00
 .text          0x004fb4d0        0x8 c:/mingw/bin/../lib/gcc/mingw32/3.4.2/../../../libmsvcrt.a(dwpds00198.o)
                0x004fb4d0                _fullpath
 *fill*         0x004fb4d8        0x8 00
 .text          0x004fb4e0        0x8 c:/mingw/bin/../lib/gcc/mingw32/3.4.2/../../../libmsvcrt.a(dwpds00533.o)
                0x004fb4e0                abort
 *fill*         0x004fb4e8        0x8 00
 .text          0x004fb4f0        0x8 c:/mingw/bin/../lib/gcc/mingw32/3.4.2/../../../libmsvcrt.a(dwpds00560.o)
                0x004fb4f0                fflush
 *fill*         0x004fb4f8        0x8 00
 .text          0x004fb500        0x8 c:/mingw/bin/../lib/gcc/mingw32/3.4.2/../../../libgdi32.a(deubs00145.o)
                0x004fb500                GetDeviceCaps@8
 *fill*         0x004fb508        0x8 00
 .text          0x004fb510        0x8 c:/mingw/bin/../lib/gcc/mingw32/3.4.2/../../../libgdi32.a(deubs00072.o)
                0x004fb510                DeleteObject@4
 *fill*         0x004fb518        0x8 00
 .text          0x004fb520        0x8 c:/mingw/bin/../lib/gcc/mingw32/3.4.2/../../../libgdi32.a(deubs00012.o)
                0x004fb520                BitBlt@36
 *fill*         0x004fb528        0x8 00
 .text          0x004fb530        0x8 c:/mingw/bin/../lib/gcc/mingw32/3.4.2/../../../libgdi32.a(deubs00294.o)
                0x004fb530                SetDeviceGammaRamp@8
 *fill*         0x004fb538        0x8 00
 .text          0x004fb540        0x8 c:/mingw/bin/../lib/gcc/mingw32/3.4.2/../../../libgdi32.a(deubs00291.o)
                0x004fb540                SetDIBColorTable@16
 *fill*         0x004fb548        0x8 00
 .text          0x004fb550        0x8 c:/mingw/bin/../lib/gcc/mingw32/3.4.2/../../../libgdi32.a(deubs00315.o)
                0x004fb550                SetSystemPaletteUse@8
 *fill*         0x004fb558        0x8 00
 .text          0x004fb560        0x8 c:/mingw/bin/../lib/gcc/mingw32/3.4.2/../../../libgdi32.a(deubs00306.o)
                0x004fb560                SetPaletteEntries@16
 *fill*         0x004fb568        0x8 00
 .text          0x004fb570        0x8 c:/mingw/bin/../lib/gcc/mingw32/3.4.2/../../../libgdi32.a(deubs00278.o)
                0x004fb570                SelectPalette@12
 *fill*         0x004fb578        0x8 00
 .text          0x004fb580        0x8 c:/mingw/bin/../lib/gcc/mingw32/3.4.2/../../../libgdi32.a(deubs00256.o)
                0x004fb580                RealizePalette@4
 *fill*         0x004fb588        0x8 00
 .text          0x004fb590        0x8 c:/mingw/bin/../lib/gcc/mingw32/3.4.2/../../../libgdi32.a(deubs00055.o)
                0x004fb590                CreatePalette@4
 *fill*         0x004fb598        0x8 00
 .text          0x004fb5a0        0x8 c:/mingw/bin/../lib/gcc/mingw32/3.4.2/../../../libgdi32.a(deubs00069.o)
                0x004fb5a0                DeleteDC@4
 *fill*         0x004fb5a8        0x8 00
 .text          0x004fb5b0        0x8 c:/mingw/bin/../lib/gcc/mingw32/3.4.2/../../../libgdi32.a(deubs00015.o)
                0x004fb5b0                ChoosePixelFormat@8
 *fill*         0x004fb5b8        0x8 00
 .text          0x004fb5c0        0x8 c:/mingw/bin/../lib/gcc/mingw32/3.4.2/../../../libgdi32.a(deubs00308.o)
                0x004fb5c0                SetPixelFormat@12
 *fill*         0x004fb5c8        0x8 00
 .text          0x004fb5d0        0x8 c:/mingw/bin/../lib/gcc/mingw32/3.4.2/../../../libgdi32.a(deubs00038.o)
                0x004fb5d0                CreateDIBSection@24
 *fill*         0x004fb5d8        0x8 00
 .text          0x004fb5e0        0x8 c:/mingw/bin/../lib/gcc/mingw32/3.4.2/../../../libgdi32.a(deubs00033.o)
                0x004fb5e0                CreateCompatibleDC@4
 *fill*         0x004fb5e8        0x8 00
 .text          0x004fb5f0        0x8 c:/mingw/bin/../lib/gcc/mingw32/3.4.2/../../../libgdi32.a(deubs00277.o)
                0x004fb5f0                SelectObject@8
 *fill*         0x004fb5f8        0x8 00
 .text          0x004fb600        0x8 c:/mingw/bin/../lib/gcc/mingw32/3.4.2/../../../libgdi32.a(deubs00146.o)
                0x004fb600                GetDeviceGammaRamp@8
 *fill*         0x004fb608        0x8 00
 .text          0x004fb610        0x8 c:/mingw/bin/../lib/gcc/mingw32/3.4.2/../../../libuser32.a(dgdfs00430.o)
                0x004fb610                MessageBoxA@16
 *fill*         0x004fb618        0x8 00
 .text          0x004fb620        0x8 c:/mingw/bin/../lib/gcc/mingw32/3.4.2/../../../libuser32.a(dgdfs00483.o)
                0x004fb620                RegisterHotKey@16
 *fill*         0x004fb628        0x8 00
 .text          0x004fb630        0x8 c:/mingw/bin/../lib/gcc/mingw32/3.4.2/../../../libuser32.a(dgdfs00612.o)
                0x004fb630                UnregisterHotKey@8
 *fill*         0x004fb638        0x8 00
 .text          0x004fb640        0x8 c:/mingw/bin/../lib/gcc/mingw32/3.4.2/../../../libuser32.a(dgdfs00568.o)
                0x004fb640                SetWindowTextA@8
 *fill*         0x004fb648        0x8 00
 .text          0x004fb650        0x8 c:/mingw/bin/../lib/gcc/mingw32/3.4.2/../../../libuser32.a(dgdfs00251.o)
                0x004fb650                GetDlgCtrlID@4
 *fill*         0x004fb658        0x8 00
 .text          0x004fb660        0x8 c:/mingw/bin/../lib/gcc/mingw32/3.4.2/../../../libuser32.a(dgdfs00323.o)
                0x004fb660                GetSysColorBrush@4
 *fill*         0x004fb668        0x8 00
 .text          0x004fb670        0x8 c:/mingw/bin/../lib/gcc/mingw32/3.4.2/../../../libuser32.a(dgdfs00399.o)
                0x004fb670                LoadBitmapA@8
 *fill*         0x004fb678        0x8 00
 .text          0x004fb680        0x8 c:/mingw/bin/../lib/gcc/mingw32/3.4.2/../../../libuser32.a(dgdfs00499.o)
                0x004fb680                SendDlgItemMessageA@20
 *fill*         0x004fb688        0x8 00
 .text          0x004fb690        0x8 c:/mingw/bin/../lib/gcc/mingw32/3.4.2/../../../libuser32.a(dgdfs00252.o)
                0x004fb690                GetDlgItem@8
 *fill*         0x004fb698        0x8 00
 .text          0x004fb6a0        0x8 c:/mingw/bin/../lib/gcc/mingw32/3.4.2/../../../libuser32.a(dgdfs00235.o)
                0x004fb6a0                GetClientRect@8
 *fill*         0x004fb6a8        0x8 00
 .text          0x004fb6b0        0x8 c:/mingw/bin/../lib/gcc/mingw32/3.4.2/../../../libuser32.a(dgdfs00441.o)
                0x004fb6b0                MoveWindow@24
 *fill*         0x004fb6b8        0x8 00
 .text          0x004fb6c0        0x8 c:/mingw/bin/../lib/gcc/mingw32/3.4.2/../../../libuser32.a(dgdfs00346.o)
                0x004fb6c0                GetWindowRect@8
 *fill*         0x004fb6c8        0x8 00
 .text          0x004fb6d0        0x8 c:/mingw/bin/../lib/gcc/mingw32/3.4.2/../../../libuser32.a(dgdfs00325.o)
                0x004fb6d0                GetSystemMetrics@4
 *fill*         0x004fb6d8        0x8 00
 .text          0x004fb6e0        0x8 c:/mingw/bin/../lib/gcc/mingw32/3.4.2/../../../libuser32.a(dgdfs00340.o)
                0x004fb6e0                GetWindowLongA@8
 *fill*         0x004fb6e8        0x8 00
 .text          0x004fb6f0        0x8 c:/mingw/bin/../lib/gcc/mingw32/3.4.2/../../../libuser32.a(dgdfs00001.o)
                0x004fb6f0                AdjustWindowRect@12
 *fill*         0x004fb6f8        0x8 00
 .text          0x004fb700        0x8 c:/mingw/bin/../lib/gcc/mingw32/3.4.2/../../../libuser32.a(dgdfs00247.o)
                0x004fb700                GetDC@4
 *fill*         0x004fb708        0x8 00
 .text          0x004fb710        0x8 c:/mingw/bin/../lib/gcc/mingw32/3.4.2/../../../libuser32.a(dgdfs00488.o)
                0x004fb710                ReleaseDC@8
 *fill*         0x004fb718        0x8 00
 .text          0x004fb720        0x8 c:/mingw/bin/../lib/gcc/mingw32/3.4.2/../../../libuser32.a(dgdfs00566.o)
                0x004fb720                SetWindowPos@28
 *fill*         0x004fb728        0x8 00
 .text          0x004fb730        0x8 c:/mingw/bin/../lib/gcc/mingw32/3.4.2/../../../libuser32.a(dgdfs00460.o)
                0x004fb730                PeekMessageA@20
 *fill*         0x004fb738        0x8 00
 .text          0x004fb740        0x8 c:/mingw/bin/../lib/gcc/mingw32/3.4.2/../../../libuser32.a(dgdfs00390.o)
                0x004fb740                IsWindow@4
 *fill*         0x004fb748        0x8 00
 .text          0x004fb750        0x8 c:/mingw/bin/../lib/gcc/mingw32/3.4.2/../../../libuser32.a(dgdfs00381.o)
                0x004fb750                IsDialogMessageA@8
 *fill*         0x004fb758        0x8 00
 .text          0x004fb760        0x8 c:/mingw/bin/../lib/gcc/mingw32/3.4.2/../../../libuser32.a(dgdfs00602.o)
                0x004fb760                TranslateMessage@4
 *fill*         0x004fb768        0x8 00
 .text          0x004fb770        0x8 c:/mingw/bin/../lib/gcc/mingw32/3.4.2/../../../libuser32.a(dgdfs00148.o)
                0x004fb770                DispatchMessageA@4
 *fill*         0x004fb778        0x8 00
 .text          0x004fb780        0x8 c:/mingw/bin/../lib/gcc/mingw32/3.4.2/../../../libuser32.a(dgdfs00442.o)
                0x004fb780                MsgWaitForMultipleObjects@20
 *fill*         0x004fb788        0x8 00
 .text          0x004fb790        0x8 c:/mingw/bin/../lib/gcc/mingw32/3.4.2/../../../libuser32.a(dgdfs00267.o)
                0x004fb790                GetKeyState@4
 *fill*         0x004fb798        0x8 00
 .text          0x004fb7a0        0x8 c:/mingw/bin/../lib/gcc/mingw32/3.4.2/../../../libuser32.a(dgdfs00502.o)
                0x004fb7a0                SendMessageA@16
 *fill*         0x004fb7a8        0x8 00
 .text          0x004fb7b0        0x8 c:/mingw/bin/../lib/gcc/mingw32/3.4.2/../../../libuser32.a(dgdfs00193.o)
                0x004fb7b0                EnumDisplaySettingsA@12
 *fill*         0x004fb7b8        0x8 00
 .text          0x004fb7c0        0x8 c:/mingw/bin/../lib/gcc/mingw32/3.4.2/../../../libuser32.a(dgdfs00029.o)
                0x004fb7c0                ChangeDisplaySettingsA@8
 *fill*         0x004fb7c8        0x8 00
 .text          0x004fb7d0        0x8 c:/mingw/bin/../lib/gcc/mingw32/3.4.2/../../../libuser32.a(dgdfs00143.o)
                0x004fb7d0                DestroyWindow@4
 *fill*         0x004fb7d8        0x8 00
 .text          0x004fb7e0        0x8 c:/mingw/bin/../lib/gcc/mingw32/3.4.2/../../../libuser32.a(dgdfs00552.o)
                0x004fb7e0                SetSysColors@12
 *fill*         0x004fb7e8        0x8 00
 .text          0x004fb7f0        0x8 c:/mingw/bin/../lib/gcc/mingw32/3.4.2/../../../libuser32.a(dgdfs00133.o)
                0x004fb7f0                DefWindowProcA@16
 *fill*         0x004fb7f8        0x8 00
 .text          0x004fb800        0x8 c:/mingw/bin/../lib/gcc/mingw32/3.4.2/../../../libuser32.a(dgdfs00089.o)
                0x004fb800                CreateWindowExA@48
 *fill*         0x004fb808        0x8 00
 .text          0x004fb810        0x8 c:/mingw/bin/../lib/gcc/mingw32/3.4.2/../../../libuser32.a(dgdfs00579.o)
                0x004fb810                ShowWindow@8
 *fill*         0x004fb818        0x8 00
 .text          0x004fb820        0x8 c:/mingw/bin/../lib/gcc/mingw32/3.4.2/../../../libuser32.a(dgdfs00528.o)
                0x004fb820                SetForegroundWindow@4
 *fill*         0x004fb828        0x8 00
 .text          0x004fb830        0x8 c:/mingw/bin/../lib/gcc/mingw32/3.4.2/../../../libuser32.a(dgdfs00527.o)
                0x004fb830                SetFocus@4
 *fill*         0x004fb838        0x8 00
 .text          0x004fb840        0x8 c:/mingw/bin/../lib/gcc/mingw32/3.4.2/../../../libuser32.a(dgdfs00563.o)
                0x004fb840                SetWindowLongA@12
 *fill*         0x004fb848        0x8 00
 .text          0x004fb850        0x8 c:/mingw/bin/../lib/gcc/mingw32/3.4.2/../../../libuser32.a(dgdfs00614.o)
                0x004fb850                UpdateWindow@4
 *fill*         0x004fb858        0x8 00
 .text          0x004fb860        0x8 c:/mingw/bin/../lib/gcc/mingw32/3.4.2/../../../libuser32.a(dgdfs00045.o)
                0x004fb860                CharToOemA@8
 *fill*         0x004fb868        0x8 00
 .text          0x004fb870        0x8 c:/mingw/bin/../lib/gcc/mingw32/3.4.2/../../../libuser32.a(dgdfs00322.o)
                0x004fb870                GetSysColor@4
 *fill*         0x004fb878        0x8 00
 .text          0x004fb880        0x8 c:/mingw/bin/../lib/gcc/mingw32/3.4.2/../../../libuser32.a(dgdfs00079.o)
                0x004fb880                CreateDialogParamA@20
 *fill*         0x004fb888        0x8 00
 .text          0x004fb890        0x8 c:/mingw/bin/../lib/gcc/mingw32/3.4.2/../../../libuser32.a(dgdfs00407.o)
                0x004fb890                LoadImageA@24
 *fill*         0x004fb898        0x8 00
 .text          0x004fb8a0        0x8 c:/mingw/bin/../lib/gcc/mingw32/3.4.2/../../../libuser32.a(dgdfs00401.o)
                0x004fb8a0                LoadCursorA@8
 *fill*         0x004fb8a8        0x8 00
 .text          0x004fb8b0        0x8 c:/mingw/bin/../lib/gcc/mingw32/3.4.2/../../../libuser32.a(dgdfs00476.o)
                0x004fb8b0                RegisterClassExA@4
 *fill*         0x004fb8b8        0x8 00
 .text          0x004fb8c0        0x8 c:/mingw/bin/../lib/gcc/mingw32/3.4.2/../../../libuser32.a(dgdfs00633.o)
                0x004fb8c0                wsprintfA
 *fill*         0x004fb8c8        0x8 00
 .text          0x004fb8d0        0x8 c:/mingw/bin/../lib/gcc/mingw32/3.4.2/../../../libkernel32.a(dqifs00736.o)
                0x004fb8d0                SetUnhandledExceptionFilter@4
 *fill*         0x004fb8d8        0x8 00
 .text          0x004fb8e0        0x8 c:/mingw/bin/../lib/gcc/mingw32/3.4.2/../../../libkernel32.a(dqifs00155.o)
                0x004fb8e0                ExitProcess@4
 *fill*         0x004fb8e8        0x8 00
 .text          0x004fb8f0        0x8 c:/mingw/bin/../lib/gcc/mingw32/3.4.2/../../../libkernel32.a(dqifs00125.o)
                0x004fb8f0                EnterCriticalSection@4
 *fill*         0x004fb8f8        0x8 00
 .text          0x004fb900        0x8 c:/mingw/bin/../lib/gcc/mingw32/3.4.2/../../../libkernel32.a(dqifs00521.o)
                0x004fb900                LeaveCriticalSection@4
 *fill*         0x004fb908        0x8 00
 .text          0x004fb910        0x8 c:/mingw/bin/../lib/gcc/mingw32/3.4.2/../../../libkernel32.a(dqifs00490.o)
                0x004fb910                InitializeCriticalSection@4
 *fill*         0x004fb918        0x8 00
 .text          0x004fb920        0x8 c:/mingw/bin/../lib/gcc/mingw32/3.4.2/../../../libkernel32.a(dqifs00522.o)
                0x004fb920                LoadLibraryA@4
 *fill*         0x004fb928        0x8 00
 .text          0x004fb930        0x8 c:/mingw/bin/../lib/gcc/mingw32/3.4.2/../../../libkernel32.a(dqifs00362.o)
                0x004fb930                GetProcAddress@8
 *fill*         0x004fb938        0x8 00
 .text          0x004fb940        0x8 c:/mingw/bin/../lib/gcc/mingw32/3.4.2/../../../libkernel32.a(dqifs00064.o)
                0x004fb940                CreateEventA@16
 *fill*         0x004fb948        0x8 00
 .text          0x004fb950        0x8 c:/mingw/bin/../lib/gcc/mingw32/3.4.2/../../../libkernel32.a(dqifs00038.o)
                0x004fb950                CloseHandle@4
 *fill*         0x004fb958        0x8 00
 .text          0x004fb960        0x8 c:/mingw/bin/../lib/gcc/mingw32/3.4.2/../../../libkernel32.a(dqifs00213.o)
                0x004fb960                FreeLibrary@4
 *fill*         0x004fb968        0x8 00
 .text          0x004fb970        0x8 c:/mingw/bin/../lib/gcc/mingw32/3.4.2/../../../libkernel32.a(dqifs00804.o)
                0x004fb970                WaitForMultipleObjects@16
 *fill*         0x004fb978        0x8 00
 .text          0x004fb980        0x8 c:/mingw/bin/../lib/gcc/mingw32/3.4.2/../../../libkernel32.a(dqifs00090.o)
                0x004fb980                CreateThread@24
 *fill*         0x004fb988        0x8 00
 .text          0x004fb990        0x8 c:/mingw/bin/../lib/gcc/mingw32/3.4.2/../../../libkernel32.a(dqifs00732.o)
                0x004fb990                SetThreadPriority@8
 *fill*         0x004fb998        0x8 00
 .text          0x004fb9a0        0x8 c:/mingw/bin/../lib/gcc/mingw32/3.4.2/../../../libkernel32.a(dqifs00638.o)
                0x004fb9a0                ResumeThread@4
 *fill*         0x004fb9a8        0x8 00
 .text          0x004fb9b0        0x8 c:/mingw/bin/../lib/gcc/mingw32/3.4.2/../../../libkernel32.a(dqifs00695.o)
                0x004fb9b0                SetEvent@4
 *fill*         0x004fb9b8        0x8 00
 .text          0x004fb9c0        0x8 c:/mingw/bin/../lib/gcc/mingw32/3.4.2/../../../libkernel32.a(dqifs00806.o)
                0x004fb9c0                WaitForSingleObject@8
 *fill*         0x004fb9c8        0x8 00
 .text          0x004fb9d0        0x8 c:/mingw/bin/../lib/gcc/mingw32/3.4.2/../../../libkernel32.a(dqifs00595.o)
                0x004fb9d0                QueryPerformanceCounter@4
 *fill*         0x004fb9d8        0x8 00
 .text          0x004fb9e0        0x8 c:/mingw/bin/../lib/gcc/mingw32/3.4.2/../../../libkernel32.a(dqifs00281.o)
                0x004fb9e0                GetCurrentProcess@0
 *fill*         0x004fb9e8        0x8 00
 .text          0x004fb9f0        0x8 c:/mingw/bin/../lib/gcc/mingw32/3.4.2/../../../libkernel32.a(dqifs00716.o)
                0x004fb9f0                SetPriorityClass@8
 *fill*         0x004fb9f8        0x8 00
 .text          0x004fba00        0x8 c:/mingw/bin/../lib/gcc/mingw32/3.4.2/../../../libkernel32.a(dqifs00323.o)
                0x004fba00                GetLastError@0
 *fill*         0x004fba08        0x8 00
 .text          0x004fba10        0x8 c:/mingw/bin/../lib/gcc/mingw32/3.4.2/../../../libkernel32.a(dqifs00208.o)
                0x004fba10                FormatMessageA@28
 *fill*         0x004fba18        0x8 00
 .text          0x004fba20        0x8 c:/mingw/bin/../lib/gcc/mingw32/3.4.2/../../../libkernel32.a(dqifs00596.o)
                0x004fba20                QueryPerformanceFrequency@4
 *fill*         0x004fba28        0x8 00
 .text          0x004fba30        0x8 c:/mingw/bin/../lib/gcc/mingw32/3.4.2/../../../libkernel32.a(dqifs00431.o)
                0x004fba30                GetVersionExA@4
 *fill*         0x004fba38        0x8 00
 .text          0x004fba40        0x8 c:/mingw/bin/../lib/gcc/mingw32/3.4.2/../../../libkernel32.a(dqifs00236.o)
                0x004fba40                GetCommandLineA@0
 *fill*         0x004fba48        0x8 00
 .text          0x004fba50        0x8 c:/mingw/bin/../lib/gcc/mingw32/3.4.2/../../../libkernel32.a(dqifs00087.o)
                0x004fba50                CreateSemaphoreA@16
 *fill*         0x004fba58        0x8 00
 .text          0x004fba60        0x8 c:/mingw/bin/../lib/gcc/mingw32/3.4.2/../../../libkernel32.a(dqifs00421.o)
                0x004fba60                GetTickCount@0
 *fill*         0x004fba68        0x8 00
 .text          0x004fba70        0x8 c:/mingw/bin/../lib/gcc/mingw32/3.4.2/../../../libkernel32.a(dqifs00329.o)
                0x004fba70                GetLogicalDrives@0
 *fill*         0x004fba78        0x8 00
 .text          0x004fba80        0x8 c:/mingw/bin/../lib/gcc/mingw32/3.4.2/../../../libkernel32.a(dqifs00458.o)
                0x004fba80                GlobalMemoryStatus@4
 *fill*         0x004fba88        0x8 00
 .text          0x004fba90        0x8 c:/mingw/bin/../lib/gcc/mingw32/3.4.2/../../../libkernel32.a(dqifs00177.o)
                0x004fba90                FindClose@4
 *fill*         0x004fba98        0x8 00
 .text          0x004fbaa0        0x8 c:/mingw/bin/../lib/gcc/mingw32/3.4.2/../../../libkernel32.a(dqifs00190.o)
                0x004fbaa0                FindNextFileA@8
 *fill*         0x004fbaa8        0x8 00
 .text          0x004fbab0        0x8 c:/mingw/bin/../lib/gcc/mingw32/3.4.2/../../../libkernel32.a(dqifs00181.o)
                0x004fbab0                FindFirstFileA@8
 *fill*         0x004fbab8        0x8 00
 .text          0x004fbac0        0x8 c:/mingw/bin/../lib/gcc/mingw32/3.4.2/../../../libkernel32.a(dqifs00306.o)
                0x004fbac0                GetFileAttributesA@4
 *fill*         0x004fbac8        0x8 00
 .text          0x004fbad0        0x8 c:/mingw/bin/../lib/gcc/mingw32/3.4.2/../../../libkernel32.a(dqifs00384.o)
                0x004fbad0                GetStartupInfoA@4
 *fill*         0x004fbad8        0x8 00
 .text          0x004fbae0        0x8 c:/mingw/bin/../lib/gcc/mingw32/3.4.2/../../../libkernel32.a(dqifs00335.o)
                0x004fbae0                GetModuleHandleA@4
 *fill*         0x004fbae8        0x8 00
 .text          0x004fbaf0        0x8 c:/mingw/bin/../lib/gcc/mingw32/3.4.2/../../../libkernel32.a(dqifs00220.o)
                0x004fbaf0                GetAtomNameA@12
 *fill*         0x004fbaf8        0x8 00
 .text          0x004fbb00        0x8 c:/mingw/bin/../lib/gcc/mingw32/3.4.2/../../../libkernel32.a(dqifs00175.o)
                0x004fbb00                FindAtomA@4
 *fill*         0x004fbb08        0x8 00
 .text          0x004fbb10        0x8 c:/mingw/bin/../lib/gcc/mingw32/3.4.2/../../../libkernel32.a(dqifs00001.o)
                0x004fbb10                AddAtomA@4
 *fill*         0x004fbb18        0x8 00
 .text          0x004fbb20        0x8 c:/mingw/bin/../lib/gcc/mingw32/3.4.2/../../../libshell32.a(dsjes00104.o)
                0x004fbb20                SHGetSpecialFolderPathA@16
 *fill*         0x004fbb28        0x8 00
 .text          0x004fbb30       0x10 c:/mingw/bin/../lib/gcc/mingw32/3.4.2/crtend.o
 *(SORT(.text$*))
 *(.glue_7t)
 *(.glue_7)
                0x004fbb40                ___CTOR_LIST__ = .
                0x004fbb40                __CTOR_LIST__ = .
                0x004fbb40        0x4 LONG 0xffffffff
 *(EXCLUDE_FILE(*crtend.o) .ctors)
 *(.ctor)
 *(SORT(.ctors.*))
 *crtend.o(.ctors)
 .ctors         0x004fbb44        0x4 c:/mingw/bin/../lib/gcc/mingw32/3.4.2/crtend.o
                0x004fbb48        0x4 LONG 0x0
                0x004fbb4c                ___DTOR_LIST__ = .
                0x004fbb4c                __DTOR_LIST__ = .
                0x004fbb4c        0x4 LONG 0xffffffff
 *(EXCLUDE_FILE(*crtend.o) .dtors)
 *(.dtor)
 *(SORT(.dtors.*))
 *crtend.o(.dtors)
                0x004fbb50        0x4 LONG 0x0
 *(.fini)
 *(.gcc_exc)
                0x004fbb54                PROVIDE (etext, .)
 *(.gcc_except_table)

.data           0x004fc000     0xa000
                0x004fc000                __data_start__ = .
 *(.data)
 .data          0x004fc000      0x3a0 obj/game.o
                0x004fc108                sendmessagecommand
                0x004fc000                confilename
                0x004fc37c                startwin_labeltext
                0x004fc380                which_demo
                0x004fc160                cheatquotes
                0x004fc104                display_bonus_screen
 .data          0x004fc3a0      0x6a0 obj/config.o
                0x004fc90c                ScreenBPP
                0x004fc3a0                gamefunctions
                0x004fc904                ScreenWidth
                0x004fc900                ScreenMode
                0x004fc908                ScreenHeight
                0x004fca20                scripthandle
 .data          0x004fca40     0x1be0 obj/gamedef.o
                0x004fcbe0                keyw
                0x004fcbb0                g_iAimAngleVarID
                0x004fd080                sectorlabels
                0x004fd200                walllabels
                0x004fcba0                g_iWeaponVarID
                0x004fd320                actorlabels
                0x004fcbb8                g_iHiTagID
                0x004fcba8                g_iZRangeVarID
                0x004fe5a0                inputlabels
                0x004fcbbc                g_iTextureID
                0x004fcbac                g_iAngRangeVarID
                0x004fcbc0                g_iThisActorID
                0x004fdf00                projectilelabels
                0x004fe610                defaultcons
                0x004fcba4                g_iWorksLikeVarID
                0x004fd620                playerlabels
                0x004fcb9c                g_iReturnVarID
                0x004fe0e0                userdefslabels
                0x004fca40                conversion
                0x004fcb98                current_event
                0x004fcbb4                g_iLoTagID
 .data          0x004fe620      0x6c0 obj/global.o
                0x004fe800                gametype_names
                0x004fecdc                cheatkey
                0x004fe640                volume_names
                0x004fec20                gametype_flags
                0x004feccc                dukefriction
                0x004fecd4                numfreezebounces
                0x004feca0                num_gametypes
                0x004feca1                num_volumes
                0x004fecd0                networkmode
                0x004fe624                spriteqamount
                0x004fe740                skill_names
                0x004fecac                weaponsandammosprites
                0x004fecd1                movesperpacket
                0x004feca8                respawnitemtime
                0x004fe620                gc
                0x004fecd8                bufferjitter
                0x004feca4                respawnactortime
                0x004feca2                timer
 .data          0x004fece0      0x1c0 obj/menus.o
                0x004fed58                lastsavedpos
                0x004fece0                globalskillsound
 .data          0x004feea0      0x5d0 obj/namesdyn.o
                0x004ff1fa                PIGCOP
                0x004ff046                WALLLIGHTBUST2
                0x004ff3c4                XXXSTACY
                0x004ff2a8                NUKEWARNINGICON
                0x004ff02e                CAMERALIGHT
                0x004ff15c                TRANSPORTERBEAM
                0x004ff358                SCREENBREAK19
                0x004ff04e                STATUE
                0x004ff208                LIZMANSPITTING
                0x004ff0f4                OOZFILTER
                0x004ff3e6                FOODOBJECT4
                0x004ff04a                WAITTOBESEATED
                0x004ff35a                SCREENBREAK16
                0x004ff45e                RESERVEDSLOT11
                0x004fef9c                W_HITTECHWALL4
                0x004ff10c                ALIENSWITCH
                0x004fef4a                DOORSHOCK
                0x004ff1c6                FORCERIPPLE
                0x004ff3d2                PIRATE2A
                0x004fef2a                LIGHTSWITCH
                0x004ff00e                BRICK
                0x004ff1c8                LIZTROOP
                0x004ff1b4                LOOGIE
                0x004ff39a                PUKE
                0x004ff2a4                LOGO
                0x004ff33a                VIEWBORDER
                0x004feeac                CYCLER
                0x004feefc                CLOUDYOCEAN
                0x004ff146                CANWITHSOMETHING
                0x004ff22c                JIBS6
                0x004ff178                FEM4
                0x004feeb6                ARROW
                0x004ff324                BIGCOLIN
                0x004ff388                DUCK
                0x004ff0ce                NEON4
                0x004fef06                MOONSKY4
                0x004ff032                IVUNIT
                0x004ff01c                WATERBUBBLEMAKER
                0x004fef72                SCREENBREAK9
                0x004fef56                REFLECTWATERTILE
                0x004ff1b8                FREEZEBLAST
                0x004fef0a                BIGORBIT2
                0x004ff0a0                BOTTLE4
                0x004ff308                BOSSTOP
                0x004ff240                WALLBLOOD4
                0x004ff422                DOLPHIN2
                0x004ff2e8                HANDHOLDINGACCESS
                0x004ff29e                DUKECAR
                0x004ff154                SEENINEDEAD
                0x004ff098                BULLETHOLE
                0x004ff416                SHOPPINGCART
                0x004ff0ea                MASKWALL6
                0x004ff318                BIGALPHANUM
                0x004ff194                WATERSPLASH2
                0x004ff3bc                GUMBALLMACHINEBROKE
                0x004ff158                CEILINGSTEAM
                0x004ff364                W_TECHWALL13
                0x004ff39c                DOORTILE23
                0x004ff36e                W_TECHWALL8
                0x004ff35c                SCREENBREAK17
                0x004ff2d6                CHAINGUN
                0x004fef14                REDSKY1
                0x004fef36                DOORTILE5
                0x004feec4                TRIPBOMBSPRITE
                0x004feeea                FIRSTAID
                0x004ff058                SUSHIPLATE3
                0x004feed4                AMMO
                0x004ff3ae                HOTMEAT
                0x004ff1aa                SHARK
                0x004ff13c                BARBROKE
                0x004ff28c                BOTTOMSTATUSBAR
                0x004ff1b0                TRANSPORTERSTAR
                0x004ff0c2                PIPE6
                0x004ff190                LUKE
                0x004ff0c0                PIPE5
                0x004ff088                FIREEXT
                0x004ff340                TEXTSTORY
                0x004ff3d4                PIRATE5A
                0x004ff202                PIGTOP
                0x004fef30                FRANKENSTINESWITCH
                0x004ff2da                RPGMUZZLEFLASH
                0x004ff3fe                FOODOBJECT16
                0x004fefda                CHAIR1
                0x004ff106                PULLSWITCH
                0x004ff1e2                CANNONBALL
                0x004ff286                KILLSICON
                0x004ff394                GAVALS2
                0x004ff196                FIREVASE
                0x004ff2c4                KNEE
                0x004ff22a                FIRE
                0x004ff030                MOVIECAMERA
                0x004ff1ac                BLOOD
                0x004feee0                HBOMBAMMO
                0x004ff352                PANNEL3
                0x004ff002                TOILETBROKE
                0x004ff0f6                FLOORPLASMA
                0x004feedc                GROWAMMO
                0x004ff402                FOODOBJECT18
                0x004ff332                RESPAWNMARKERRED
                0x004ff0dc                MASKWALL15
                0x004ff180                HELECOPT
                0x004fef68                SCREENBREAK4
                0x004ff262                SCRAP3
                0x004feecc                AMMOBOX
                0x004ff24c                FIRE2
                0x004ff3f6                FOODOBJECT12
                0x004ff294                AIRTANK_ICON
                0x004ff186                SPACEMARINE
                0x004ff2ac                SLIDEBAR
                0x004fefb8                VIEWSCREEN2
                0x004fefa6                DOORTILE22
                0x004ff0a6                FEMPIC7
                0x004ff41a                CANWITHSOMETHING3
                0x004ff226                JIBS5
                0x004ff330                GLASS3
                0x004fef8a                W_TECHWALL16
                0x004ff426                NEWBEASTSTAYPUT
                0x004ff234                BLOODSPLAT4
                0x004fefbe                GLASS
                0x004feeda                RPGAMMO
                0x004fef76                SCREENBREAK11
                0x004ff260                SCRAP2
                0x004ff44a                RESERVEDSLOT1
                0x004fefa0                W_HITTECHWALL1
                0x004ff112                BOTTLE10
                0x004ff3c0                MACE
                0x004ff42c                NEWBEASTHANGDEAD
                0x004fefd2                CRACK4
                0x004ff16a                FEMPIC3
                0x004ff372                BPANNEL3
                0x004ff1be                TONGUE
                0x004ff43a                WOMAN
                0x004ff26e                PLAYERWASHERE
                0x004ff420                DOLPHIN1
                0x004feede                CRYSTALAMMO
                0x004ff210                FECES
                0x004ff342                LOADSCREEN
                0x004ff2f6                FORCESPHERE
                0x004ff092                BOUNCEMINE
                0x004ff32a                BLANK
                0x004feeee                STEROIDS
                0x004fef1c                TECHLIGHTBUST2
                0x004ff3f0                FOODOBJECT9
                0x004ff21a                USERWEAPON
                0x004fefec                STALLBROKE
                0x004ff280                GETICON
                0x004ff17e                FEM8
                0x004ff170                FEM2
                0x004ff0da                HANGOOZ
                0x004ff08a                TOILETWATER
                0x004fef46                DOORTILE9
                0x004ff0b0                OCEANSPRITE4
                0x004ff074                STRIPEBALL
                0x004fefc2                STAINGLASS1
                0x004fef7e                W_TECHWALL1
                0x004fef86                W_TECHWALL4
                0x004ff0aa                OCEANSPRITE1
                0x004ff304                BOSS1SHOOT
                0x004ff3aa                MAIL
                0x004ff448                JURYGUY
                0x004ff1ec                INNERJAW
                0x004ff440                WEATHERWARN
                0x004ff34c                FRAMEEFFECT1_13
                0x004ff3a4                ROBOTDOG
                0x004ff188                INDY
                0x004fef08                BIGORBIT1
                0x004ff3a8                ROBOTMOUSE
                0x004fef26                ACCESSSWITCH
                0x004ff26c                PLAYERISHERE
                0x004fef8c                WATERTILE2
                0x004feee4                SHOTGUNAMMO
                0x004ff3ce                PIRATE1A
                0x004ff034                POT1
                0x004feff4                REACTOR2SPARK
                0x004ff452                RESERVEDSLOT5
                0x004ff362                W_TECHWALL12
                0x004ff09c                BOTTLE2
                0x004ff080                CACTUS
                0x004ff1e8                OCTATOP
                0x004fef32                NUKEBUTTON
                0x004fef0e                BIGORBIT4
                0x004ff1e6                OCTABRAINSTAYPUT
                0x004ff244                WALLBLOOD6
                0x004ff1dc                HEADJIB1
                0x004ff17c                FEM6PAD
                0x004fef4c                DIPSWITCH
                0x004ff100                HANDSWITCH
                0x004ff1a8                DUKELEG
                0x004feea4                TOUCHPLATE
                0x004ff184                HOLODUKE
                0x004ff1bc                SHRINKSPARK
                0x004ff2dc                FREEZE
                0x004fefca                SLIMEPIPE
                0x004fefd0                CRACK3
                0x004ff27a                DUKEICON
                0x004ff428                NEWBEASTJUMP
                0x004ff2b0                BETASCREEN
                0x004ff0ae                OCEANSPRITE3
                0x004ff3ca                MOP
                0x004ff354                SCREENBREAK14
                0x004ff360                W_TECHWALL11
                0x004feea2                ACTIVATOR
                0x004feea6                ACTIVATORLOCKED
                0x004feef4                HEATSENSOR
                0x004ff12e                DOORTILE12
                0x004fef22                WALLLIGHT4
                0x004ff444                SIGN1
                0x004ff316                ENDALPHANUM
                0x004ff086                MASKWALL4
                0x004ff270                SELECTDIR
                0x004ff418                CANWITHSOMETHING2
                0x004ff174                FEM5
                0x004ff23c                WALLBLOOD2
                0x004ff32e                BUTTON1
                0x004fef2e                SPACELIGHTSWITCH
                0x004ff13e                BLOODPOOL
                0x004ff246                WALLBLOOD7
                0x004ff05a                SUSHIPLATE4
                0x004ff064                HURTRAIL
                0x004ff11c                BOTTLE15
                0x004ff290                FRAGBAR
                0x004feeb2                GPSPEED
                0x004fefc0                GLASS2
                0x004feef2                JETPACK
                0x004fef38                DOORTILE6
                0x004ff2ae                DREALMS
                0x004fef74                SCREENBREAK10
                0x004fef3e                DOORTILE3
                0x004ff042                WALLLIGHTBUST1
                0x004ff1e4                OCTABRAIN
                0x004ff142                NUKEBARRELDENTED
                0x004ff39e                TOPSECRET
                0x004ff384                TARGET
                0x004ff24e                CRACKKNUCKLES
                0x004ff2ba                THREEDEE
                0x004ff2fa                RPG
                0x004ff36a                W_TECHWALL6
                0x004ff338                BONUSSCREEN
                0x004ff45c                RESERVEDSLOT10
                0x004ff104                CIRCLEPANNELBROKE
                0x004ff2e2                HANDHOLDINGLASER
                0x004fefaa                FANSPRITEBROKE
                0x004ff06e                STATUEFLASH
                0x004ff38e                COFFEEMACHINE
                0x004ff296                STEROIDS_ICON
                0x004ff216                LIZMANLEG1
                0x004ff068                LOCKSWITCH1
                0x004ff42a                NEWBEASTHANG
                0x004feec8                DEVISTATORSPRITE
                0x004ff134                COLAMACHINE
                0x004fef92                PANNEL2
                0x004ff144                NUKEBARRELLEAKED
                0x004ff2b2                WINDOWBORDER1
                0x004ff114                BOTTLE11
                0x004ff346                BLIMP
                0x004ff0d2                BOTTLE5
                0x004ff0de                BOTTLE7
                0x004fef66                SCREENBREAK3
                0x004ff412                JOLLYMEAL
                0x004ff072                BIGHOLE2
                0x004feea8                MUSICANDSFX
                0x004ff1d2                LIZTROOPJETPACK
                0x004ff2f0                GLAIR
                0x004ff42e                BOSS4
                0x004fef98                W_SCREENBREAK
                0x004ff43c                PLEASEWAIT
                0x004ff2ce                CLIPINHAND
                0x004ff156                STEAM
                0x004ff19e                APLAYER
                0x004ff0be                TIRE
                0x004ff1a2                DUKELYINGDEAD
                0x004feeec                SHIELD
                0x004feee6                COLA
                0x004fef34                MULTISWITCH
                0x004fef82                W_TECHWALL15
                0x004ff1b6                FIST
                0x004ff2d4                SHOTGUNSHELL
                0x004feef0                AIRTANK
                0x004ff3b4                TRIPODCAMERA
                0x004ff24a                BURNING2
                0x004ff3d0                PIRATE4A
                0x004ff168                PODFEM1
                0x004fefdc                CHAIR2
                0x004fef62                SCREENBREAK1
                0x004fef1a                TECHLIGHT2
                0x004ff2f2                SCUBAMASK
                0x004ff160                TRASH
                0x004fef88                W_TECHWALL10
                0x004ff1ee                DRONE
                0x004ff25e                SCRAP1
                0x004feff0                REACTOR2
                0x004fef12                LA
                0x004ff276                NOTCHOFF
                0x004ff28e                BOOT_ICON
                0x004ff3de                SIDEBOLT1
                0x004ff2c8                FIRSTGUN
                0x004ff310                BIGFNTCURSOR
                0x004ff1a0                PLAYERONWATER
                0x004ff336                RESPAWNMARKERGREEN
                0x004ff16e                FEM1
                0x004ff3be                PAPER
                0x004ff2a2                CAMLIGHT
                0x004fefe0                MIRROR
                0x004ff1d6                LIZTROOPONTOILET
                0x004ff274                NOTCHON
                0x004ff08e                NEON2
                0x004ff1f8                TANK
                0x004ff386                GUNPOWDERBARREL
                0x004ff1fc                PIGCOPSTAYPUT
                0x004ff1f0                EXPLOSION2
                0x004ff0e4                HORSELITE
                0x004feed6                BATTERYAMMO
                0x004ff1da                LIZTROOPDUCKING
                0x004feec2                HEAVYHBOMB
                0x004ff43e                NATURALLIGHTNING
                0x004ff25c                SCRAP6
                0x004fef24                WALLLIGHTBUST4
                0x004ff044                WALLLIGHT2
                0x004ff004                PIPE2
                0x004ff1c2                SHRINKEREXPLOSION
                0x004ff2ec                HANDTHROW
                0x004ff204                LIZMAN
                0x004ff268                ORGANTIC
                0x004ff3ba                GUMBALLMACHINE
                0x004ff3c6                WETFLOOR
                0x004ff254                FLOORFLAME
                0x004ff37c                W_MILKSHELFBROKE
                0x004ff3e4                FOODOBJECT3
                0x004feff8                BGRATE1
                0x004fef0c                BIGORBIT3
                0x004ff3cc                LETTER
                0x004fef5e                MASKWALL9
                0x004feef8                BOOTS
                0x004ff06a                POWERSWITCH2
                0x004ff19c                APLAYERTOP
                0x004feed0                INVENTORYBOX
                0x004fef3a                DOORTILE1
                0x004fefba                VIEWSCREENBROKE
                0x004ff07e                TREE2
                0x004ff242                WALLBLOOD5
                0x004ff1d8                LIZTROOPJUSTSIT
                0x004ff02a                SCALE
                0x004ff3b6                METER
                0x004ff252                SMALLSMOKEMAKER
                0x004ff128                MASKWALL7
                0x004ff19a                FEM7
                0x004ff024                FOOTPRINTS3
                0x004ff18e                MONK
                0x004ff3da                PIRATEHALF
                0x004ff056                SUSHIPLATE2
                0x004fef28                SLOTDOOR
                0x004ff2c6                CROSSHAIR
                0x004ff28a                HEAT_ICON
                0x004ff3a6                ROBOTPIRATE
                0x004ff0c4                PIPE4
                0x004fefb2                DOORTILE19
                0x004ff182                FETUSJIB
                0x004ff116                BOTTLE12
                0x004feef6                ACCESSCARD
                0x004ff150                FIREBARREL
                0x004fefe8                TOILET
                0x004ff250                SMALLSMOKE
                0x004fefb4                DOORTILE20
                0x004ff29a                ACCESS_ICON
                0x004ff0a4                FEMPIC6
                0x004ff0a2                FEMPIC5
                0x004ff102                CIRCLEPANNEL
                0x004ff224                JIBS4
                0x004ff06c                ATM
                0x004ff2b4                TEXTBOX
                0x004feed8                DEVISTATORAMMO
                0x004ff232                BLOODSPLAT2
                0x004ff118                BOTTLE13
                0x004fef84                W_TECHWALL3
                0x004ff060                OJ
                0x004ff2d2                SHELL
                0x004ff0fc                REACTORBURNT
                0x004fef48                DOORTILE10
                0x004ff11e                BOTTLE16
                0x004fefce                CRACK2
                0x004ff162                FEMPIC1
                0x004ff1f4                COMMANDERSTAYPUT
                0x004fef58                FLOORSLIME
                0x004ff29c                DIGITALNUM
                0x004ff300                BOSS1
                0x004ff1ba                DEVISTATORBLAST
                0x004ff248                WALLBLOOD8
                0x004ff130                VENDMACHINE
                0x004ff30c                BOSS3
                0x004ff2e4                TRIPBOMB
                0x004ff0e8                NEON6
                0x004ff18c                FETUSBROKE
                0x004fefd8                CAMERAPOLE
                0x004fef94                WATERTILE
                0x004ff458                RESERVEDSLOT8
                0x004ff37a                W_MILKSHELF
                0x004ff1fe                PIGCOPDIVE
                0x004ff438                MAN2
                0x004fefb0                DOORTILE18
                0x004fef20                TECHLIGHTBUST4
                0x004ff40a                TAMPON
                0x004ff3ee                FOODOBJECT8
                0x004ff1ca                LIZTROOPRUNNING
                0x004ff3ec                FOODOBJECT7
                0x004feec0                SHRINKERSPRITE
                0x004ff41c                CANWITHSOMETHING4
                0x004ff230                BLOODSPLAT3
                0x004ff0ee                RUBBERCAN
                0x004ff374                W_HITTECHWALL16
                0x004ff010                SPLINTERWOOD
                0x004fef78                SCREENBREAK12
                0x004fef6e                SCREENBREAK7
                0x004fefe2                WATERFOUNTAIN
                0x004feee8                SIXPAK
                0x004ff218                EXPLOSION2BOT
                0x004ff040                WALLLIGHT1
                0x004fefa4                MASKWALL11
                0x004ff432                FEM10
                0x004ff220                JIBS2
                0x004ff2d8                RPGGUN
                0x004ff3a2                TEDDYBEAR
                0x004ff2ca                FIRSTGUNRELOAD
                0x004ff1d0                LIZTROOPSHOOT
                0x004ff40e                FEATHEREDCHICKEN
                0x004ff10a                BIGHOLE
                0x004ff1ae                FIRELASER
                0x004fef50                TECHSWITCH
                0x004fefe6                FEMMAG1
                0x004ff2c2                DEVISTATOR
                0x004ff206                LIZMANSTAYPUT
                0x004ff03e                WALLLIGHTBUST3
                0x004ff20e                LIZMANDEADSPRITE
                0x004ff45a                RESERVEDSLOT9
                0x004ff44e                RESERVEDSLOT3
                0x004ff0d8                SPOTLITE
                0x004ff166                BLANKSCREEN
                0x004ff366                W_TECHWALL14
                0x004feeca                HEALTHBOX
                0x004ff09a                BOTTLE1
                0x004ff454                RESERVEDSLOT6
                0x004ff1c4                RADIUSEXPLOSION
                0x004ff436                MAN
                0x004ff414                DUKEBURGER
                0x004ff1d4                LIZTROOPDSPRITE
                0x004fefb6                SATELLITE
                0x004feff2                REACTOR2BURNT
                0x004fef9a                W_HITTECHWALL3
                0x004feeba                CHAINGUNSPRITE
                0x004ff2c0                PLUTOPAKSPRITE
                0x004fef52                DIPSWITCH3
                0x004ff0ca                PIPE5B
                0x004ff124                BOTTLE19
                0x004feece                GROWSPRITEICON
                0x004ff048                LIGHTSWITCH2
                0x004feeb4                FOF
                0x004ff282                MENUSCREEN
                0x004fefea                STALL
                0x004ff3b0                COFFEEMUG
                0x004fef7a                SCREENBREAK13
                0x004ff334                RESPAWNMARKERYELLOW
                0x004ff082                MASKWALL2
                0x004fefc6                SATELITE
                0x004ff15e                RAT
                0x004ff390                CUPS
                0x004ff006                PIPE1B
                0x004ff200                PIGCOPDEADSPRITE
                0x004ff446                SIGN2
                0x004ff392                GAVALS
                0x004ff41e                SNAKEP
                0x004fef8e                BPANNEL1
                0x004ff0e0                HORSEONSIDE
                0x004ff322                BIGSEMI
                0x004ff400                FOODOBJECT17
                0x004ff0f8                REACTOR
                0x004ff15a                PIPE6B
                0x004ff132                VENDMACHINEBROKE
                0x004ff34e                POOP
                0x004ff13a                CRANE
                0x004ff198                SCRATCH
                0x004ff398                FLOORBASKET
                0x004ff40c                SKINNEDCHICKEN
                0x004ff2a0                CAMCORNER
                0x004ff424                NEWBEAST
                0x004ff028                EGG
                0x004ff05e                SUSHIPLATE5
                0x004ff3f4                FOODOBJECT11
                0x004ff05c                DOORTILE16
                0x004ff302                BOSS1STAYPUT
                0x004fef18                ATOMICHEALTH
                0x004ff292                JETPACK_ICON
                0x004ff25a                WATERDRIPSPLASH
                0x004ff320                BIGQ
                0x004ff356                SCREENBREAK15
                0x004feea0                SECTOREFFECTOR
                0x004fefde                BROKENCHAIR
                0x004fef3c                DOORTILE2
                0x004fef7c                MASKWALL1
                0x004fef70                SCREENBREAK8
                0x004ff0a8                HYDROPLANT
                0x004ff038                POT3
                0x004feed2                FREEZEAMMO
                0x004ff2fc                LASERSITE
                0x004ff2b8                DUKENUKEM
                0x004ff066                POWERSWITCH1
                0x004ff1cc                LIZTROOPSTAYPUT
                0x004feffe                ANTENNA
                0x004ff38a                HATRACK
                0x004ff264                SCRAP4
                0x004ff2de                CATLITE
                0x004feebc                RPGSPRITE
                0x004ff37e                PURPLELAVA
                0x004ff014                BOLT1
                0x004fef4e                DIPSWITCH2
                0x004ff370                W_TECHWALL9
                0x004ff1f2                COMMANDER
                0x004ff3e8                FOODOBJECT5
                0x004ff09e                BOTTLE3
                0x004ff0bc                MASKWALL14
                0x004ff306                BOSS1LOB
                0x004ff396                POLICELIGHTPOLE
                0x004feeb0                RESPAWN
                0x004fef6c                SCREENBREAK6
                0x004fef1e                TECHLIGHT4
                0x004ff31c                BIGCOMMA
                0x004ff0c8                BROKEHYDROPLANT
                0x004fef9e                W_HITTECHWALL2
                0x004ff022                FOOTPRINTS2
                0x004fefbc                VIEWSCREEN
                0x004fefd6                DOMELITE
                0x004ff18a                FETUS
                0x004ff30e                SPINNINGNUKEICON
                0x004ff272                F1HELP
                0x004ff3d6                PIRATE3A
                0x004fef40                DOORTILE4
                0x004ff278                GROWSPARK
                0x004fef60                W_LIGHT
                0x004feffa                SOLARPANNEL
                0x004ff14e                EXPLODINGBARREL2
                0x004ff0f0                BROKENCLOCK
                0x004fef02                MOONSKY2
                0x004ff0cc                NEON3
                0x004ff0fe                DOORTILE15
                0x004ff38c                DESKLAMP
                0x004ff434                TOUGHGAL
                0x004ff228                BURNING
                0x004ff0c6                PIPE4B
                0x004ff17a                FEM6
                0x004ff348                FEM9
                0x004ff0d4                BOTTLE6
                0x004ff0d6                BOTTLE8
                0x004ff2b6                WINDOWBORDER2
                0x004ff34a                FOOTPRINT
                0x004ff1f6                RECON
                0x004feefa                MIRRORBROKE
                0x004ff12c                DOORTILE11
                0x004ff3dc                CHESTOFGOLD
                0x004fef04                MOONSKY3
                0x004ff35e                SCREENBREAK18
                0x004ff32c                MINIFONT
                0x004ff408                HEADLAMP
                0x004ff1de                ARMJIB1
                0x004ff10e                DOORTILE21
                0x004ff404                FOODOBJECT19
                0x004ff110                HANDPRINTSWITCH
                0x004ff2a6                TITLE
                0x004ff2d0                HAND
                0x004ff3e0                FOODOBJECT1
                0x004ff192                COOLEXPLOSION1
                0x004fefd4                FOOTPRINTS
                0x004fefa2                MASKWALL10
                0x004fef96                STATIC
                0x004ff3a0                SPEAKER
                0x004fefee                FEMMAG2
                0x004ff138                CRANEPOLE
                0x004ff03c                WALLLIGHT3
                0x004ff008                PIPE3
                0x004ff07a                WOODENHORSE
                0x004fef5a                BIGFORCE
                0x004ff236                OOZ
                0x004ff3e2                FOODOBJECT2
                0x004ff020                VACUUM
                0x004ff018                WATERDRIP
                0x004ff108                MASKWALL8
                0x004fef2c                SPACEDOORSWITCH
                0x004feffc                NAKED1
                0x004ff258                GREENSLIME
                0x004ff0e2                GLASSPIECES
                0x004ff08c                NEON1
                0x004fef00                MOONSKY1
                0x004fef6a                SCREENBREAK5
                0x004ff07c                TREE1
                0x004ff23e                WALLBLOOD3
                0x004ff44c                RESERVEDSLOT2
                0x004ff382                DUKECUTOUT
                0x004ff2f4                SPACEMASK
                0x004feff6                GRATE1
                0x004fefcc                CRACK1
                0x004ff350                FRAMEEFFECT1
                0x004ff26a                BETAVERSION
                0x004ff164                FEMPIC2
                0x004fef5c                EPISODE
                0x004ff460                RESERVEDSLOT12
                0x004fef64                SCREENBREAK2
                0x004ff0f2                PLUG
                0x004ff0ec                CLOCK
                0x004ff2ea                HANDREMOTE
                0x004fefac                FANSHADOW
                0x004ff314                STARTALPHANUM
                0x004ff090                CACTUSBROKE
                0x004ff1ea                OCTADEADSPRITE
                0x004ff3fa                FOODOBJECT14
                0x004feee2                AMMOLOTS
                0x004ff284                MENUBAR
                0x004ff2fe                SHOTGUN
                0x004ff16c                FEMPIC4
                0x004ff430                BOSS4STAYPUT
                0x004ff03a                PIPE3B
                0x004fef44                DOORTILE8
                0x004ff01e                W_FORCEFIELD
                0x004ff33c                VICTORY1
                0x004fef54                ACCESSSWITCH2
                0x004ff410                ROBOTDOG2
                0x004ff368                W_TECHWALL5
                0x004ff378                W_HITTECHWALL15
                0x004ff1a4                DUKETORSO
                0x004ff096                BOX
                0x004ff078                POCKET
                0x004ff288                FIRSTAID_ICON
                0x004fefae                FANSHADOWBROKE
                0x004ff122                BOTTLE18
                0x004ff11a                BOTTLE14
                0x004ff094                BROKEFIREHYDRENT
                0x004ff3f2                FOODOBJECT10
                0x004ff148                MONEY
                0x004ff3b2                DONUTS2
                0x004ff026                FOOTPRINTS4
                0x004ff27c                BADGUYICON
                0x004ff054                SUSHIPLATE1
                0x004fefe4                WATERFOUNTAINBROKE
                0x004ff14c                EXPLODINGBARREL
                0x004fefa8                FANSPRITE
                0x004feefe                CLOUDYSKIES
                0x004ff23a                WALLBLOOD1
                0x004ff22e                BLOODSPLAT1
                0x004ff2e6                LASERLINE
                0x004ff152                SEENINE
                0x004ff2aa                MOUSECURSOR
                0x004ff1e0                LEGJIB1
                0x004ff1b2                SPIT
                0x004ff3ea                FOODOBJECT6
                0x004ff00c                CAMERA1
                0x004ff27e                FOODICON
                0x004ff376                W_HITTECHWALL10
                0x004fef80                W_TECHWALL2
                0x004ff12a                JAILBARBREAK
                0x004ff2bc                INGAMEDUKETHREEDEE
                0x004ff31a                BIGPERIOD
                0x004ff070                ATMBROKE
                0x004ff036                POT2
                0x004ff2be                TENSCREEN
                0x004ff062                MASKWALL13
                0x004ff136                COLAMACHINEBROKE
                0x004ff0e6                DONUTS
                0x004ff050                MIKE
                0x004ff21c                HEADERBAR
                0x004ff0fa                REACTORSPARK
                0x004ff30a                BOSS2
                0x004ff380                LAVABUBBLE
                0x004ff0d0                NEON5
                0x004ff0ba                HYDRENT
                0x004ff450                RESERVEDSLOT4
                0x004fef10                BIGORBIT5
                0x004ff238                OOZ2
                0x004ff20a                LIZMANFEEDING
                0x004ff456                RESERVEDSLOT7
                0x004ff2ee                TIP
                0x004ff3ac                MAILBAG
                0x004ff0b4                GENERICPOLE
                0x004ff406                FOODOBJECT20
                0x004ff01a                WATERBUBBLE
                0x004ff3b8                DESKPHONE
                0x004ff2f8                SHOTSPARK1
                0x004ff120                BOTTLE17
                0x004ff0b8                HANGLIGHT
                0x004ff140                NUKEBARREL
                0x004ff000                MASKWALL12
                0x004ff3c8                BROOM
                0x004ff3d8                PIRATE6A
                0x004ff222                JIBS3
                0x004ff214                LIZMANARM1
                0x004ff312                SMALLFNTCURSOR
                0x004ff326                THREEBYFIVE
                0x004ff02c                CHAIR3
                0x004ff00a                PIPE1
                0x004ff2e0                SHRINKER
                0x004feeaa                LOCATORS
                0x004ff14a                BANNER
                0x004ff266                SCRAP5
                0x004ff20c                LIZMANJUMP
                0x004fefc4                MASKWALL5
                0x004ff04c                DOORTILE14
                0x004ff3f8                FOODOBJECT13
                0x004ff442                DUKETAG
                0x004ff344                BORNTOBEWILDSCREEN
                0x004ff3c2                GENERICPOLE2
                0x004ff256                ROTATEGUN
                0x004ff36c                W_TECHWALL7
                0x004ff1a6                DUKEGUN
                0x004ff016                W_NUMBERS
                0x004ff172                FEM3
                0x004ff076                QUEBALL
                0x004ff328                BIGAPPOS
                0x004ff052                VASE
                0x004ff1ce                LIZTOP
                0x004ff3fc                FOODOBJECT15
                0x004ff0b6                CONE
                0x004ff126                DOORTILE17
                0x004fef90                PANNEL1
                0x004feec6                SHOTGUNSPRITE
                0x004ff2cc                FALLINGCLIP
                0x004fef16                REDSKY2
                0x004fef42                DOORTILE7
                0x004ff33e                ORDERING
                0x004ff298                HOLODUKE_ICON
                0x004ff1c0                MORTER
                0x004ff084                MASKWALL3
                0x004feeae                MASTERSWITCH
                0x004fefc8                FUELPOD
                0x004ff21e                JIBS1
                0x004ff31e                BIGX
                0x004ff0b2                OCEANSPRITE5
                0x004ff176                BLOODYPOLE
                0x004feeb8                FIRSTGUNSPRITE
                0x004feebe                FREEZESPRITE
                0x004ff0ac                OCEANSPRITE2
                0x004ff212                LIZMANHEAD1
                0x004ff012                PIPE2B
 .data          0x004ff470      0x2a0 obj/player.o
                0x004ff49a                weapon_sprites
 .data          0x004ff710       0x10 obj/premap.o
                0x004ff712                useprecache
 .data          0x004ff720       0x80 obj/osdcmds.o
                0x004ff720                cvar
 .data          0x004ff7a0       0x40 obj/control.o
 .data          0x004ff7e0      0x340 obj/keyboard.o
 .data          0x004ffb20       0x80 obj/midi.o
                0x004ffb80                MIDI_Tempo
 .data          0x004ffba0       0x20 obj/mpu401.o
 .data          0x004ffbc0       0x10 obj/music.o
                0x004ffbc0                MUSIC_SoundDevice
 .data          0x004ffbd0      0x3c4 obj/mv_mix.o
                0x004ffbd0                MV_Mix8BitMono
                0x004ffea4                MV_Mix16BitStereo
                0x004ffcc4                MV_Mix8BitStereo
                0x004ffd9c                MV_Mix16BitMono
 .data          0x004fff94      0x412 obj/mv_mix16.o
                0x005000a4                MV_Mix8BitStereo16
                0x00500264                MV_Mix16BitStereo16
                0x0050018c                MV_Mix16BitMono16
                0x004fff94                MV_Mix8BitMono16
 *fill*         0x005003a6        0x2 00
 .data          0x005003a8       0xf9 obj/mvreverb.o
                0x0050041c                MV_16BitReverbFast
                0x00500458                MV_8BitReverbFast
                0x005003a8                MV_16BitReverb
                0x005003f4                MV_8BitReverb
 *fill*         0x005004a1        0xf 00
 .data          0x005004b0      0x4c0 obj/pitch.o
 .data          0x00500970       0x30 obj/multivoc.o
                0x00500994                MV_SampleSize
 .data          0x005009a0       0x10 obj/fx_man.o
                0x005009a0                FX_SoundDevice
 .data          0x005009b0     0x16e0 eobj/libengine.a(engine.o)
                0x00501fa8                usevoxels
                0x005009b0                drawlinepat
                0x005009c4                glanisotropy
                0x00501710                textfont
                0x00501f9c                beforedrawrooms
                0x00500f10                smalltextfont
                0x00501f90                pow2char
                0x00501fa4                editorgridextent
                0x005009bc                gltexfiltermode
                0x005009c0                glusetexcompr
                0x00500ef4                hitscangoalx
                0x00500ef0                hitscangoaly
                0x005009d0                apptitle
                0x00500ad0                msens
                0x00501fa0                dommxoverlay
                0x00500ad8                searchx
                0x00501f98                mapversion
                0x00500efc                engineerrstr
                0x00500ef8                xdimen
                0x005009b4                clipmoveboxtracenum
                0x00501f10                pow2long
                0x00500af0                vgapal16
                0x005009b8                glusetexcachecompression
                0x005009c8                usehightile
                0x005009cc                usemodels
 .data          0x00502090     0x1620 eobj/libengine.a(winlayer.o)
                0x0050216c                xres
                0x00502168                yres
                0x00502090                joyfeatures_C218046D
                0x00502164                maxrefreshfreq
                0x00502130                joyfeatures_C20A046D
                0x00502160                modechange
                0x00502158                appactive
                0x00502170                backgroundidle
                0x0050215c                glcolourdepth
 .data          0x005036b0       0x10 eobj/libengine.a(mmulti.o)
 .data          0x005036c0      0x240 eobj/libengine.a(cache1d.o)
 .data          0x00503900       0x50 eobj/libengine.a(osd.o)
 .data          0x00503950      0x3a0 eobj/libengine.a(defs.o)
 .data          0x00503cf0       0x20 eobj/libengine.a(baselayer.o)
                0x00503cf0                baselayer_onvideomodechange
                0x00503cf4                glinfo
 .data          0x00503d10     0x203b eobj/libengine.a(a.o)
                0x00505760                rmhlineasm4
                0x00505860                qrhlineasm4
                0x00504290                vlineasm1
                0x00504160                setupvlineasm
                0x00504500                vlineasm4
                0x005057e0                setupqrhlineasm4
                0x005055e0                rhlineasm4
                0x00504330                fixtransluscence
                0x00504490                tvlineasm1
                0x00505110                setuptvlineasm2
                0x00503eb0                setuphlineasm4
                0x00504be0                spritevline
                0x00505990                drawslab
                0x00504d40                tspritevline
                0x00503e70                setpalookupaddress
                0x00504f70                tsethlineshift
                0x00503dd0                prosethlinesizes
                0x00504df0                mhline
                0x00505300                slopevlin2
                0x00504cf0                tsetupspritevline
                0x005053e0                slopevlin
                0x005041c0                prosetupvlineasm
                0x00503ef0                hlineasm4
                0x00504900                mvlineasm4
                0x00503d10                sethlinesizes
                0x005046e0                provlineasm4
                0x005042e0                mvlineasm1
                0x00505b9f                stretchhline
                0x00504c90                mspritevline
                0x00504e60                mhlineskipmodify
                0x00504250                prevlineasm1
                0x00504c40                msetupspritevline
                0x00504fa0                thline
                0x00505380                setupslopevlin
                0x00504400                settransreverse
                0x00504220                setupmvlineasm
                0x00505290                setupslopevlin2
                0x00504dc0                msethlineshift
                0x00505150                tvlineasm2
                0x0050592a                setupdrawslab
                0x00505520                setuprhlineasm4
                0x00504370                settransnormal
                0x00504240                setuptvlineasm
                0x00505010                thlineskipmodify
                0x00503ea0                prosetpalookupaddress
                0x00503e10                setvlinebpl
                0x00505720                setuprmhlineasm4
                0x00505c40                mmxoverlay
                0x00504b90                setupspritevline
                0x00504100                prohlineasm4
 *fill*         0x00505d4b        0x5 00
 .data          0x00505d50       0x40 eobj/libengine.a(md4.o)
 .data          0x00505d90      0x1a0 eobj/libengine.a(kplib.o)
 .data          0x00505f30       0x10 c:/mingw/bin/../lib/gcc/mingw32/3.4.2/../../../libmingw32.a(CRTglob.o)
                0x00505f30                _CRT_glob
 .data          0x00505f40       0x10 c:/mingw/bin/../lib/gcc/mingw32/3.4.2/../../../libmingw32.a(txtmode.o)
                0x00505f40                _fmode
 .data          0x00505f50       0x10 c:/mingw/bin/../lib/gcc/mingw32/3.4.2/../../../libmingw32.a(gccmain.o)
 .data          0x00505f60       0x10 c:/mingw/bin/../lib/gcc/mingw32/3.4.2/libgcc.a(w32-shared-ptr.o)
 *(.data2)
 *(SORT(.data$*))
                0x00505f70                __data_end__ = .
 *(.data_cygwin_nocopy)

.rdata          0x00506000    0x11600
 *(.rdata)
 .rdata         0x00506000     0x1a00 obj/game.o
 .rdata         0x00507a00      0x2f0 obj/actors.o
 .rdata         0x00507cf0       0x80 obj/animlib.o
 .rdata         0x00507d70      0x8c0 obj/config.o
 .rdata         0x00508630     0x3da0 obj/gamedef.o
 .rdata         0x0050c3d0      0xd30 obj/gameexec.o
 .rdata         0x0050d100     0x1590 obj/menus.o
 .rdata         0x0050e690     0x1e80 obj/namesdyn.o
 .rdata         0x00510510      0x220 obj/player.o
 .rdata         0x00510730      0x180 obj/premap.o
 .rdata         0x005108b0       0xc0 obj/savegame.o
 .rdata         0x00510970      0x160 obj/sector.o
 .rdata         0x00510ad0       0xa0 obj/sounds.o
 .rdata         0x00510b70      0x120 obj/rts.o
 .rdata         0x00510c90      0x8d0 obj/osdcmds.o
 .rdata         0x00511560       0x70 obj/util_lib.o
 .rdata         0x005115d0       0xd0 obj/file_lib.o
 .rdata         0x005116a0      0x120 obj/control.o
 .rdata         0x005117c0      0x180 obj/keyboard.o
 .rdata         0x00511940      0x120 obj/scriplib.o
 .rdata         0x00511a60       0x10 obj/winbits.o
 .rdata         0x00511a70      0x280 obj/midi.o
 .rdata         0x00511cf0      0x150 obj/music.o
 .rdata         0x00511e40      0x410 obj/multivoc.o
 .rdata         0x00512250      0x100 obj/fx_man.o
 .rdata         0x00512350      0x4b0 obj/dsoundout.o
 .rdata         0x00512800      0xed0 eobj/libengine.a(engine.o)
 .rdata         0x005136d0     0x1d70 eobj/libengine.a(winlayer.o)
                0x005137ac                c_dfDIMouse
                0x00513794                c_dfDIJoystick
                0x005137c4                c_dfDIKeyboard
 .rdata         0x00515440       0xf0 eobj/libengine.a(mmulti.o)
 .rdata         0x00515530      0x200 eobj/libengine.a(cache1d.o)
 .rdata         0x00515730      0x380 eobj/libengine.a(osd.o)
 .rdata         0x00515ab0      0xc10 eobj/libengine.a(defs.o)
 .rdata         0x005166c0       0x10 eobj/libengine.a(compat.o)
 .rdata         0x005166d0      0x510 eobj/libengine.a(baselayer.o)
 .rdata         0x00516be0      0x390 eobj/libengine.a(glbuild.o)
 .rdata         0x00516f70       0xf0 eobj/libengine.a(scriptfile.o)
 .rdata         0x00517060      0x240 eobj/libengine.a(kplib.o)
 .rdata         0x005172a0      0x240 eobj/libengine.a(engineinfo.o)
                0x005173a0                _engine_cflags
                0x005172a0                _engine_date
                0x005172b5                _engine_compiler
                0x00517340                _engine_libs
                0x005172e0                _engine_uname
 .rdata         0x005174e0       0xe0 c:/mingw/bin/../lib/gcc/mingw32/3.4.2/libgcc.a(w32-shared-ptr.o)
 *(SORT(.rdata$*))
 *(.eh_frame)
                0x005175c0                ___RUNTIME_PSEUDO_RELOC_LIST__ = .
                0x005175c0                __RUNTIME_PSEUDO_RELOC_LIST__ = .
 *(.rdata_runtime_pseudo_reloc)
                0x005175c0                ___RUNTIME_PSEUDO_RELOC_LIST_END__ = .
                0x005175c0                __RUNTIME_PSEUDO_RELOC_LIST_END__ = .

.pdata
 *(.pdata)

.bss            0x00518000  0x10af810
                0x00518000                __bss_start__ = .
 *(.bss)
 .bss           0x00518000       0x10 c:/mingw/bin/../lib/gcc/mingw32/3.4.2/../../../crt2.o
                0x00518004                _argc
                0x00518000                _argv
 .bss           0x00518010     0x8280 obj/game.o
                0x005181ac                inputloc
                0x005181a8                frecfilep
                0x005181a0                userconfiles
                0x00518030                boardfilename
                0x005181b4                in_menu
                0x005181a4                debug_on
                0x005181b0                shareware
                0x005181a5                actor_tog
                0x00518010                cameradist
                0x005181a6                memorycheckoveride
                0x00518150                firstdemofile
                0x00518014                cameraclock
 .bss           0x00520290       0x20 obj/animlib.o
 .bss           0x005202b0       0x10 obj/config.o
 .bss           0x005202c0       0x70 obj/gamedef.o
                0x005202ca                nokeywordcheck
                0x005202cb                dynamicremap
                0x005202d8                iDefaultGameVarCount
                0x005202c9                labelsonly
                0x005202c8                checking_switch
                0x005202d0                parsing_event
                0x005202d4                iGameVarCount
                0x005202cc                redefined_quotes
                0x005202c0                casescriptptr
                0x005202c4                casecount
 .bss           0x00520330       0x50 obj/gameexec.o
 .bss           0x00520380       0x20 obj/global.o
                0x00520383                gamequit
                0x00520388                totalmemory
                0x00520384                cloudtotalclock
                0x0052038c                numinterpolations
                0x00520381                freezerhurtowner
                0x00520382                lasermode
                0x00520380                loadfromgrouponly
                0x00520390                startofdynamicinterpolations
                0x00520394                nextvoxid
 .bss           0x005203a0     0x42e0 obj/menus.o
                0x005203a2                lastprobey
                0x005203a0                probey
                0x005203a4                last_threehundred
                0x005203a8                quittimer
 .bss           0x00524680      0x230 obj/player.o
                0x00524684                myaimstat
                0x00524688                omyaimstat
                0x00524680                myaimmode
 .bss           0x005248b0      0xf10 obj/premap.o
 .bss           0x005257c0       0x10 obj/sounds.o
                0x005257c0                menunum
 .bss           0x005257d0       0x30 obj/rts.o
 .bss           0x00525800       0x10 obj/util_lib.o
 .bss           0x00525810       0x50 obj/file_lib.o
 .bss           0x00525860      0x770 obj/control.o
                0x0052587c                CONTROL_ButtonHeldState2
                0x0052586c                CONTROL_MouseEnabled
                0x00525864                CONTROL_JoystickEnabled
                0x00525868                CONTROL_MousePresent
                0x00525870                CONTROL_ButtonState1
                0x00525878                CONTROL_ButtonState2
                0x00525860                CONTROL_JoyPresent
                0x00525874                CONTROL_ButtonHeldState1
 .bss           0x00525fd0       0x10 obj/keyboard.o
 .bss           0x00525fe0       0x50 obj/scriplib.o
 .bss           0x00526030      0x1f0 obj/midi.o
 .bss           0x00526220      0xdf0 obj/mpu401.o
                0x00526224                _MPU_BuffersWaiting
                0x00526220                _MPU_CurrentBuffer
                0x00526228                _MPU_LastEvent
 .bss           0x00527010       0x90 obj/music.o
                0x00527010                MUSIC_ErrorCode
 .bss           0x005270a0     0x9280 obj/multivoc.o
                0x005270a0                MV_ErrorCode
 .bss           0x00530320       0x20 obj/fx_man.o
                0x00530320                FX_ErrorCode
                0x00530324                FX_Installed
 .bss           0x00530340      0x110 obj/dsoundout.o
                0x00530340                DSOUND_ErrorCode
 .bss           0x00530450   0x161a00 eobj/libengine.a(engine.o)
                0x00530488                rendmode
                0x005304a8                pic
                0x005304b4                novoxmips
                0x0053047c                zbufbpl
                0x00530458                vnum
                0x0053048c                palfadedelta
                0x00530484                zbufmem
                0x005304a0                cachesize
                0x00530464                gltexmaxsize
                0x005304a4                artsize
                0x00530498                transluc
                0x00530492                editstatus
                0x00530460                gltexmiplevel
                0x00530478                zbufoff
                0x00530454                vmax
                0x0053049c                qsetmode
                0x0053046c                glmultisample
                0x0053048d                palfadergb
                0x005304ac                gammabrightness
                0x00530468                glnvmultisamplehint
                0x00530474                glredbluemode
                0x005304b0                curbrightness
                0x00530450                cachedebug
                0x00530470                glusetexcache
                0x00530494                paletteloaded
                0x00530480                zbufysiz
                0x0053045c                glpolygonmode
 .bss           0x00691e50     0x26b0 eobj/libengine.a(winlayer.o)
                0x00691e78                quitevent
                0x00691e6c                mouseb
                0x00691e8c                bytesperline
                0x00691e70                mousey
                0x00691e98                nofog
                0x00691e7c                repaintneeded
                0x00691e84                frameplace
                0x00691e60                joyhat
                0x00691e5f                joyisgamepad
                0x00691e80                lockcount
                0x00691e58                keypresscallback
                0x00691e68                joyaxis
                0x00691e5d                joynumbuttons
                0x00691e90                bpp
                0x00691e5c                joynumhats
                0x00691e79                inputdevices
                0x00691e88                imageSize
                0x00691e54                mousepresscallback
                0x00691ea0                _buildargc
                0x00691e5e                joynumaxes
                0x00691e7b                offscreenrendering
                0x00691e64                joyb
                0x00691e50                joypresscallback
                0x00691e9c                _buildargv
                0x00691e94                fullscreen
                0x00691e74                mousex
                0x00691e7a                videomodereset
 .bss           0x00694500   0x411750 eobj/libengine.a(mmulti.o)
                0x00694500                syncstate
 .bss           0x00aa5c50     0x4660 eobj/libengine.a(cache1d.o)
                0x00aa5c5c                cachestart
                0x00aa5c54                agecount
                0x00aa5c64                cachecount
                0x00aa5c58                cacnum
                0x00aa5c50                pathsearchmode
                0x00aa5c60                zerochar
 .bss           0x00aaa2b0     0xc5d0 eobj/libengine.a(osd.o)
 .bss           0x00ab6880       0x10 eobj/libengine.a(defs.o)
 .bss           0x00ab6890      0x400 eobj/libengine.a(crc32.o)
 .bss           0x00ab6c90       0x20 eobj/libengine.a(glbuild.o)
                0x00ab6c90                gldriver
 .bss           0x00ab6cb0       0x30 eobj/libengine.a(scriptfile.o)
 .bss           0x00ab6ce0    0x3e510 eobj/libengine.a(kplib.o)
 .bss           0x00af51f0       0x10 c:/mingw/bin/../lib/gcc/mingw32/3.4.2/../../../libmingw32.a(CRTfmode.o)
                0x00af51f0                _CRT_fmode
 .bss           0x00af5200       0x10 c:/mingw/bin/../lib/gcc/mingw32/3.4.2/../../../libmingw32.a(gccmain.o)
 .bss           0x00af5210       0x10 c:/mingw/bin/../lib/gcc/mingw32/3.4.2/../../../libmingw32.a(pseudo-reloc-list.o)
 .bss           0x00af5220       0x20 c:/mingw/bin/../lib/gcc/mingw32/3.4.2/libgcc.a(w32-shared-ptr.o)
 *(COMMON)
 COMMON         0x00af5240   0x2b3260 obj/game.o
                0x00af5240                endingpal
                0x00af5540                quotebotgoal
                0x00af5550                recfilep
                0x00af5560                titlepal
                0x00af5860                restorepalette
                0x00af5870                waterpal
                0x00af5b70                qe
                0x00af5b80                defaultprojectile
                0x00bd6b80                drealms
                0x00bd6e80                thisprojectile
                0x00cc6e80                playerswhenstarted
                0x00cc6e90                totalreccnt
                0x00cc6ea0                rtsptr
                0x00cc6eb0                tempwallptr
                0x00cc6ec0                cp
                0x00cc6ed0                slimepal
                0x00cc71d0                nomorelogohack
                0x00cc71e0                recbuf
                0x00cc7230                screencapt
                0x00cc7240                cheatbuf
                0x00cc7260                user_quote
                0x00cc7460                quotebot
                0x00cc7470                projectile
                0x00da8470                nonsharedtimer
                0x00da8480                cheatbuflen
                0x00da8490                user_quote_time
 COMMON         0x00da84a0       0x10 obj/actors.o
                0x00da84a0                otherp
 COMMON         0x00da84b0      0x3c0 obj/config.o
                0x00da84b0                MouseDigitalFunctions
                0x00da84c0                FXDevice
                0x00da84d0                NumChannels
                0x00da84e0                JoystickAnalogueScale
                0x00da8500                SoundToggle
                0x00da8510                FXVolume
                0x00da8520                ControllerType
                0x00da8530                JoystickAnalogueDead
                0x00da8550                NumVoices
                0x00da8560                MusicDevice
                0x00da8570                AutoAim
                0x00da8580                JoystickAnalogueSaturate
                0x00da85a0                VoiceToggle
                0x00da85b0                RunMode
                0x00da85c0                NumBits
                0x00da85d0                MouseAnalogueScale
                0x00da85e0                JoystickDigitalFunctions
                0x00da8620                JoystickFunctions
                0x00da8740                AmbienceToggle
                0x00da8750                KeyboardKeys
                0x00da87c0                JoystickAnalogueAxes
                0x00da87e0                MusicToggle
                0x00da87f0                MouseFunctions
                0x00da8820                ShowOpponentWeapons
                0x00da8830                ReverseStereo
                0x00da8840                MixRate
                0x00da8850                MouseAnalogueAxes
                0x00da8860                MusicVolume
 COMMON         0x00da8870   0x123960 obj/gamedef.o
                0x00da8870                aplWeaponReloadSound2
                0x00da88a0                aplWeaponInitialSound
                0x00da88d0                apScriptGameEvent
                0x00da8ad0                aplWeaponSound2Time
                0x00da8b00                aplWeaponTotalTime
                0x00da8b30                aplWeaponFireDelay
                0x00da8b60                aGameVars
                0x00db2b60                redefined_fta_quotes
                0x00eb2b60                aDefaultGameVars
                0x00ebcb60                aplWeaponReloadSound1
                0x00ebcb90                aplWeaponHoldDelay
                0x00ebcbc0                aplWeaponFlags
                0x00ebcbf0                aplWeaponSpawn
                0x00ebcc20                aplWeaponReload
                0x00ebcc50                aplWeaponWorksLike
                0x00ebcc80                aplWeaponSpawnTime
                0x00ebccb0                aplWeaponClip
                0x00ebcce0                aplWeaponSound2Sound
                0x00ebcd10                aplWeaponShoots
                0x00ebcd40                aplWeaponShotsPerBurst
                0x00ebcd70                aplWeaponFireSound
                0x00ebcda0                aplWeaponRenderSize
                0x00ebcdd0                actorLoadEventScrptr
                0x00ecbdd0                g_szBuf
 COMMON         0x00ecc1d0   0x3b3a00 obj/global.o
                0x00ecc1d0                soundm
                0x00ecc7b0                playerreadyflag
                0x00ecc7c0                everyothertime
                0x00ecc7d0                msx
                0x00ece7d0                numplayersprites
                0x00ece7e0                horiz
                0x00ece7f0                mirrorcnt
                0x00ece800                myybak
                0x00ecec00                fricxv
                0x00ecec10                fta_quotes
                0x00fcec10                omyhorizoff
                0x00fcec20                neartagsector
                0x00fcec30                MusicPtr
                0x00ff1eb0                oldipos
                0x00ff9eb0                myhoriz
                0x00ff9ec0                myjumpingcounter
                0x00ff9ed0                mirrorwall
                0x00ff9f50                dsync
                0x00ffa050                Sound
                0x00fffe10                myy
                0x00fffe20                groupfile
                0x00fffe30                myhardlanding
                0x00fffe40                betaname
                0x00fffe90                lockclock
                0x00fffea0                msy
                0x01001ea0                music_fn
                0x01002320                movefifoend
                0x01002360                show_shareware
                0x01002370                numclouds
                0x01002380                myname
                0x010023a0                scriptptr
                0x010023b0                env_music_fn
                0x01002420                ready2send
                0x01002430                multipos
                0x01002440                typebuf
                0x01002470                syncstat
                0x01002480                buf
                0x01002880                clouds
                0x01002980                vel
                0x01002990                title_zoom
                0x010029a0                insptr
                0x010029b0                animwall
                0x010039b0                fricyv
                0x010039c0                myzvel
                0x010039d0                avgbits
                0x010039e0                omyang
                0x010039f0                max_armour_amount
                0x01003a00                neartagwall
                0x01003a10                spriteq
                0x01004210                spriteqloc
                0x01004220                level_names
                0x01004c10                syncvaltail
                0x01004c20                partime
                0x01004d60                pipebombblastradius
                0x01004d70                cloudx
                0x01004e70                seenineblastradius
                0x01004e80                spriteflags
                0x01013e80                ps
                0x01017980                multiwho
                0x01017990                global_random
                0x010179a0                parsing_actor
                0x010179b0                animateptr
                0x01017db0                mirrorsector
                0x01017e30                sounds
                0x010771a0                soundpr
                0x01077780                actorspriteflags
                0x01087780                numcyclers
                0x01087790                pus
                0x010877a0                actortype
                0x0108b3a0                bakipos
                0x010933a0                actorscrptr
                0x010a23a0                music_pointer
                0x010a23b0                myx
                0x010a23c0                myonground
                0x010a23d0                SoundOwner
                0x010adf50                animatevel
                0x010ae350                max_ammo_amount
                0x010ae380                level_file_names
                0x010b31c0                omyhoriz
                0x010b31d0                mycursectnum
                0x010b31e0                loc
                0x010b31f0                morterblastradius
                0x010b3200                myxvel
                0x010b3210                labelcnt
                0x010b3220                labeltype
                0x010b3230                syncval
                0x010b4230                avgbits2
                0x010b4240                typebuflen
                0x010b4250                myang
                0x010b4260                curipos
                0x010bc260                soundvo
                0x010bce20                camerashitable
                0x010bce30                camsprite
                0x010bce40                impact_damage
                0x010bce50                label
                0x010bce60                syncvaltottail
                0x010bce70                myyvel
                0x010bce80                angvel
                0x010bce90                omyz
                0x010bcea0                textptr
                0x010bceb0                sbar
                0x010bcf20                movefifoplc
                0x010bcf30                designertime
                0x010bd070                multiwhat
                0x010bd080                packbuf
                0x010bd2c0                ud
                0x010bdc20                condebug
                0x010bdc30                script
                0x010fdc70                fakemovefifoplc
                0x010fdc80                syncvalhead
                0x010fdcc0                neartaghitdist
                0x010fdcd0                myjumpingtoggle
                0x010fdce0                ototalclock
                0x010fdcf0                tempbuf
                0x010fe4f0                display_mirror
                0x010fe500                shrinkerblastradius
                0x010fe510                cloudy
                0x010fe610                multiflag
                0x010fe620                neartagsprite
                0x010fe630                soundps
                0x010ff1f0                movefifosendplc
                0x010ff200                killit_flag
                0x010ff210                earthquaketime
                0x010ff220                animatesect
                0x010ff420                mymaxlag
                0x010ff430                myz
                0x010ff440                recsync
                0x011091c0                rpgblastradius
                0x011091d0                myminlag
                0x01109210                defaultlabelcnt
                0x01109220                myxbak
                0x01109620                pub
                0x01109630                myzbak
                0x01109a30                myhorizbak
                0x01109e30                numanimwalls
                0x01109e40                svel
                0x01109e50                labelcode
                0x01109e60                myhorizoff
                0x01109e70                myreturntocenter
                0x01109e80                omyx
                0x01109e90                avgsvel
                0x01109ea0                avgavel
                0x01109eb0                soundpe
                0x0110aa70                music_select
                0x0110aa80                hittype
                0x0126aa80                error
                0x0126aa90                avgfvel
                0x0126aaa0                otherminlag
                0x0126aab0                bouncemineblastradius
                0x0126aac0                screenpeek
                0x0126aad0                cyclers
                0x0126dad0                warning
                0x0126dae0                max_player_health
                0x0126daf0                frags
                0x0126dcf0                rtsplaying
                0x0126dd00                myangbak
                0x0126df00                po
                0x0126e000                tripbombblastradius
                0x0126e010                inputfifo
                0x0127e010                animatecnt
                0x0127e020                omyy
                0x0127e030                soundsiz
                0x0127f7a0                avghorz
                0x0127f7b0                animategoal
                0x0127fbb0                playerquitflag
                0x0127fbc0                current_menu
 COMMON         0x0127fbd0       0xb0 obj/menus.o
                0x0127fbd0                buttonstat
                0x0127fbe0                last_fifty
                0x0127fbf0                deletespot
                0x0127fc00                sh
                0x0127fc10                mi
                0x0127fc20                minfo
                0x0127fc40                last_onehundred
                0x0127fc50                last_menu
                0x0127fc60                onbar
                0x0127fc70                last_zero
 COMMON         0x0127fc80     0x7800 obj/namesdyn.o
                0x0127fc80                dynamictostatic
 COMMON         0x01287480     0x42c0 obj/player.o
                0x01287480                g_currentweapon
                0x01287490                g_weapon_offset
                0x012874a0                fistsign
                0x012874b0                g_weapon_xoffset
                0x012874c0                g_gs
                0x012874d0                g_looking_arc
                0x012874e0                g_kb
                0x012874f0                lastcontroltime
                0x01287500                turnheldtime
                0x01287510                searchsect
                0x01289510                g_gun_pos
                0x01289520                dashow2dsector
                0x01289720                g_looking_angSR1
                0x01289730                searchparent
                0x0128b730                lastvisinc
 COMMON         0x0128b740    0x16810 obj/premap.o
                0x0128b740                spritecache
                0x012a1f40                numl
 COMMON         0x012a1f50       0x10 obj/sector.o
                0x012a1f50                haltsoundhack
 COMMON         0x012a1f60       0x20 obj/sounds.o
                0x012a1f60                numenvsnds
                0x012a1f70                backflag
 COMMON         0x012a1f80       0x20 obj/rts.o
                0x012a1f80                lumplockbyte
                0x012a1f90                numlumps
 COMMON         0x012a1fa0       0x10 obj/osdcmds.o
                0x012a1fa0                osdcmd_cheatsinfo_stat
 COMMON         0x012a1fb0       0x10 obj/keyboard.o
                0x012a1fb0                KB_LastScan
 COMMON         0x012a1fc0       0xa0 obj/midi.o
                0x012a1fc0                MIDI_PatchMap
                0x012a2040                _MIDI_PositionInTicks
                0x012a2050                _MIDI_GlobalPositionInTicks
 COMMON         0x012a2060       0xb0 obj/multivoc.o
                0x012a2060                MV_RightChannelOffset
                0x012a2070                MV_MixBuffer
                0x012a20c0                MV_LeftVolume
                0x012a20d0                MV_MixDestination
                0x012a20e0                MV_RightVolume
                0x012a20f0                MV_MixPosition
                0x012a2100                MV_HarshClipTable
 COMMON         0x012a2110   0x309c40 eobj/libengine.a(engine.o)
                0x012a2110                gvx
                0x012a2120                nextspritestat
                0x012aa120                ydim
                0x012aa130                searchit
                0x012aa140                vplce
                0x012aa150                ebpbak
                0x012aa160                globalcursectnum
                0x012aa170                walock
                0x012add70                globalx2
                0x012add80                windowx1
                0x012add90                guniqhudid
                0x012adda0                searchstat
                0x012addb0                visibility
                0x012addc0                tsprite
                0x012c3dc0                searchy
                0x012c3dd0                frameoffset
                0x012c3de0                startdmost
                0x012c4a60                lastageclock
                0x012c4a70                britable
                0x012c5a70                midydim16
                0x012c5a80                startposx
                0x012c5a90                gdy
                0x012c5aa0                sprite
                0x01375aa0                randomseed
                0x01375ab0                wy2
                0x01375ac0                parallaxvisibility
                0x01375ad0                globalyshift
                0x01375ae0                parallaxyoffs
                0x01375af0                globalxshift
                0x01375b00                dplc
                0x01376780                pskyoff
                0x01376980                globalpal
                0x01376990                tilesizy
                0x0137e190                globalcisibility
                0x0137e1a0                vince
                0x0137e1b0                pskybits
                0x0137e1c0                pageoffset
                0x0137e1d0                sintable
                0x0137f1d0                show2dwall
                0x0137f9d0                fpuasm
                0x0137f9e0                gux
                0x0137f9f0                numwalls
                0x0137fa00                globalang
                0x0137fa10                globalpalwritten
                0x0137fa20                globparaceilclip
                0x0137fa30                sinviewingrangeglobalang
                0x0137fa40                linehighlight
                0x0137fa50                headspritestat
                0x01380260                startposy
                0x01380270                globalx
                0x01380280                xdimscale
                0x01380290                numpages
                0x013802a0                globalposz
                0x013802b0                globalypanning
                0x013802c0                asm2
                0x013802d0                captureformat
                0x013802e0                globalshade
                0x013802f0                wx1
                0x01380300                picanm
                0x0138f300                globalxpanning
                0x0138f310                searchwall
                0x0138f320                prevspritesect
                0x01397320                gvy
                0x01397330                tiletovox
                0x013a6330                tilesizx
                0x013adb30                cosviewingrangeglobalang
                0x013adb40                show2dsector
                0x013add40                voxoff
                0x013c1d40                wx2
                0x013c1d50                guy
                0x013c1d60                windowy2
                0x013c1d70                startsectnum
                0x013c1d80                globaly2
                0x013c1d90                numscans
                0x013c1da0                gdo
                0x013c1db0                voxlock
                0x013c6db0                voxscale
                0x013cadb0                palookupoffse
                0x013cadc0                totalclock
                0x013cadd0                globalhoriz
                0x013cade0                globalhisibility
                0x013cadf0                ylookup
                0x013cc0c0                alphahackarray
                0x013db0c0                gdx
                0x013db0d0                ydim16
                0x013db0e0                spritecol2d
                0x013e28e0                globalorientation
                0x013e28f0                asm3
                0x013e2900                halfxdimen
                0x013e2910                palette
                0x013e2c10                totalclocklock
                0x013e2c20                highlightcnt
                0x013e2c30                tilefilenum
                0x013e6830                viewingrange
                0x013e6840                xdimenscale
                0x013e6850                windowy1
                0x013e6860                globvis
                0x013e6870                globaldclip
                0x013e6880                globalzd
                0x013e6890                globalz
                0x013e68a0                xdimenrecip
                0x013e68b0                spritesortcnt
                0x013e68c0                umost
                0x013e7540                ydimen
                0x013e7550                globalx3
                0x013e7560                globparaflorclip
                0x013e7570                slopalookup
                0x013f7570                startang
                0x013f7580                startposz
                0x013f7590                globaly
                0x013f75a0                wall
                0x014775a0                parallaxyscale
                0x014775b0                searchsector
                0x014775c0                globalposy
                0x014775d0                validmodecnt
                0x014775e0                prevspritestat
                0x0147f5e0                numbunches
                0x0147f5f0                asm4
                0x0147f600                globaly3
                0x0147f610                reciptable
                0x01481610                windowx2
                0x01481620                gotsector
                0x01481820                show2dsprite
                0x01482020                viewingrangerecip
                0x01482030                xyaspect
                0x01482040                startumost
                0x01482cc0                tilefileoffs
                0x01491cc0                globalpisibility
                0x01491cd0                numframes
                0x01491ce0                nextspritesect
                0x01499ce0                bufplce
                0x01499cf0                asm1
                0x01499d00                globalpicnum
                0x01499d10                espbak
                0x01499d20                picsiz
                0x0149d920                globalvisibility
                0x0149d930                hudmem
                0x01515930                globalshiftval
                0x01515940                globaluclip
                0x01515950                sector
                0x0153d950                validmode
                0x0153e950                globalbufplc
                0x0153e960                gvo
                0x0153e970                halfxdim16
                0x0153e980                gotpic
                0x0153f100                wy1
                0x0153f110                numsectors
                0x0153f120                numpalookups
                0x0153f130                uplc
                0x0153fdb0                guo
                0x0153fdc0                globalx1
                0x0153fdd0                xdim
                0x0153fde0                pointhighlight
                0x0153fdf0                globaly1
                0x0153fe00                headspritesect
                0x01541e10                globalposx
                0x01541e20                curpalette
                0x01542220                yxaspect
                0x01542230                dmost
                0x01542eb0                singlobalang
                0x01542ec0                numhits
                0x01542ed0                spriteext
                0x0159c4d0                artversion
                0x0159c4e0                curpalettefaded
                0x0159c8e0                numtiles
                0x0159c8f0                waloff
                0x015ab8f0                globalyscale
                0x015ab900                automapping
                0x015ab910                cosglobalang
                0x015ab920                palookup
                0x015abd20                showinvisibility
                0x015abd30                globalzx
                0x015abd40                parallaxtype
 COMMON         0x015abd50      0x1c0 eobj/libengine.a(winlayer.o)
                0x015abd50                keyfifoplc
                0x015abd60                keystatus
                0x015abe60                keyasciififoend
                0x015abe70                keyasciififo
                0x015abeb0                keyasciififoplc
                0x015abec0                keyfifoend
                0x015abed0                keyfifo
 COMMON         0x015abf10       0x70 eobj/libengine.a(mmulti.o)
                0x015abf10                myconnectindex
                0x015abf20                connecthead
                0x015abf30                numplayers
                0x015abf40                connectpoint2
 COMMON         0x015abf80    0x1b000 eobj/libengine.a(cache1d.o)
                0x015abf80                cac
 COMMON         0x015c6f80       0x10 eobj/libengine.a(pragmas.o)
                0x015c6f80                dmval
 COMMON         0x015c6f90      0x400 eobj/libengine.a(glbuild.o)
                0x015c6f90                bglVertex3fv
                0x015c6fa0                bglTexParameterf
                0x015c6fb0                bglEnable
                0x015c6fc0                bglGetCompressedTexImageARB
                0x015c6fd0                bglOrtho
                0x015c6fe0                bglCullFace
                0x015c6ff0                bglViewport
                0x015c7000                bglShadeModel
                0x015c7010                bglLoadMatrixf
                0x015c7020                bglDisable
                0x015c7030                bglTexImage2D
                0x015c7040                bglPushMatrix
                0x015c7050                bglPopMatrix
                0x015c7060                bwglSetPixelFormat
                0x015c7070                bglVertex2f
                0x015c7080                bglGetTexLevelParameteriv
                0x015c7090                bglMatrixMode
                0x015c70a0                bglVertex3d
                0x015c70b0                bglEnd
                0x015c70c0                bglBindTexture
                0x015c70d0                bglGetError
                0x015c70e0                bwglCreateContext
                0x015c70f0                bglFrontFace
                0x015c7100                bglColor4f
                0x015c7110                bglTexCoord2d
                0x015c7120                bglVertex2i
                0x015c7130                bglGetIntegerv
                0x015c7140                bwglGetProcAddress
                0x015c7150                bglDepthRange
                0x015c7160                bglAlphaFunc
                0x015c7170                bglLoadIdentity
                0x015c7180                bglBlendFunc
                0x015c7190                bglDeleteTextures
                0x015c71a0                bwglGetPixelFormat
                0x015c71b0                bglColorMask
                0x015c71c0                bglPolygonMode
                0x015c71d0                bglPolygonOffset
                0x015c71e0                bglTexCoord2f
                0x015c71f0                bwglSwapBuffers
                0x015c7200                bglFogf
                0x015c7210                bglFogi
                0x015c7220                bglReadPixels
                0x015c7230                bglClear
                0x015c7240                bwglChoosePixelFormat
                0x015c7250                bglFrustum
                0x015c7260                bwglMakeCurrent
                0x015c7270                bglGetFloatv
                0x015c7280                bglGenTextures
                0x015c7290                bglClearColor
                0x015c72a0                bglDepthMask
                0x015c72b0                bglColor4ub
                0x015c72c0                bwglDescribePixelFormat
                0x015c72d0                bglCompressedTexImage2DARB
                0x015c72e0                bglFogfv
                0x015c72f0                bglTexSubImage2D
                0x015c7300                bglDepthFunc
                0x015c7310                bglTexParameteri
                0x015c7320                bglTexEnvf
                0x015c7330                bglHint
                0x015c7340                bglGetString
                0x015c7350                bglPushAttrib
                0x015c7360                bglBegin
                0x015c7370                bwglDeleteContext
                0x015c7380                bglPopAttrib
 COMMON         0x015c7390      0x430 eobj/libengine.a(kplib.o)
                0x015c7390                palcol
                0x015c7790                coltype
                0x015c77a0                paleng
                0x015c77b0                bitdepth
 COMMON         0x015c77c0       0x30 c:/mingw/bin/../lib/gcc/mingw32/3.4.2/libgcc.a(w32-shared-ptr.o)
                0x015c77c0                __w32_sharedptr_terminate
                0x015c77d0                __w32_sharedptr
                0x015c77e0                __w32_sharedptr_unexpected
 COMMON         0x015c77f0       0x20 c:/mingw/bin/../lib/gcc/mingw32/3.4.2/libgcc.a(_ctors.o)
                0x015c7810                __bss_end__ = .

.edata
 *(.edata)

/DISCARD/
 *(.debug$S)
 *(.debug$T)
 *(.debug$F)
 *(.drectve)

.idata          0x015c8000     0x1a00
 SORT(*)(.idata$2)
 .idata$2       0x015c8000       0x14 c:/mingw/bin/../lib/gcc/mingw32/3.4.2/../../../libgdi32.a(deubh.o)
                0x015c8000                _head_libgdi32_a
 .idata$2       0x015c8014       0x14 c:/mingw/bin/../lib/gcc/mingw32/3.4.2/../../../libkernel32.a(dqifh.o)
                0x015c8014                _head_libkernel32_a
 .idata$2       0x015c8028       0x14 c:/mingw/bin/../lib/gcc/mingw32/3.4.2/../../../libmoldname.a(duudh.o)
                0x015c8028                _head_libmoldname_a
 .idata$2       0x015c803c       0x14 c:/mingw/bin/../lib/gcc/mingw32/3.4.2/../../../libmsvcrt.a(dwpdh.o)
                0x015c803c                _head_libmsvcrt_a
 .idata$2       0x015c8050       0x14 c:/mingw/bin/../lib/gcc/mingw32/3.4.2/../../../libshell32.a(dsjeh.o)
                0x015c8050                _head_libshell32_a
 .idata$2       0x015c8064       0x14 c:/mingw/bin/../lib/gcc/mingw32/3.4.2/../../../libuser32.a(dgdfh.o)
                0x015c8064                _head_libuser32_a
 .idata$2       0x015c8078       0x14 c:/mingw/bin/../lib/gcc/mingw32/3.4.2/../../../libwinmm.a(dgtfh.o)
                0x015c8078                _head_libwinmm_a
 .idata$2       0x015c808c       0x14 c:/mingw/bin/../lib/gcc/mingw32/3.4.2/../../../libwsock32.a(deoeh.o)
                0x015c808c                _head_libwsock32_a
 SORT(*)(.idata$3)
                0x015c80a0        0x4 LONG 0x0
                0x015c80a4        0x4 LONG 0x0
                0x015c80a8        0x4 LONG 0x0
                0x015c80ac        0x4 LONG 0x0
                0x015c80b0        0x4 LONG 0x0
 SORT(*)(.idata$4)
 .idata$4       0x015c80b4        0x4 c:/mingw/bin/../lib/gcc/mingw32/3.4.2/../../../libgdi32.a(deubh.o)
 .idata$4       0x015c80b8        0x4 c:/mingw/bin/../lib/gcc/mingw32/3.4.2/../../../libgdi32.a(deubs00012.o)
 .idata$4       0x015c80bc        0x4 c:/mingw/bin/../lib/gcc/mingw32/3.4.2/../../../libgdi32.a(deubs00015.o)
 .idata$4       0x015c80c0        0x4 c:/mingw/bin/../lib/gcc/mingw32/3.4.2/../../../libgdi32.a(deubs00033.o)
 .idata$4       0x015c80c4        0x4 c:/mingw/bin/../lib/gcc/mingw32/3.4.2/../../../libgdi32.a(deubs00038.o)
 .idata$4       0x015c80c8        0x4 c:/mingw/bin/../lib/gcc/mingw32/3.4.2/../../../libgdi32.a(deubs00055.o)
 .idata$4       0x015c80cc        0x4 c:/mingw/bin/../lib/gcc/mingw32/3.4.2/../../../libgdi32.a(deubs00069.o)
 .idata$4       0x015c80d0        0x4 c:/mingw/bin/../lib/gcc/mingw32/3.4.2/../../../libgdi32.a(deubs00072.o)
 .idata$4       0x015c80d4        0x4 c:/mingw/bin/../lib/gcc/mingw32/3.4.2/../../../libgdi32.a(deubs00145.o)
 .idata$4       0x015c80d8        0x4 c:/mingw/bin/../lib/gcc/mingw32/3.4.2/../../../libgdi32.a(deubs00146.o)
 .idata$4       0x015c80dc        0x4 c:/mingw/bin/../lib/gcc/mingw32/3.4.2/../../../libgdi32.a(deubs00256.o)
 .idata$4       0x015c80e0        0x4 c:/mingw/bin/../lib/gcc/mingw32/3.4.2/../../../libgdi32.a(deubs00277.o)
 .idata$4       0x015c80e4        0x4 c:/mingw/bin/../lib/gcc/mingw32/3.4.2/../../../libgdi32.a(deubs00278.o)
 .idata$4       0x015c80e8        0x4 c:/mingw/bin/../lib/gcc/mingw32/3.4.2/../../../libgdi32.a(deubs00291.o)
 .idata$4       0x015c80ec        0x4 c:/mingw/bin/../lib/gcc/mingw32/3.4.2/../../../libgdi32.a(deubs00294.o)
 .idata$4       0x015c80f0        0x4 c:/mingw/bin/../lib/gcc/mingw32/3.4.2/../../../libgdi32.a(deubs00306.o)
 .idata$4       0x015c80f4        0x4 c:/mingw/bin/../lib/gcc/mingw32/3.4.2/../../../libgdi32.a(deubs00308.o)
 .idata$4       0x015c80f8        0x4 c:/mingw/bin/../lib/gcc/mingw32/3.4.2/../../../libgdi32.a(deubs00315.o)
 .idata$4       0x015c80fc        0x4 c:/mingw/bin/../lib/gcc/mingw32/3.4.2/../../../libgdi32.a(deubt.o)
 .idata$4       0x015c8100        0x4 c:/mingw/bin/../lib/gcc/mingw32/3.4.2/../../../libkernel32.a(dqifh.o)
 .idata$4       0x015c8104        0x4 c:/mingw/bin/../lib/gcc/mingw32/3.4.2/../../../libkernel32.a(dqifs00001.o)
 .idata$4       0x015c8108        0x4 c:/mingw/bin/../lib/gcc/mingw32/3.4.2/../../../libkernel32.a(dqifs00038.o)
 .idata$4       0x015c810c        0x4 c:/mingw/bin/../lib/gcc/mingw32/3.4.2/../../../libkernel32.a(dqifs00064.o)
 .idata$4       0x015c8110        0x4 c:/mingw/bin/../lib/gcc/mingw32/3.4.2/../../../libkernel32.a(dqifs00087.o)
 .idata$4       0x015c8114        0x4 c:/mingw/bin/../lib/gcc/mingw32/3.4.2/../../../libkernel32.a(dqifs00090.o)
 .idata$4       0x015c8118        0x4 c:/mingw/bin/../lib/gcc/mingw32/3.4.2/../../../libkernel32.a(dqifs00125.o)
 .idata$4       0x015c811c        0x4 c:/mingw/bin/../lib/gcc/mingw32/3.4.2/../../../libkernel32.a(dqifs00155.o)
 .idata$4       0x015c8120        0x4 c:/mingw/bin/../lib/gcc/mingw32/3.4.2/../../../libkernel32.a(dqifs00175.o)
 .idata$4       0x015c8124        0x4 c:/mingw/bin/../lib/gcc/mingw32/3.4.2/../../../libkernel32.a(dqifs00177.o)
 .idata$4       0x015c8128        0x4 c:/mingw/bin/../lib/gcc/mingw32/3.4.2/../../../libkernel32.a(dqifs00181.o)
 .idata$4       0x015c812c        0x4 c:/mingw/bin/../lib/gcc/mingw32/3.4.2/../../../libkernel32.a(dqifs00190.o)
 .idata$4       0x015c8130        0x4 c:/mingw/bin/../lib/gcc/mingw32/3.4.2/../../../libkernel32.a(dqifs00208.o)
 .idata$4       0x015c8134        0x4 c:/mingw/bin/../lib/gcc/mingw32/3.4.2/../../../libkernel32.a(dqifs00213.o)
 .idata$4       0x015c8138        0x4 c:/mingw/bin/../lib/gcc/mingw32/3.4.2/../../../libkernel32.a(dqifs00220.o)
 .idata$4       0x015c813c        0x4 c:/mingw/bin/../lib/gcc/mingw32/3.4.2/../../../libkernel32.a(dqifs00236.o)
 .idata$4       0x015c8140        0x4 c:/mingw/bin/../lib/gcc/mingw32/3.4.2/../../../libkernel32.a(dqifs00281.o)
 .idata$4       0x015c8144        0x4 c:/mingw/bin/../lib/gcc/mingw32/3.4.2/../../../libkernel32.a(dqifs00306.o)
 .idata$4       0x015c8148        0x4 c:/mingw/bin/../lib/gcc/mingw32/3.4.2/../../../libkernel32.a(dqifs00323.o)
 .idata$4       0x015c814c        0x4 c:/mingw/bin/../lib/gcc/mingw32/3.4.2/../../../libkernel32.a(dqifs00329.o)
 .idata$4       0x015c8150        0x4 c:/mingw/bin/../lib/gcc/mingw32/3.4.2/../../../libkernel32.a(dqifs00335.o)
 .idata$4       0x015c8154        0x4 c:/mingw/bin/../lib/gcc/mingw32/3.4.2/../../../libkernel32.a(dqifs00362.o)
 .idata$4       0x015c8158        0x4 c:/mingw/bin/../lib/gcc/mingw32/3.4.2/../../../libkernel32.a(dqifs00384.o)
 .idata$4       0x015c815c        0x4 c:/mingw/bin/../lib/gcc/mingw32/3.4.2/../../../libkernel32.a(dqifs00421.o)
 .idata$4       0x015c8160        0x4 c:/mingw/bin/../lib/gcc/mingw32/3.4.2/../../../libkernel32.a(dqifs00431.o)
 .idata$4       0x015c8164        0x4 c:/mingw/bin/../lib/gcc/mingw32/3.4.2/../../../libkernel32.a(dqifs00458.o)
 .idata$4       0x015c8168        0x4 c:/mingw/bin/../lib/gcc/mingw32/3.4.2/../../../libkernel32.a(dqifs00490.o)
 .idata$4       0x015c816c        0x4 c:/mingw/bin/../lib/gcc/mingw32/3.4.2/../../../libkernel32.a(dqifs00521.o)
 .idata$4       0x015c8170        0x4 c:/mingw/bin/../lib/gcc/mingw32/3.4.2/../../../libkernel32.a(dqifs00522.o)
 .idata$4       0x015c8174        0x4 c:/mingw/bin/../lib/gcc/mingw32/3.4.2/../../../libkernel32.a(dqifs00595.o)
 .idata$4       0x015c8178        0x4 c:/mingw/bin/../lib/gcc/mingw32/3.4.2/../../../libkernel32.a(dqifs00596.o)
 .idata$4       0x015c817c        0x4 c:/mingw/bin/../lib/gcc/mingw32/3.4.2/../../../libkernel32.a(dqifs00638.o)
 .idata$4       0x015c8180        0x4 c:/mingw/bin/../lib/gcc/mingw32/3.4.2/../../../libkernel32.a(dqifs00695.o)
 .idata$4       0x015c8184        0x4 c:/mingw/bin/../lib/gcc/mingw32/3.4.2/../../../libkernel32.a(dqifs00716.o)
 .idata$4       0x015c8188        0x4 c:/mingw/bin/../lib/gcc/mingw32/3.4.2/../../../libkernel32.a(dqifs00732.o)
 .idata$4       0x015c818c        0x4 c:/mingw/bin/../lib/gcc/mingw32/3.4.2/../../../libkernel32.a(dqifs00736.o)
 .idata$4       0x015c8190        0x4 c:/mingw/bin/../lib/gcc/mingw32/3.4.2/../../../libkernel32.a(dqifs00804.o)
 .idata$4       0x015c8194        0x4 c:/mingw/bin/../lib/gcc/mingw32/3.4.2/../../../libkernel32.a(dqifs00806.o)
 .idata$4       0x015c8198        0x4 c:/mingw/bin/../lib/gcc/mingw32/3.4.2/../../../libkernel32.a(dqift.o)
 .idata$4       0x015c819c        0x4 c:/mingw/bin/../lib/gcc/mingw32/3.4.2/../../../libmoldname.a(duudh.o)
 .idata$4       0x015c81a0        0x4 c:/mingw/bin/../lib/gcc/mingw32/3.4.2/../../../libmoldname.a(duuds00000.o)
 .idata$4       0x015c81a4        0x4 c:/mingw/bin/../lib/gcc/mingw32/3.4.2/../../../libmoldname.a(duuds00002.o)
 .idata$4       0x015c81a8        0x4 c:/mingw/bin/../lib/gcc/mingw32/3.4.2/../../../libmoldname.a(duuds00006.o)
 .idata$4       0x015c81ac        0x4 c:/mingw/bin/../lib/gcc/mingw32/3.4.2/../../../libmoldname.a(duuds00023.o)
 .idata$4       0x015c81b0        0x4 c:/mingw/bin/../lib/gcc/mingw32/3.4.2/../../../libmoldname.a(duuds00026.o)
 .idata$4       0x015c81b4        0x4 c:/mingw/bin/../lib/gcc/mingw32/3.4.2/../../../libmoldname.a(duuds00032.o)
 .idata$4       0x015c81b8        0x4 c:/mingw/bin/../lib/gcc/mingw32/3.4.2/../../../libmoldname.a(duuds00037.o)
 .idata$4       0x015c81bc        0x4 c:/mingw/bin/../lib/gcc/mingw32/3.4.2/../../../libmoldname.a(duuds00051.o)
 .idata$4       0x015c81c0        0x4 c:/mingw/bin/../lib/gcc/mingw32/3.4.2/../../../libmoldname.a(duuds00055.o)
 .idata$4       0x015c81c4        0x4 c:/mingw/bin/../lib/gcc/mingw32/3.4.2/../../../libmoldname.a(duuds00058.o)
 .idata$4       0x015c81c8        0x4 c:/mingw/bin/../lib/gcc/mingw32/3.4.2/../../../libmoldname.a(duuds00064.o)
 .idata$4       0x015c81cc        0x4 c:/mingw/bin/../lib/gcc/mingw32/3.4.2/../../../libmoldname.a(duuds00079.o)
 .idata$4       0x015c81d0        0x4 c:/mingw/bin/../lib/gcc/mingw32/3.4.2/../../../libmoldname.a(duuds00081.o)
 .idata$4       0x015c81d4        0x4 c:/mingw/bin/../lib/gcc/mingw32/3.4.2/../../../libmoldname.a(duuds00110.o)
 .idata$4       0x015c81d8        0x4 c:/mingw/bin/../lib/gcc/mingw32/3.4.2/../../../libmoldname.a(duudt.o)
 .idata$4       0x015c81dc        0x4 c:/mingw/bin/../lib/gcc/mingw32/3.4.2/../../../libmsvcrt.a(dwpdh.o)
 .idata$4       0x015c81e0        0x4 c:/mingw/bin/../lib/gcc/mingw32/3.4.2/../../../libmsvcrt.a(dwpds00039.o)
 .idata$4       0x015c81e4        0x4 c:/mingw/bin/../lib/gcc/mingw32/3.4.2/../../../libmsvcrt.a(dwpds00048.o)
 .idata$4       0x015c81e8        0x4 c:/mingw/bin/../lib/gcc/mingw32/3.4.2/../../../libmsvcrt.a(dwpds00060.o)
 .idata$4       0x015c81ec        0x4 c:/mingw/bin/../lib/gcc/mingw32/3.4.2/../../../libmsvcrt.a(dwpds00062.o)
 .idata$4       0x015c81f0        0x4 c:/mingw/bin/../lib/gcc/mingw32/3.4.2/../../../libmsvcrt.a(dwpds00080.o)
 .idata$4       0x015c81f4        0x4 c:/mingw/bin/../lib/gcc/mingw32/3.4.2/../../../libmsvcrt.a(dwpds00121.o)
 .idata$4       0x015c81f8        0x4 c:/mingw/bin/../lib/gcc/mingw32/3.4.2/../../../libmsvcrt.a(dwpds00152.o)
 .idata$4       0x015c81fc        0x4 c:/mingw/bin/../lib/gcc/mingw32/3.4.2/../../../libmsvcrt.a(dwpds00175.o)
 .idata$4       0x015c8200        0x4 c:/mingw/bin/../lib/gcc/mingw32/3.4.2/../../../libmsvcrt.a(dwpds00176.o)
 .idata$4       0x015c8204        0x4 c:/mingw/bin/../lib/gcc/mingw32/3.4.2/../../../libmsvcrt.a(dwpds00179.o)
 .idata$4       0x015c8208        0x4 c:/mingw/bin/../lib/gcc/mingw32/3.4.2/../../../libmsvcrt.a(dwpds00198.o)
 .idata$4       0x015c820c        0x4 c:/mingw/bin/../lib/gcc/mingw32/3.4.2/../../../libmsvcrt.a(dwpds00207.o)
 .idata$4       0x015c8210        0x4 c:/mingw/bin/../lib/gcc/mingw32/3.4.2/../../../libmsvcrt.a(dwpds00233.o)
 .idata$4       0x015c8214        0x4 c:/mingw/bin/../lib/gcc/mingw32/3.4.2/../../../libmsvcrt.a(dwpds00235.o)
 .idata$4       0x015c8218        0x4 c:/mingw/bin/../lib/gcc/mingw32/3.4.2/../../../libmsvcrt.a(dwpds00280.o)
 .idata$4       0x015c821c        0x4 c:/mingw/bin/../lib/gcc/mingw32/3.4.2/../../../libmsvcrt.a(dwpds00350.o)
 .idata$4       0x015c8220        0x4 c:/mingw/bin/../lib/gcc/mingw32/3.4.2/../../../libmsvcrt.a(dwpds00359.o)
 .idata$4       0x015c8224        0x4 c:/mingw/bin/../lib/gcc/mingw32/3.4.2/../../../libmsvcrt.a(dwpds00388.o)
 .idata$4       0x015c8228        0x4 c:/mingw/bin/../lib/gcc/mingw32/3.4.2/../../../libmsvcrt.a(dwpds00411.o)
 .idata$4       0x015c822c        0x4 c:/mingw/bin/../lib/gcc/mingw32/3.4.2/../../../libmsvcrt.a(dwpds00415.o)
 .idata$4       0x015c8230        0x4 c:/mingw/bin/../lib/gcc/mingw32/3.4.2/../../../libmsvcrt.a(dwpds00445.o)
 .idata$4       0x015c8234        0x4 c:/mingw/bin/../lib/gcc/mingw32/3.4.2/../../../libmsvcrt.a(dwpds00533.o)
 .idata$4       0x015c8238        0x4 c:/mingw/bin/../lib/gcc/mingw32/3.4.2/../../../libmsvcrt.a(dwpds00536.o)
 .idata$4       0x015c823c        0x4 c:/mingw/bin/../lib/gcc/mingw32/3.4.2/../../../libmsvcrt.a(dwpds00540.o)
 .idata$4       0x015c8240        0x4 c:/mingw/bin/../lib/gcc/mingw32/3.4.2/../../../libmsvcrt.a(dwpds00542.o)
 .idata$4       0x015c8244        0x4 c:/mingw/bin/../lib/gcc/mingw32/3.4.2/../../../libmsvcrt.a(dwpds00543.o)
 .idata$4       0x015c8248        0x4 c:/mingw/bin/../lib/gcc/mingw32/3.4.2/../../../libmsvcrt.a(dwpds00545.o)
 .idata$4       0x015c824c        0x4 c:/mingw/bin/../lib/gcc/mingw32/3.4.2/../../../libmsvcrt.a(dwpds00549.o)
 .idata$4       0x015c8250        0x4 c:/mingw/bin/../lib/gcc/mingw32/3.4.2/../../../libmsvcrt.a(dwpds00554.o)
 .idata$4       0x015c8254        0x4 c:/mingw/bin/../lib/gcc/mingw32/3.4.2/../../../libmsvcrt.a(dwpds00557.o)
 .idata$4       0x015c8258        0x4 c:/mingw/bin/../lib/gcc/mingw32/3.4.2/../../../libmsvcrt.a(dwpds00560.o)
 .idata$4       0x015c825c        0x4 c:/mingw/bin/../lib/gcc/mingw32/3.4.2/../../../libmsvcrt.a(dwpds00563.o)
 .idata$4       0x015c8260        0x4 c:/mingw/bin/../lib/gcc/mingw32/3.4.2/../../../libmsvcrt.a(dwpds00566.o)
 .idata$4       0x015c8264        0x4 c:/mingw/bin/../lib/gcc/mingw32/3.4.2/../../../libmsvcrt.a(dwpds00568.o)
 .idata$4       0x015c8268        0x4 c:/mingw/bin/../lib/gcc/mingw32/3.4.2/../../../libmsvcrt.a(dwpds00569.o)
 .idata$4       0x015c826c        0x4 c:/mingw/bin/../lib/gcc/mingw32/3.4.2/../../../libmsvcrt.a(dwpds00570.o)
 .idata$4       0x015c8270        0x4 c:/mingw/bin/../lib/gcc/mingw32/3.4.2/../../../libmsvcrt.a(dwpds00571.o)
 .idata$4       0x015c8274        0x4 c:/mingw/bin/../lib/gcc/mingw32/3.4.2/../../../libmsvcrt.a(dwpds00574.o)
 .idata$4       0x015c8278        0x4 c:/mingw/bin/../lib/gcc/mingw32/3.4.2/../../../libmsvcrt.a(dwpds00575.o)
 .idata$4       0x015c827c        0x4 c:/mingw/bin/../lib/gcc/mingw32/3.4.2/../../../libmsvcrt.a(dwpds00576.o)
 .idata$4       0x015c8280        0x4 c:/mingw/bin/../lib/gcc/mingw32/3.4.2/../../../libmsvcrt.a(dwpds00579.o)
 .idata$4       0x015c8284        0x4 c:/mingw/bin/../lib/gcc/mingw32/3.4.2/../../../libmsvcrt.a(dwpds00581.o)
 .idata$4       0x015c8288        0x4 c:/mingw/bin/../lib/gcc/mingw32/3.4.2/../../../libmsvcrt.a(dwpds00583.o)
 .idata$4       0x015c828c        0x4 c:/mingw/bin/../lib/gcc/mingw32/3.4.2/../../../libmsvcrt.a(dwpds00587.o)
 .idata$4       0x015c8290        0x4 c:/mingw/bin/../lib/gcc/mingw32/3.4.2/../../../libmsvcrt.a(dwpds00622.o)
 .idata$4       0x015c8294        0x4 c:/mingw/bin/../lib/gcc/mingw32/3.4.2/../../../libmsvcrt.a(dwpds00626.o)
 .idata$4       0x015c8298        0x4 c:/mingw/bin/../lib/gcc/mingw32/3.4.2/../../../libmsvcrt.a(dwpds00632.o)
 .idata$4       0x015c829c        0x4 c:/mingw/bin/../lib/gcc/mingw32/3.4.2/../../../libmsvcrt.a(dwpds00633.o)
 .idata$4       0x015c82a0        0x4 c:/mingw/bin/../lib/gcc/mingw32/3.4.2/../../../libmsvcrt.a(dwpds00634.o)
 .idata$4       0x015c82a4        0x4 c:/mingw/bin/../lib/gcc/mingw32/3.4.2/../../../libmsvcrt.a(dwpds00638.o)
 .idata$4       0x015c82a8        0x4 c:/mingw/bin/../lib/gcc/mingw32/3.4.2/../../../libmsvcrt.a(dwpds00639.o)
 .idata$4       0x015c82ac        0x4 c:/mingw/bin/../lib/gcc/mingw32/3.4.2/../../../libmsvcrt.a(dwpds00642.o)
 .idata$4       0x015c82b0        0x4 c:/mingw/bin/../lib/gcc/mingw32/3.4.2/../../../libmsvcrt.a(dwpds00645.o)
 .idata$4       0x015c82b4        0x4 c:/mingw/bin/../lib/gcc/mingw32/3.4.2/../../../libmsvcrt.a(dwpds00647.o)
 .idata$4       0x015c82b8        0x4 c:/mingw/bin/../lib/gcc/mingw32/3.4.2/../../../libmsvcrt.a(dwpds00648.o)
 .idata$4       0x015c82bc        0x4 c:/mingw/bin/../lib/gcc/mingw32/3.4.2/../../../libmsvcrt.a(dwpds00655.o)
 .idata$4       0x015c82c0        0x4 c:/mingw/bin/../lib/gcc/mingw32/3.4.2/../../../libmsvcrt.a(dwpds00656.o)
 .idata$4       0x015c82c4        0x4 c:/mingw/bin/../lib/gcc/mingw32/3.4.2/../../../libmsvcrt.a(dwpds00657.o)
 .idata$4       0x015c82c8        0x4 c:/mingw/bin/../lib/gcc/mingw32/3.4.2/../../../libmsvcrt.a(dwpds00659.o)
 .idata$4       0x015c82cc        0x4 c:/mingw/bin/../lib/gcc/mingw32/3.4.2/../../../libmsvcrt.a(dwpds00660.o)
 .idata$4       0x015c82d0        0x4 c:/mingw/bin/../lib/gcc/mingw32/3.4.2/../../../libmsvcrt.a(dwpds00663.o)
 .idata$4       0x015c82d4        0x4 c:/mingw/bin/../lib/gcc/mingw32/3.4.2/../../../libmsvcrt.a(dwpds00664.o)
 .idata$4       0x015c82d8        0x4 c:/mingw/bin/../lib/gcc/mingw32/3.4.2/../../../libmsvcrt.a(dwpds00665.o)
 .idata$4       0x015c82dc        0x4 c:/mingw/bin/../lib/gcc/mingw32/3.4.2/../../../libmsvcrt.a(dwpds00667.o)
 .idata$4       0x015c82e0        0x4 c:/mingw/bin/../lib/gcc/mingw32/3.4.2/../../../libmsvcrt.a(dwpds00669.o)
 .idata$4       0x015c82e4        0x4 c:/mingw/bin/../lib/gcc/mingw32/3.4.2/../../../libmsvcrt.a(dwpds00671.o)
 .idata$4       0x015c82e8        0x4 c:/mingw/bin/../lib/gcc/mingw32/3.4.2/../../../libmsvcrt.a(dwpds00672.o)
 .idata$4       0x015c82ec        0x4 c:/mingw/bin/../lib/gcc/mingw32/3.4.2/../../../libmsvcrt.a(dwpds00674.o)
 .idata$4       0x015c82f0        0x4 c:/mingw/bin/../lib/gcc/mingw32/3.4.2/../../../libmsvcrt.a(dwpds00676.o)
 .idata$4       0x015c82f4        0x4 c:/mingw/bin/../lib/gcc/mingw32/3.4.2/../../../libmsvcrt.a(dwpds00680.o)
 .idata$4       0x015c82f8        0x4 c:/mingw/bin/../lib/gcc/mingw32/3.4.2/../../../libmsvcrt.a(dwpds00681.o)
 .idata$4       0x015c82fc        0x4 c:/mingw/bin/../lib/gcc/mingw32/3.4.2/../../../libmsvcrt.a(dwpds00682.o)
 .idata$4       0x015c8300        0x4 c:/mingw/bin/../lib/gcc/mingw32/3.4.2/../../../libmsvcrt.a(dwpds00689.o)
 .idata$4       0x015c8304        0x4 c:/mingw/bin/../lib/gcc/mingw32/3.4.2/../../../libmsvcrt.a(dwpds00692.o)
 .idata$4       0x015c8308        0x4 c:/mingw/bin/../lib/gcc/mingw32/3.4.2/../../../libmsvcrt.a(dwpds00693.o)
 .idata$4       0x015c830c        0x4 c:/mingw/bin/../lib/gcc/mingw32/3.4.2/../../../libmsvcrt.a(dwpds00701.o)
 .idata$4       0x015c8310        0x4 c:/mingw/bin/../lib/gcc/mingw32/3.4.2/../../../libmsvcrt.a(dwpdt.o)
 .idata$4       0x015c8314        0x4 c:/mingw/bin/../lib/gcc/mingw32/3.4.2/../../../libshell32.a(dsjeh.o)
 .idata$4       0x015c8318        0x4 c:/mingw/bin/../lib/gcc/mingw32/3.4.2/../../../libshell32.a(dsjes00104.o)
 .idata$4       0x015c831c        0x4 c:/mingw/bin/../lib/gcc/mingw32/3.4.2/../../../libshell32.a(dsjet.o)
 .idata$4       0x015c8320        0x4 c:/mingw/bin/../lib/gcc/mingw32/3.4.2/../../../libuser32.a(dgdfh.o)
 .idata$4       0x015c8324        0x4 c:/mingw/bin/../lib/gcc/mingw32/3.4.2/../../../libuser32.a(dgdfs00001.o)
 .idata$4       0x015c8328        0x4 c:/mingw/bin/../lib/gcc/mingw32/3.4.2/../../../libuser32.a(dgdfs00029.o)
 .idata$4       0x015c832c        0x4 c:/mingw/bin/../lib/gcc/mingw32/3.4.2/../../../libuser32.a(dgdfs00045.o)
 .idata$4       0x015c8330        0x4 c:/mingw/bin/../lib/gcc/mingw32/3.4.2/../../../libuser32.a(dgdfs00079.o)
 .idata$4       0x015c8334        0x4 c:/mingw/bin/../lib/gcc/mingw32/3.4.2/../../../libuser32.a(dgdfs00089.o)
 .idata$4       0x015c8338        0x4 c:/mingw/bin/../lib/gcc/mingw32/3.4.2/../../../libuser32.a(dgdfs00133.o)
 .idata$4       0x015c833c        0x4 c:/mingw/bin/../lib/gcc/mingw32/3.4.2/../../../libuser32.a(dgdfs00143.o)
 .idata$4       0x015c8340        0x4 c:/mingw/bin/../lib/gcc/mingw32/3.4.2/../../../libuser32.a(dgdfs00148.o)
 .idata$4       0x015c8344        0x4 c:/mingw/bin/../lib/gcc/mingw32/3.4.2/../../../libuser32.a(dgdfs00193.o)
 .idata$4       0x015c8348        0x4 c:/mingw/bin/../lib/gcc/mingw32/3.4.2/../../../libuser32.a(dgdfs00235.o)
 .idata$4       0x015c834c        0x4 c:/mingw/bin/../lib/gcc/mingw32/3.4.2/../../../libuser32.a(dgdfs00247.o)
 .idata$4       0x015c8350        0x4 c:/mingw/bin/../lib/gcc/mingw32/3.4.2/../../../libuser32.a(dgdfs00251.o)
 .idata$4       0x015c8354        0x4 c:/mingw/bin/../lib/gcc/mingw32/3.4.2/../../../libuser32.a(dgdfs00252.o)
 .idata$4       0x015c8358        0x4 c:/mingw/bin/../lib/gcc/mingw32/3.4.2/../../../libuser32.a(dgdfs00267.o)
 .idata$4       0x015c835c        0x4 c:/mingw/bin/../lib/gcc/mingw32/3.4.2/../../../libuser32.a(dgdfs00322.o)
 .idata$4       0x015c8360        0x4 c:/mingw/bin/../lib/gcc/mingw32/3.4.2/../../../libuser32.a(dgdfs00323.o)
 .idata$4       0x015c8364        0x4 c:/mingw/bin/../lib/gcc/mingw32/3.4.2/../../../libuser32.a(dgdfs00325.o)
 .idata$4       0x015c8368        0x4 c:/mingw/bin/../lib/gcc/mingw32/3.4.2/../../../libuser32.a(dgdfs00340.o)
 .idata$4       0x015c836c        0x4 c:/mingw/bin/../lib/gcc/mingw32/3.4.2/../../../libuser32.a(dgdfs00346.o)
 .idata$4       0x015c8370        0x4 c:/mingw/bin/../lib/gcc/mingw32/3.4.2/../../../libuser32.a(dgdfs00381.o)
 .idata$4       0x015c8374        0x4 c:/mingw/bin/../lib/gcc/mingw32/3.4.2/../../../libuser32.a(dgdfs00390.o)
 .idata$4       0x015c8378        0x4 c:/mingw/bin/../lib/gcc/mingw32/3.4.2/../../../libuser32.a(dgdfs00399.o)
 .idata$4       0x015c837c        0x4 c:/mingw/bin/../lib/gcc/mingw32/3.4.2/../../../libuser32.a(dgdfs00401.o)
 .idata$4       0x015c8380        0x4 c:/mingw/bin/../lib/gcc/mingw32/3.4.2/../../../libuser32.a(dgdfs00407.o)
 .idata$4       0x015c8384        0x4 c:/mingw/bin/../lib/gcc/mingw32/3.4.2/../../../libuser32.a(dgdfs00430.o)
 .idata$4       0x015c8388        0x4 c:/mingw/bin/../lib/gcc/mingw32/3.4.2/../../../libuser32.a(dgdfs00441.o)
 .idata$4       0x015c838c        0x4 c:/mingw/bin/../lib/gcc/mingw32/3.4.2/../../../libuser32.a(dgdfs00442.o)
 .idata$4       0x015c8390        0x4 c:/mingw/bin/../lib/gcc/mingw32/3.4.2/../../../libuser32.a(dgdfs00460.o)
 .idata$4       0x015c8394        0x4 c:/mingw/bin/../lib/gcc/mingw32/3.4.2/../../../libuser32.a(dgdfs00476.o)
 .idata$4       0x015c8398        0x4 c:/mingw/bin/../lib/gcc/mingw32/3.4.2/../../../libuser32.a(dgdfs00483.o)
 .idata$4       0x015c839c        0x4 c:/mingw/bin/../lib/gcc/mingw32/3.4.2/../../../libuser32.a(dgdfs00488.o)
 .idata$4       0x015c83a0        0x4 c:/mingw/bin/../lib/gcc/mingw32/3.4.2/../../../libuser32.a(dgdfs00499.o)
 .idata$4       0x015c83a4        0x4 c:/mingw/bin/../lib/gcc/mingw32/3.4.2/../../../libuser32.a(dgdfs00502.o)
 .idata$4       0x015c83a8        0x4 c:/mingw/bin/../lib/gcc/mingw32/3.4.2/../../../libuser32.a(dgdfs00527.o)
 .idata$4       0x015c83ac        0x4 c:/mingw/bin/../lib/gcc/mingw32/3.4.2/../../../libuser32.a(dgdfs00528.o)
 .idata$4       0x015c83b0        0x4 c:/mingw/bin/../lib/gcc/mingw32/3.4.2/../../../libuser32.a(dgdfs00552.o)
 .idata$4       0x015c83b4        0x4 c:/mingw/bin/../lib/gcc/mingw32/3.4.2/../../../libuser32.a(dgdfs00563.o)
 .idata$4       0x015c83b8        0x4 c:/mingw/bin/../lib/gcc/mingw32/3.4.2/../../../libuser32.a(dgdfs00566.o)
 .idata$4       0x015c83bc        0x4 c:/mingw/bin/../lib/gcc/mingw32/3.4.2/../../../libuser32.a(dgdfs00568.o)
 .idata$4       0x015c83c0        0x4 c:/mingw/bin/../lib/gcc/mingw32/3.4.2/../../../libuser32.a(dgdfs00579.o)
 .idata$4       0x015c83c4        0x4 c:/mingw/bin/../lib/gcc/mingw32/3.4.2/../../../libuser32.a(dgdfs00602.o)
 .idata$4       0x015c83c8        0x4 c:/mingw/bin/../lib/gcc/mingw32/3.4.2/../../../libuser32.a(dgdfs00612.o)
 .idata$4       0x015c83cc        0x4 c:/mingw/bin/../lib/gcc/mingw32/3.4.2/../../../libuser32.a(dgdfs00614.o)
 .idata$4       0x015c83d0        0x4 c:/mingw/bin/../lib/gcc/mingw32/3.4.2/../../../libuser32.a(dgdfs00633.o)
 .idata$4       0x015c83d4        0x4 c:/mingw/bin/../lib/gcc/mingw32/3.4.2/../../../libuser32.a(dgdft.o)
 .idata$4       0x015c83d8        0x4 c:/mingw/bin/../lib/gcc/mingw32/3.4.2/../../../libwinmm.a(dgtfh.o)
 .idata$4       0x015c83dc        0x4 c:/mingw/bin/../lib/gcc/mingw32/3.4.2/../../../libwinmm.a(dgtfs00074.o)
 .idata$4       0x015c83e0        0x4 c:/mingw/bin/../lib/gcc/mingw32/3.4.2/../../../libwinmm.a(dgtfs00081.o)
 .idata$4       0x015c83e4        0x4 c:/mingw/bin/../lib/gcc/mingw32/3.4.2/../../../libwinmm.a(dgtfs00084.o)
 .idata$4       0x015c83e8        0x4 c:/mingw/bin/../lib/gcc/mingw32/3.4.2/../../../libwinmm.a(dgtfs00087.o)
 .idata$4       0x015c83ec        0x4 c:/mingw/bin/../lib/gcc/mingw32/3.4.2/../../../libwinmm.a(dgtfs00088.o)
 .idata$4       0x015c83f0        0x4 c:/mingw/bin/../lib/gcc/mingw32/3.4.2/../../../libwinmm.a(dgtfs00089.o)
 .idata$4       0x015c83f4        0x4 c:/mingw/bin/../lib/gcc/mingw32/3.4.2/../../../libwinmm.a(dgtfs00090.o)
 .idata$4       0x015c83f8        0x4 c:/mingw/bin/../lib/gcc/mingw32/3.4.2/../../../libwinmm.a(dgtfs00091.o)
 .idata$4       0x015c83fc        0x4 c:/mingw/bin/../lib/gcc/mingw32/3.4.2/../../../libwinmm.a(dgtfs00092.o)
 .idata$4       0x015c8400        0x4 c:/mingw/bin/../lib/gcc/mingw32/3.4.2/../../../libwinmm.a(dgtfs00094.o)
 .idata$4       0x015c8404        0x4 c:/mingw/bin/../lib/gcc/mingw32/3.4.2/../../../libwinmm.a(dgtfs00095.o)
 .idata$4       0x015c8408        0x4 c:/mingw/bin/../lib/gcc/mingw32/3.4.2/../../../libwinmm.a(dgtfs00096.o)
 .idata$4       0x015c840c        0x4 c:/mingw/bin/../lib/gcc/mingw32/3.4.2/../../../libwinmm.a(dgtft.o)
 .idata$4       0x015c8410        0x4 c:/mingw/bin/../lib/gcc/mingw32/3.4.2/../../../libwsock32.a(deoeh.o)
 .idata$4       0x015c8414        0x4 c:/mingw/bin/../lib/gcc/mingw32/3.4.2/../../../libwsock32.a(deoes00025.o)
 .idata$4       0x015c8418        0x4 c:/mingw/bin/../lib/gcc/mingw32/3.4.2/../../../libwsock32.a(deoes00031.o)
 .idata$4       0x015c841c        0x4 c:/mingw/bin/../lib/gcc/mingw32/3.4.2/../../../libwsock32.a(deoes00036.o)
 .idata$4       0x015c8420        0x4 c:/mingw/bin/../lib/gcc/mingw32/3.4.2/../../../libwsock32.a(deoes00037.o)
 .idata$4       0x015c8424        0x4 c:/mingw/bin/../lib/gcc/mingw32/3.4.2/../../../libwsock32.a(deoes00041.o)
 .idata$4       0x015c8428        0x4 c:/mingw/bin/../lib/gcc/mingw32/3.4.2/../../../libwsock32.a(deoes00042.o)
 .idata$4       0x015c842c        0x4 c:/mingw/bin/../lib/gcc/mingw32/3.4.2/../../../libwsock32.a(deoes00052.o)
 .idata$4       0x015c8430        0x4 c:/mingw/bin/../lib/gcc/mingw32/3.4.2/../../../libwsock32.a(deoes00053.o)
 .idata$4       0x015c8434        0x4 c:/mingw/bin/../lib/gcc/mingw32/3.4.2/../../../libwsock32.a(deoes00055.o)
 .idata$4       0x015c8438        0x4 c:/mingw/bin/../lib/gcc/mingw32/3.4.2/../../../libwsock32.a(deoes00056.o)
 .idata$4       0x015c843c        0x4 c:/mingw/bin/../lib/gcc/mingw32/3.4.2/../../../libwsock32.a(deoes00059.o)
 .idata$4       0x015c8440        0x4 c:/mingw/bin/../lib/gcc/mingw32/3.4.2/../../../libwsock32.a(deoes00062.o)
 .idata$4       0x015c8444        0x4 c:/mingw/bin/../lib/gcc/mingw32/3.4.2/../../../libwsock32.a(deoes00068.o)
 .idata$4       0x015c8448        0x4 c:/mingw/bin/../lib/gcc/mingw32/3.4.2/../../../libwsock32.a(deoes00072.o)
 .idata$4       0x015c844c        0x4 c:/mingw/bin/../lib/gcc/mingw32/3.4.2/../../../libwsock32.a(deoet.o)
 SORT(*)(.idata$5)
 .idata$5       0x015c8450        0x4 c:/mingw/bin/../lib/gcc/mingw32/3.4.2/../../../libgdi32.a(deubh.o)
 .idata$5       0x015c8454        0x4 c:/mingw/bin/../lib/gcc/mingw32/3.4.2/../../../libgdi32.a(deubs00012.o)
                0x015c8454                _imp__BitBlt@36
 .idata$5       0x015c8458        0x4 c:/mingw/bin/../lib/gcc/mingw32/3.4.2/../../../libgdi32.a(deubs00015.o)
                0x015c8458                _imp__ChoosePixelFormat@8
 .idata$5       0x015c845c        0x4 c:/mingw/bin/../lib/gcc/mingw32/3.4.2/../../../libgdi32.a(deubs00033.o)
                0x015c845c                _imp__CreateCompatibleDC@4
 .idata$5       0x015c8460        0x4 c:/mingw/bin/../lib/gcc/mingw32/3.4.2/../../../libgdi32.a(deubs00038.o)
                0x015c8460                _imp__CreateDIBSection@24
 .idata$5       0x015c8464        0x4 c:/mingw/bin/../lib/gcc/mingw32/3.4.2/../../../libgdi32.a(deubs00055.o)
                0x015c8464                _imp__CreatePalette@4
 .idata$5       0x015c8468        0x4 c:/mingw/bin/../lib/gcc/mingw32/3.4.2/../../../libgdi32.a(deubs00069.o)
                0x015c8468                _imp__DeleteDC@4
 .idata$5       0x015c846c        0x4 c:/mingw/bin/../lib/gcc/mingw32/3.4.2/../../../libgdi32.a(deubs00072.o)
                0x015c846c                _imp__DeleteObject@4
 .idata$5       0x015c8470        0x4 c:/mingw/bin/../lib/gcc/mingw32/3.4.2/../../../libgdi32.a(deubs00145.o)
                0x015c8470                _imp__GetDeviceCaps@8
 .idata$5       0x015c8474        0x4 c:/mingw/bin/../lib/gcc/mingw32/3.4.2/../../../libgdi32.a(deubs00146.o)
                0x015c8474                _imp__GetDeviceGammaRamp@8
 .idata$5       0x015c8478        0x4 c:/mingw/bin/../lib/gcc/mingw32/3.4.2/../../../libgdi32.a(deubs00256.o)
                0x015c8478                _imp__RealizePalette@4
 .idata$5       0x015c847c        0x4 c:/mingw/bin/../lib/gcc/mingw32/3.4.2/../../../libgdi32.a(deubs00277.o)
                0x015c847c                _imp__SelectObject@8
 .idata$5       0x015c8480        0x4 c:/mingw/bin/../lib/gcc/mingw32/3.4.2/../../../libgdi32.a(deubs00278.o)
                0x015c8480                _imp__SelectPalette@12
 .idata$5       0x015c8484        0x4 c:/mingw/bin/../lib/gcc/mingw32/3.4.2/../../../libgdi32.a(deubs00291.o)
                0x015c8484                _imp__SetDIBColorTable@16
 .idata$5       0x015c8488        0x4 c:/mingw/bin/../lib/gcc/mingw32/3.4.2/../../../libgdi32.a(deubs00294.o)
                0x015c8488                _imp__SetDeviceGammaRamp@8
 .idata$5       0x015c848c        0x4 c:/mingw/bin/../lib/gcc/mingw32/3.4.2/../../../libgdi32.a(deubs00306.o)
                0x015c848c                _imp__SetPaletteEntries@16
 .idata$5       0x015c8490        0x4 c:/mingw/bin/../lib/gcc/mingw32/3.4.2/../../../libgdi32.a(deubs00308.o)
                0x015c8490                _imp__SetPixelFormat@12
 .idata$5       0x015c8494        0x4 c:/mingw/bin/../lib/gcc/mingw32/3.4.2/../../../libgdi32.a(deubs00315.o)
                0x015c8494                _imp__SetSystemPaletteUse@8
 .idata$5       0x015c8498        0x4 c:/mingw/bin/../lib/gcc/mingw32/3.4.2/../../../libgdi32.a(deubt.o)
 .idata$5       0x015c849c        0x4 c:/mingw/bin/../lib/gcc/mingw32/3.4.2/../../../libkernel32.a(dqifh.o)
 .idata$5       0x015c84a0        0x4 c:/mingw/bin/../lib/gcc/mingw32/3.4.2/../../../libkernel32.a(dqifs00001.o)
                0x015c84a0                _imp__AddAtomA@4
 .idata$5       0x015c84a4        0x4 c:/mingw/bin/../lib/gcc/mingw32/3.4.2/../../../libkernel32.a(dqifs00038.o)
                0x015c84a4                _imp__CloseHandle@4
 .idata$5       0x015c84a8        0x4 c:/mingw/bin/../lib/gcc/mingw32/3.4.2/../../../libkernel32.a(dqifs00064.o)
                0x015c84a8                _imp__CreateEventA@16
 .idata$5       0x015c84ac        0x4 c:/mingw/bin/../lib/gcc/mingw32/3.4.2/../../../libkernel32.a(dqifs00087.o)
                0x015c84ac                _imp__CreateSemaphoreA@16
 .idata$5       0x015c84b0        0x4 c:/mingw/bin/../lib/gcc/mingw32/3.4.2/../../../libkernel32.a(dqifs00090.o)
                0x015c84b0                _imp__CreateThread@24
 .idata$5       0x015c84b4        0x4 c:/mingw/bin/../lib/gcc/mingw32/3.4.2/../../../libkernel32.a(dqifs00125.o)
                0x015c84b4                _imp__EnterCriticalSection@4
 .idata$5       0x015c84b8        0x4 c:/mingw/bin/../lib/gcc/mingw32/3.4.2/../../../libkernel32.a(dqifs00155.o)
                0x015c84b8                _imp__ExitProcess@4
 .idata$5       0x015c84bc        0x4 c:/mingw/bin/../lib/gcc/mingw32/3.4.2/../../../libkernel32.a(dqifs00175.o)
                0x015c84bc                _imp__FindAtomA@4
 .idata$5       0x015c84c0        0x4 c:/mingw/bin/../lib/gcc/mingw32/3.4.2/../../../libkernel32.a(dqifs00177.o)
                0x015c84c0                _imp__FindClose@4
 .idata$5       0x015c84c4        0x4 c:/mingw/bin/../lib/gcc/mingw32/3.4.2/../../../libkernel32.a(dqifs00181.o)
                0x015c84c4                _imp__FindFirstFileA@8
 .idata$5       0x015c84c8        0x4 c:/mingw/bin/../lib/gcc/mingw32/3.4.2/../../../libkernel32.a(dqifs00190.o)
                0x015c84c8                _imp__FindNextFileA@8
 .idata$5       0x015c84cc        0x4 c:/mingw/bin/../lib/gcc/mingw32/3.4.2/../../../libkernel32.a(dqifs00208.o)
                0x015c84cc                _imp__FormatMessageA@28
 .idata$5       0x015c84d0        0x4 c:/mingw/bin/../lib/gcc/mingw32/3.4.2/../../../libkernel32.a(dqifs00213.o)
                0x015c84d0                _imp__FreeLibrary@4
 .idata$5       0x015c84d4        0x4 c:/mingw/bin/../lib/gcc/mingw32/3.4.2/../../../libkernel32.a(dqifs00220.o)
                0x015c84d4                _imp__GetAtomNameA@12
 .idata$5       0x015c84d8        0x4 c:/mingw/bin/../lib/gcc/mingw32/3.4.2/../../../libkernel32.a(dqifs00236.o)
                0x015c84d8                _imp__GetCommandLineA@0
 .idata$5       0x015c84dc        0x4 c:/mingw/bin/../lib/gcc/mingw32/3.4.2/../../../libkernel32.a(dqifs00281.o)
                0x015c84dc                _imp__GetCurrentProcess@0
 .idata$5       0x015c84e0        0x4 c:/mingw/bin/../lib/gcc/mingw32/3.4.2/../../../libkernel32.a(dqifs00306.o)
                0x015c84e0                _imp__GetFileAttributesA@4
 .idata$5       0x015c84e4        0x4 c:/mingw/bin/../lib/gcc/mingw32/3.4.2/../../../libkernel32.a(dqifs00323.o)
                0x015c84e4                _imp__GetLastError@0
 .idata$5       0x015c84e8        0x4 c:/mingw/bin/../lib/gcc/mingw32/3.4.2/../../../libkernel32.a(dqifs00329.o)
                0x015c84e8                _imp__GetLogicalDrives@0
 .idata$5       0x015c84ec        0x4 c:/mingw/bin/../lib/gcc/mingw32/3.4.2/../../../libkernel32.a(dqifs00335.o)
                0x015c84ec                _imp__GetModuleHandleA@4
 .idata$5       0x015c84f0        0x4 c:/mingw/bin/../lib/gcc/mingw32/3.4.2/../../../libkernel32.a(dqifs00362.o)
                0x015c84f0                _imp__GetProcAddress@8
 .idata$5       0x015c84f4        0x4 c:/mingw/bin/../lib/gcc/mingw32/3.4.2/../../../libkernel32.a(dqifs00384.o)
                0x015c84f4                _imp__GetStartupInfoA@4
 .idata$5       0x015c84f8        0x4 c:/mingw/bin/../lib/gcc/mingw32/3.4.2/../../../libkernel32.a(dqifs00421.o)
                0x015c84f8                _imp__GetTickCount@0
 .idata$5       0x015c84fc        0x4 c:/mingw/bin/../lib/gcc/mingw32/3.4.2/../../../libkernel32.a(dqifs00431.o)
                0x015c84fc                _imp__GetVersionExA@4
 .idata$5       0x015c8500        0x4 c:/mingw/bin/../lib/gcc/mingw32/3.4.2/../../../libkernel32.a(dqifs00458.o)
                0x015c8500                _imp__GlobalMemoryStatus@4
 .idata$5       0x015c8504        0x4 c:/mingw/bin/../lib/gcc/mingw32/3.4.2/../../../libkernel32.a(dqifs00490.o)
                0x015c8504                _imp__InitializeCriticalSection@4
 .idata$5       0x015c8508        0x4 c:/mingw/bin/../lib/gcc/mingw32/3.4.2/../../../libkernel32.a(dqifs00521.o)
                0x015c8508                _imp__LeaveCriticalSection@4
 .idata$5       0x015c850c        0x4 c:/mingw/bin/../lib/gcc/mingw32/3.4.2/../../../libkernel32.a(dqifs00522.o)
                0x015c850c                _imp__LoadLibraryA@4
 .idata$5       0x015c8510        0x4 c:/mingw/bin/../lib/gcc/mingw32/3.4.2/../../../libkernel32.a(dqifs00595.o)
                0x015c8510                _imp__QueryPerformanceCounter@4
 .idata$5       0x015c8514        0x4 c:/mingw/bin/../lib/gcc/mingw32/3.4.2/../../../libkernel32.a(dqifs00596.o)
                0x015c8514                _imp__QueryPerformanceFrequency@4
 .idata$5       0x015c8518        0x4 c:/mingw/bin/../lib/gcc/mingw32/3.4.2/../../../libkernel32.a(dqifs00638.o)
                0x015c8518                _imp__ResumeThread@4
 .idata$5       0x015c851c        0x4 c:/mingw/bin/../lib/gcc/mingw32/3.4.2/../../../libkernel32.a(dqifs00695.o)
                0x015c851c                _imp__SetEvent@4
 .idata$5       0x015c8520        0x4 c:/mingw/bin/../lib/gcc/mingw32/3.4.2/../../../libkernel32.a(dqifs00716.o)
                0x015c8520                _imp__SetPriorityClass@8
 .idata$5       0x015c8524        0x4 c:/mingw/bin/../lib/gcc/mingw32/3.4.2/../../../libkernel32.a(dqifs00732.o)
                0x015c8524                _imp__SetThreadPriority@8
 .idata$5       0x015c8528        0x4 c:/mingw/bin/../lib/gcc/mingw32/3.4.2/../../../libkernel32.a(dqifs00736.o)
                0x015c8528                _imp__SetUnhandledExceptionFilter@4
 .idata$5       0x015c852c        0x4 c:/mingw/bin/../lib/gcc/mingw32/3.4.2/../../../libkernel32.a(dqifs00804.o)
                0x015c852c                _imp__WaitForMultipleObjects@16
 .idata$5       0x015c8530        0x4 c:/mingw/bin/../lib/gcc/mingw32/3.4.2/../../../libkernel32.a(dqifs00806.o)
                0x015c8530                _imp__WaitForSingleObject@8
 .idata$5       0x015c8534        0x4 c:/mingw/bin/../lib/gcc/mingw32/3.4.2/../../../libkernel32.a(dqift.o)
 .idata$5       0x015c8538        0x4 c:/mingw/bin/../lib/gcc/mingw32/3.4.2/../../../libmoldname.a(duudh.o)
 .idata$5       0x015c853c        0x4 c:/mingw/bin/../lib/gcc/mingw32/3.4.2/../../../libmoldname.a(duuds00000.o)
                0x015c853c                _imp__access
 .idata$5       0x015c8540        0x4 c:/mingw/bin/../lib/gcc/mingw32/3.4.2/../../../libmoldname.a(duuds00002.o)
                0x015c8540                _imp__chdir
 .idata$5       0x015c8544        0x4 c:/mingw/bin/../lib/gcc/mingw32/3.4.2/../../../libmoldname.a(duuds00006.o)
                0x015c8544                _imp__close
 .idata$5       0x015c8548        0x4 c:/mingw/bin/../lib/gcc/mingw32/3.4.2/../../../libmoldname.a(duuds00023.o)
                0x015c8548                _imp__fdopen
 .idata$5       0x015c854c        0x4 c:/mingw/bin/../lib/gcc/mingw32/3.4.2/../../../libmoldname.a(duuds00026.o)
                0x015c854c                _imp__filelength
 .idata$5       0x015c8550        0x4 c:/mingw/bin/../lib/gcc/mingw32/3.4.2/../../../libmoldname.a(duuds00032.o)
                0x015c8550                _imp__fstat
 .idata$5       0x015c8554        0x4 c:/mingw/bin/../lib/gcc/mingw32/3.4.2/../../../libmoldname.a(duuds00037.o)
                0x015c8554                _imp__getcwd
 .idata$5       0x015c8558        0x4 c:/mingw/bin/../lib/gcc/mingw32/3.4.2/../../../libmoldname.a(duuds00051.o)
                0x015c8558                _imp__lseek
 .idata$5       0x015c855c        0x4 c:/mingw/bin/../lib/gcc/mingw32/3.4.2/../../../libmoldname.a(duuds00055.o)
                0x015c855c                _imp__mkdir
 .idata$5       0x015c8560        0x4 c:/mingw/bin/../lib/gcc/mingw32/3.4.2/../../../libmoldname.a(duuds00058.o)
                0x015c8560                _imp__open
 .idata$5       0x015c8564        0x4 c:/mingw/bin/../lib/gcc/mingw32/3.4.2/../../../libmoldname.a(duuds00064.o)
                0x015c8564                _imp__read
 .idata$5       0x015c8568        0x4 c:/mingw/bin/../lib/gcc/mingw32/3.4.2/../../../libmoldname.a(duuds00079.o)
                0x015c8568                _imp__stat
 .idata$5       0x015c856c        0x4 c:/mingw/bin/../lib/gcc/mingw32/3.4.2/../../../libmoldname.a(duuds00081.o)
                0x015c856c                _imp__strdup
 .idata$5       0x015c8570        0x4 c:/mingw/bin/../lib/gcc/mingw32/3.4.2/../../../libmoldname.a(duuds00110.o)
                0x015c8570                _imp__write
 .idata$5       0x015c8574        0x4 c:/mingw/bin/../lib/gcc/mingw32/3.4.2/../../../libmoldname.a(duudt.o)
 .idata$5       0x015c8578        0x4 c:/mingw/bin/../lib/gcc/mingw32/3.4.2/../../../libmsvcrt.a(dwpdh.o)
 .idata$5       0x015c857c        0x4 c:/mingw/bin/../lib/gcc/mingw32/3.4.2/../../../libmsvcrt.a(dwpds00039.o)
                0x015c857c                _imp____getmainargs
 .idata$5       0x015c8580        0x4 c:/mingw/bin/../lib/gcc/mingw32/3.4.2/../../../libmsvcrt.a(dwpds00048.o)
                0x015c8580                _imp____mb_cur_max
 .idata$5       0x015c8584        0x4 c:/mingw/bin/../lib/gcc/mingw32/3.4.2/../../../libmsvcrt.a(dwpds00060.o)
                0x015c8584                _imp____p__environ
 .idata$5       0x015c8588        0x4 c:/mingw/bin/../lib/gcc/mingw32/3.4.2/../../../libmsvcrt.a(dwpds00062.o)
                0x015c8588                _imp____p__fmode
 .idata$5       0x015c858c        0x4 c:/mingw/bin/../lib/gcc/mingw32/3.4.2/../../../libmsvcrt.a(dwpds00080.o)
                0x015c858c                _imp____set_app_type
 .idata$5       0x015c8590        0x4 c:/mingw/bin/../lib/gcc/mingw32/3.4.2/../../../libmsvcrt.a(dwpds00121.o)
                0x015c8590                _imp___cexit
 .idata$5       0x015c8594        0x4 c:/mingw/bin/../lib/gcc/mingw32/3.4.2/../../../libmsvcrt.a(dwpds00152.o)
                0x015c8594                _imp___errno
 .idata$5       0x015c8598        0x4 c:/mingw/bin/../lib/gcc/mingw32/3.4.2/../../../libmsvcrt.a(dwpds00175.o)
                0x015c8598                _imp___findclose
 .idata$5       0x015c859c        0x4 c:/mingw/bin/../lib/gcc/mingw32/3.4.2/../../../libmsvcrt.a(dwpds00176.o)
                0x015c859c                _imp___findfirst
 .idata$5       0x015c85a0        0x4 c:/mingw/bin/../lib/gcc/mingw32/3.4.2/../../../libmsvcrt.a(dwpds00179.o)
                0x015c85a0                _imp___findnext
 .idata$5       0x015c85a4        0x4 c:/mingw/bin/../lib/gcc/mingw32/3.4.2/../../../libmsvcrt.a(dwpds00198.o)
                0x015c85a4                _imp___fullpath
 .idata$5       0x015c85a8        0x4 c:/mingw/bin/../lib/gcc/mingw32/3.4.2/../../../libmsvcrt.a(dwpds00207.o)
                0x015c85a8                _imp___getdcwd
 .idata$5       0x015c85ac        0x4 c:/mingw/bin/../lib/gcc/mingw32/3.4.2/../../../libmsvcrt.a(dwpds00233.o)
                0x015c85ac                _imp___iob
 .idata$5       0x015c85b0        0x4 c:/mingw/bin/../lib/gcc/mingw32/3.4.2/../../../libmsvcrt.a(dwpds00235.o)
                0x015c85b0                _imp___isctype
 .idata$5       0x015c85b4        0x4 c:/mingw/bin/../lib/gcc/mingw32/3.4.2/../../../libmsvcrt.a(dwpds00280.o)
                0x015c85b4                _imp___lrotl
 .idata$5       0x015c85b8        0x4 c:/mingw/bin/../lib/gcc/mingw32/3.4.2/../../../libmsvcrt.a(dwpds00350.o)
                0x015c85b8                _imp___onexit
 .idata$5       0x015c85bc        0x4 c:/mingw/bin/../lib/gcc/mingw32/3.4.2/../../../libmsvcrt.a(dwpds00359.o)
                0x015c85bc                _imp___pctype
 .idata$5       0x015c85c0        0x4 c:/mingw/bin/../lib/gcc/mingw32/3.4.2/../../../libmsvcrt.a(dwpds00388.o)
                0x015c85c0                _imp___setmode
 .idata$5       0x015c85c4        0x4 c:/mingw/bin/../lib/gcc/mingw32/3.4.2/../../../libmsvcrt.a(dwpds00411.o)
                0x015c85c4                _imp___stricmp
 .idata$5       0x015c85c8        0x4 c:/mingw/bin/../lib/gcc/mingw32/3.4.2/../../../libmsvcrt.a(dwpds00415.o)
                0x015c85c8                _imp___strnicmp
 .idata$5       0x015c85cc        0x4 c:/mingw/bin/../lib/gcc/mingw32/3.4.2/../../../libmsvcrt.a(dwpds00445.o)
                0x015c85cc                _imp___vsnprintf
 .idata$5       0x015c85d0        0x4 c:/mingw/bin/../lib/gcc/mingw32/3.4.2/../../../libmsvcrt.a(dwpds00533.o)
                0x015c85d0                _imp__abort
 .idata$5       0x015c85d4        0x4 c:/mingw/bin/../lib/gcc/mingw32/3.4.2/../../../libmsvcrt.a(dwpds00536.o)
                0x015c85d4                _imp__asctime
 .idata$5       0x015c85d8        0x4 c:/mingw/bin/../lib/gcc/mingw32/3.4.2/../../../libmsvcrt.a(dwpds00540.o)
                0x015c85d8                _imp__atexit
 .idata$5       0x015c85dc        0x4 c:/mingw/bin/../lib/gcc/mingw32/3.4.2/../../../libmsvcrt.a(dwpds00542.o)
                0x015c85dc                _imp__atoi
 .idata$5       0x015c85e0        0x4 c:/mingw/bin/../lib/gcc/mingw32/3.4.2/../../../libmsvcrt.a(dwpds00543.o)
                0x015c85e0                _imp__atol
 .idata$5       0x015c85e4        0x4 c:/mingw/bin/../lib/gcc/mingw32/3.4.2/../../../libmsvcrt.a(dwpds00545.o)
                0x015c85e4                _imp__calloc
 .idata$5       0x015c85e8        0x4 c:/mingw/bin/../lib/gcc/mingw32/3.4.2/../../../libmsvcrt.a(dwpds00549.o)
                0x015c85e8                _imp__cos
 .idata$5       0x015c85ec        0x4 c:/mingw/bin/../lib/gcc/mingw32/3.4.2/../../../libmsvcrt.a(dwpds00554.o)
                0x015c85ec                _imp__exit
 .idata$5       0x015c85f0        0x4 c:/mingw/bin/../lib/gcc/mingw32/3.4.2/../../../libmsvcrt.a(dwpds00557.o)
                0x015c85f0                _imp__fclose
 .idata$5       0x015c85f4        0x4 c:/mingw/bin/../lib/gcc/mingw32/3.4.2/../../../libmsvcrt.a(dwpds00560.o)
                0x015c85f4                _imp__fflush
 .idata$5       0x015c85f8        0x4 c:/mingw/bin/../lib/gcc/mingw32/3.4.2/../../../libmsvcrt.a(dwpds00563.o)
                0x015c85f8                _imp__fgets
 .idata$5       0x015c85fc        0x4 c:/mingw/bin/../lib/gcc/mingw32/3.4.2/../../../libmsvcrt.a(dwpds00566.o)
                0x015c85fc                _imp__floor
 .idata$5       0x015c8600        0x4 c:/mingw/bin/../lib/gcc/mingw32/3.4.2/../../../libmsvcrt.a(dwpds00568.o)
                0x015c8600                _imp__fopen
 .idata$5       0x015c8604        0x4 c:/mingw/bin/../lib/gcc/mingw32/3.4.2/../../../libmsvcrt.a(dwpds00569.o)
                0x015c8604                _imp__fprintf
 .idata$5       0x015c8608        0x4 c:/mingw/bin/../lib/gcc/mingw32/3.4.2/../../../libmsvcrt.a(dwpds00570.o)
                0x015c8608                _imp__fputc
 .idata$5       0x015c860c        0x4 c:/mingw/bin/../lib/gcc/mingw32/3.4.2/../../../libmsvcrt.a(dwpds00571.o)
                0x015c860c                _imp__fputs
 .idata$5       0x015c8610        0x4 c:/mingw/bin/../lib/gcc/mingw32/3.4.2/../../../libmsvcrt.a(dwpds00574.o)
                0x015c8610                _imp__fread
 .idata$5       0x015c8614        0x4 c:/mingw/bin/../lib/gcc/mingw32/3.4.2/../../../libmsvcrt.a(dwpds00575.o)
                0x015c8614                _imp__free
 .idata$5       0x015c8618        0x4 c:/mingw/bin/../lib/gcc/mingw32/3.4.2/../../../libmsvcrt.a(dwpds00576.o)
                0x015c8618                _imp__freopen
 .idata$5       0x015c861c        0x4 c:/mingw/bin/../lib/gcc/mingw32/3.4.2/../../../libmsvcrt.a(dwpds00579.o)
                0x015c861c                _imp__fseek
 .idata$5       0x015c8620        0x4 c:/mingw/bin/../lib/gcc/mingw32/3.4.2/../../../libmsvcrt.a(dwpds00581.o)
                0x015c8620                _imp__ftell
 .idata$5       0x015c8624        0x4 c:/mingw/bin/../lib/gcc/mingw32/3.4.2/../../../libmsvcrt.a(dwpds00583.o)
                0x015c8624                _imp__fwrite
 .idata$5       0x015c8628        0x4 c:/mingw/bin/../lib/gcc/mingw32/3.4.2/../../../libmsvcrt.a(dwpds00587.o)
                0x015c8628                _imp__getenv
 .idata$5       0x015c862c        0x4 c:/mingw/bin/../lib/gcc/mingw32/3.4.2/../../../libmsvcrt.a(dwpds00622.o)
                0x015c862c                _imp__localtime
 .idata$5       0x015c8630        0x4 c:/mingw/bin/../lib/gcc/mingw32/3.4.2/../../../libmsvcrt.a(dwpds00626.o)
                0x015c8630                _imp__malloc
 .idata$5       0x015c8634        0x4 c:/mingw/bin/../lib/gcc/mingw32/3.4.2/../../../libmsvcrt.a(dwpds00632.o)
                0x015c8634                _imp__memcpy
 .idata$5       0x015c8638        0x4 c:/mingw/bin/../lib/gcc/mingw32/3.4.2/../../../libmsvcrt.a(dwpds00633.o)
                0x015c8638                _imp__memmove
 .idata$5       0x015c863c        0x4 c:/mingw/bin/../lib/gcc/mingw32/3.4.2/../../../libmsvcrt.a(dwpds00634.o)
                0x015c863c                _imp__memset
 .idata$5       0x015c8640        0x4 c:/mingw/bin/../lib/gcc/mingw32/3.4.2/../../../libmsvcrt.a(dwpds00638.o)
                0x015c8640                _imp__pow
 .idata$5       0x015c8644        0x4 c:/mingw/bin/../lib/gcc/mingw32/3.4.2/../../../libmsvcrt.a(dwpds00639.o)
                0x015c8644                _imp__printf
 .idata$5       0x015c8648        0x4 c:/mingw/bin/../lib/gcc/mingw32/3.4.2/../../../libmsvcrt.a(dwpds00642.o)
                0x015c8648                _imp__puts
 .idata$5       0x015c864c        0x4 c:/mingw/bin/../lib/gcc/mingw32/3.4.2/../../../libmsvcrt.a(dwpds00645.o)
                0x015c864c                _imp__qsort
 .idata$5       0x015c8650        0x4 c:/mingw/bin/../lib/gcc/mingw32/3.4.2/../../../libmsvcrt.a(dwpds00647.o)
                0x015c8650                _imp__rand
 .idata$5       0x015c8654        0x4 c:/mingw/bin/../lib/gcc/mingw32/3.4.2/../../../libmsvcrt.a(dwpds00648.o)
                0x015c8654                _imp__realloc
 .idata$5       0x015c8658        0x4 c:/mingw/bin/../lib/gcc/mingw32/3.4.2/../../../libmsvcrt.a(dwpds00655.o)
                0x015c8658                _imp__setvbuf
 .idata$5       0x015c865c        0x4 c:/mingw/bin/../lib/gcc/mingw32/3.4.2/../../../libmsvcrt.a(dwpds00656.o)
                0x015c865c                _imp__signal
 .idata$5       0x015c8660        0x4 c:/mingw/bin/../lib/gcc/mingw32/3.4.2/../../../libmsvcrt.a(dwpds00657.o)
                0x015c8660                _imp__sin
 .idata$5       0x015c8664        0x4 c:/mingw/bin/../lib/gcc/mingw32/3.4.2/../../../libmsvcrt.a(dwpds00659.o)
                0x015c8664                _imp__sprintf
 .idata$5       0x015c8668        0x4 c:/mingw/bin/../lib/gcc/mingw32/3.4.2/../../../libmsvcrt.a(dwpds00660.o)
                0x015c8668                _imp__sqrt
 .idata$5       0x015c866c        0x4 c:/mingw/bin/../lib/gcc/mingw32/3.4.2/../../../libmsvcrt.a(dwpds00663.o)
                0x015c866c                _imp__strcat
 .idata$5       0x015c8670        0x4 c:/mingw/bin/../lib/gcc/mingw32/3.4.2/../../../libmsvcrt.a(dwpds00664.o)
                0x015c8670                _imp__strchr
 .idata$5       0x015c8674        0x4 c:/mingw/bin/../lib/gcc/mingw32/3.4.2/../../../libmsvcrt.a(dwpds00665.o)
                0x015c8674                _imp__strcmp
 .idata$5       0x015c8678        0x4 c:/mingw/bin/../lib/gcc/mingw32/3.4.2/../../../libmsvcrt.a(dwpds00667.o)
                0x015c8678                _imp__strcpy
 .idata$5       0x015c867c        0x4 c:/mingw/bin/../lib/gcc/mingw32/3.4.2/../../../libmsvcrt.a(dwpds00669.o)
                0x015c867c                _imp__strerror
 .idata$5       0x015c8680        0x4 c:/mingw/bin/../lib/gcc/mingw32/3.4.2/../../../libmsvcrt.a(dwpds00671.o)
                0x015c8680                _imp__strlen
 .idata$5       0x015c8684        0x4 c:/mingw/bin/../lib/gcc/mingw32/3.4.2/../../../libmsvcrt.a(dwpds00672.o)
                0x015c8684                _imp__strncat
 .idata$5       0x015c8688        0x4 c:/mingw/bin/../lib/gcc/mingw32/3.4.2/../../../libmsvcrt.a(dwpds00674.o)
                0x015c8688                _imp__strncpy
 .idata$5       0x015c868c        0x4 c:/mingw/bin/../lib/gcc/mingw32/3.4.2/../../../libmsvcrt.a(dwpds00676.o)
                0x015c868c                _imp__strrchr
 .idata$5       0x015c8690        0x4 c:/mingw/bin/../lib/gcc/mingw32/3.4.2/../../../libmsvcrt.a(dwpds00680.o)
                0x015c8690                _imp__strtok
 .idata$5       0x015c8694        0x4 c:/mingw/bin/../lib/gcc/mingw32/3.4.2/../../../libmsvcrt.a(dwpds00681.o)
                0x015c8694                _imp__strtol
 .idata$5       0x015c8698        0x4 c:/mingw/bin/../lib/gcc/mingw32/3.4.2/../../../libmsvcrt.a(dwpds00682.o)
                0x015c8698                _imp__strtoul
 .idata$5       0x015c869c        0x4 c:/mingw/bin/../lib/gcc/mingw32/3.4.2/../../../libmsvcrt.a(dwpds00689.o)
                0x015c869c                _imp__time
 .idata$5       0x015c86a0        0x4 c:/mingw/bin/../lib/gcc/mingw32/3.4.2/../../../libmsvcrt.a(dwpds00692.o)
                0x015c86a0                _imp__tolower
 .idata$5       0x015c86a4        0x4 c:/mingw/bin/../lib/gcc/mingw32/3.4.2/../../../libmsvcrt.a(dwpds00693.o)
                0x015c86a4                _imp__toupper
 .idata$5       0x015c86a8        0x4 c:/mingw/bin/../lib/gcc/mingw32/3.4.2/../../../libmsvcrt.a(dwpds00701.o)
                0x015c86a8                _imp__vsprintf
 .idata$5       0x015c86ac        0x4 c:/mingw/bin/../lib/gcc/mingw32/3.4.2/../../../libmsvcrt.a(dwpdt.o)
 .idata$5       0x015c86b0        0x4 c:/mingw/bin/../lib/gcc/mingw32/3.4.2/../../../libshell32.a(dsjeh.o)
 .idata$5       0x015c86b4        0x4 c:/mingw/bin/../lib/gcc/mingw32/3.4.2/../../../libshell32.a(dsjes00104.o)
                0x015c86b4                _imp__SHGetSpecialFolderPathA@16
 .idata$5       0x015c86b8        0x4 c:/mingw/bin/../lib/gcc/mingw32/3.4.2/../../../libshell32.a(dsjet.o)
 .idata$5       0x015c86bc        0x4 c:/mingw/bin/../lib/gcc/mingw32/3.4.2/../../../libuser32.a(dgdfh.o)
 .idata$5       0x015c86c0        0x4 c:/mingw/bin/../lib/gcc/mingw32/3.4.2/../../../libuser32.a(dgdfs00001.o)
                0x015c86c0                _imp__AdjustWindowRect@12
 .idata$5       0x015c86c4        0x4 c:/mingw/bin/../lib/gcc/mingw32/3.4.2/../../../libuser32.a(dgdfs00029.o)
                0x015c86c4                _imp__ChangeDisplaySettingsA@8
 .idata$5       0x015c86c8        0x4 c:/mingw/bin/../lib/gcc/mingw32/3.4.2/../../../libuser32.a(dgdfs00045.o)
                0x015c86c8                _imp__CharToOemA@8
 .idata$5       0x015c86cc        0x4 c:/mingw/bin/../lib/gcc/mingw32/3.4.2/../../../libuser32.a(dgdfs00079.o)
                0x015c86cc                _imp__CreateDialogParamA@20
 .idata$5       0x015c86d0        0x4 c:/mingw/bin/../lib/gcc/mingw32/3.4.2/../../../libuser32.a(dgdfs00089.o)
                0x015c86d0                _imp__CreateWindowExA@48
 .idata$5       0x015c86d4        0x4 c:/mingw/bin/../lib/gcc/mingw32/3.4.2/../../../libuser32.a(dgdfs00133.o)
                0x015c86d4                _imp__DefWindowProcA@16
 .idata$5       0x015c86d8        0x4 c:/mingw/bin/../lib/gcc/mingw32/3.4.2/../../../libuser32.a(dgdfs00143.o)
                0x015c86d8                _imp__DestroyWindow@4
 .idata$5       0x015c86dc        0x4 c:/mingw/bin/../lib/gcc/mingw32/3.4.2/../../../libuser32.a(dgdfs00148.o)
                0x015c86dc                _imp__DispatchMessageA@4
 .idata$5       0x015c86e0        0x4 c:/mingw/bin/../lib/gcc/mingw32/3.4.2/../../../libuser32.a(dgdfs00193.o)
                0x015c86e0                _imp__EnumDisplaySettingsA@12
 .idata$5       0x015c86e4        0x4 c:/mingw/bin/../lib/gcc/mingw32/3.4.2/../../../libuser32.a(dgdfs00235.o)
                0x015c86e4                _imp__GetClientRect@8
 .idata$5       0x015c86e8        0x4 c:/mingw/bin/../lib/gcc/mingw32/3.4.2/../../../libuser32.a(dgdfs00247.o)
                0x015c86e8                _imp__GetDC@4
 .idata$5       0x015c86ec        0x4 c:/mingw/bin/../lib/gcc/mingw32/3.4.2/../../../libuser32.a(dgdfs00251.o)
                0x015c86ec                _imp__GetDlgCtrlID@4
 .idata$5       0x015c86f0        0x4 c:/mingw/bin/../lib/gcc/mingw32/3.4.2/../../../libuser32.a(dgdfs00252.o)
                0x015c86f0                _imp__GetDlgItem@8
 .idata$5       0x015c86f4        0x4 c:/mingw/bin/../lib/gcc/mingw32/3.4.2/../../../libuser32.a(dgdfs00267.o)
                0x015c86f4                _imp__GetKeyState@4
 .idata$5       0x015c86f8        0x4 c:/mingw/bin/../lib/gcc/mingw32/3.4.2/../../../libuser32.a(dgdfs00322.o)
                0x015c86f8                _imp__GetSysColor@4
 .idata$5       0x015c86fc        0x4 c:/mingw/bin/../lib/gcc/mingw32/3.4.2/../../../libuser32.a(dgdfs00323.o)
                0x015c86fc                _imp__GetSysColorBrush@4
 .idata$5       0x015c8700        0x4 c:/mingw/bin/../lib/gcc/mingw32/3.4.2/../../../libuser32.a(dgdfs00325.o)
                0x015c8700                _imp__GetSystemMetrics@4
 .idata$5       0x015c8704        0x4 c:/mingw/bin/../lib/gcc/mingw32/3.4.2/../../../libuser32.a(dgdfs00340.o)
                0x015c8704                _imp__GetWindowLongA@8
 .idata$5       0x015c8708        0x4 c:/mingw/bin/../lib/gcc/mingw32/3.4.2/../../../libuser32.a(dgdfs00346.o)
                0x015c8708                _imp__GetWindowRect@8
 .idata$5       0x015c870c        0x4 c:/mingw/bin/../lib/gcc/mingw32/3.4.2/../../../libuser32.a(dgdfs00381.o)
                0x015c870c                _imp__IsDialogMessageA@8
 .idata$5       0x015c8710        0x4 c:/mingw/bin/../lib/gcc/mingw32/3.4.2/../../../libuser32.a(dgdfs00390.o)
                0x015c8710                _imp__IsWindow@4
 .idata$5       0x015c8714        0x4 c:/mingw/bin/../lib/gcc/mingw32/3.4.2/../../../libuser32.a(dgdfs00399.o)
                0x015c8714                _imp__LoadBitmapA@8
 .idata$5       0x015c8718        0x4 c:/mingw/bin/../lib/gcc/mingw32/3.4.2/../../../libuser32.a(dgdfs00401.o)
                0x015c8718                _imp__LoadCursorA@8
 .idata$5       0x015c871c        0x4 c:/mingw/bin/../lib/gcc/mingw32/3.4.2/../../../libuser32.a(dgdfs00407.o)
                0x015c871c                _imp__LoadImageA@24
 .idata$5       0x015c8720        0x4 c:/mingw/bin/../lib/gcc/mingw32/3.4.2/../../../libuser32.a(dgdfs00430.o)
                0x015c8720                _imp__MessageBoxA@16
 .idata$5       0x015c8724        0x4 c:/mingw/bin/../lib/gcc/mingw32/3.4.2/../../../libuser32.a(dgdfs00441.o)
                0x015c8724                _imp__MoveWindow@24
 .idata$5       0x015c8728        0x4 c:/mingw/bin/../lib/gcc/mingw32/3.4.2/../../../libuser32.a(dgdfs00442.o)
                0x015c8728                _imp__MsgWaitForMultipleObjects@20
 .idata$5       0x015c872c        0x4 c:/mingw/bin/../lib/gcc/mingw32/3.4.2/../../../libuser32.a(dgdfs00460.o)
                0x015c872c                _imp__PeekMessageA@20
 .idata$5       0x015c8730        0x4 c:/mingw/bin/../lib/gcc/mingw32/3.4.2/../../../libuser32.a(dgdfs00476.o)
                0x015c8730                _imp__RegisterClassExA@4
 .idata$5       0x015c8734        0x4 c:/mingw/bin/../lib/gcc/mingw32/3.4.2/../../../libuser32.a(dgdfs00483.o)
                0x015c8734                _imp__RegisterHotKey@16
 .idata$5       0x015c8738        0x4 c:/mingw/bin/../lib/gcc/mingw32/3.4.2/../../../libuser32.a(dgdfs00488.o)
                0x015c8738                _imp__ReleaseDC@8
 .idata$5       0x015c873c        0x4 c:/mingw/bin/../lib/gcc/mingw32/3.4.2/../../../libuser32.a(dgdfs00499.o)
                0x015c873c                _imp__SendDlgItemMessageA@20
 .idata$5       0x015c8740        0x4 c:/mingw/bin/../lib/gcc/mingw32/3.4.2/../../../libuser32.a(dgdfs00502.o)
                0x015c8740                _imp__SendMessageA@16
 .idata$5       0x015c8744        0x4 c:/mingw/bin/../lib/gcc/mingw32/3.4.2/../../../libuser32.a(dgdfs00527.o)
                0x015c8744                _imp__SetFocus@4
 .idata$5       0x015c8748        0x4 c:/mingw/bin/../lib/gcc/mingw32/3.4.2/../../../libuser32.a(dgdfs00528.o)
                0x015c8748                _imp__SetForegroundWindow@4
 .idata$5       0x015c874c        0x4 c:/mingw/bin/../lib/gcc/mingw32/3.4.2/../../../libuser32.a(dgdfs00552.o)
                0x015c874c                _imp__SetSysColors@12
 .idata$5       0x015c8750        0x4 c:/mingw/bin/../lib/gcc/mingw32/3.4.2/../../../libuser32.a(dgdfs00563.o)
                0x015c8750                _imp__SetWindowLongA@12
 .idata$5       0x015c8754        0x4 c:/mingw/bin/../lib/gcc/mingw32/3.4.2/../../../libuser32.a(dgdfs00566.o)
                0x015c8754                _imp__SetWindowPos@28
 .idata$5       0x015c8758        0x4 c:/mingw/bin/../lib/gcc/mingw32/3.4.2/../../../libuser32.a(dgdfs00568.o)
                0x015c8758                _imp__SetWindowTextA@8
 .idata$5       0x015c875c        0x4 c:/mingw/bin/../lib/gcc/mingw32/3.4.2/../../../libuser32.a(dgdfs00579.o)
                0x015c875c                _imp__ShowWindow@8
 .idata$5       0x015c8760        0x4 c:/mingw/bin/../lib/gcc/mingw32/3.4.2/../../../libuser32.a(dgdfs00602.o)
                0x015c8760                _imp__TranslateMessage@4
 .idata$5       0x015c8764        0x4 c:/mingw/bin/../lib/gcc/mingw32/3.4.2/../../../libuser32.a(dgdfs00612.o)
                0x015c8764                _imp__UnregisterHotKey@8
 .idata$5       0x015c8768        0x4 c:/mingw/bin/../lib/gcc/mingw32/3.4.2/../../../libuser32.a(dgdfs00614.o)
                0x015c8768                _imp__UpdateWindow@4
 .idata$5       0x015c876c        0x4 c:/mingw/bin/../lib/gcc/mingw32/3.4.2/../../../libuser32.a(dgdfs00633.o)
                0x015c876c                _imp__wsprintfA
 .idata$5       0x015c8770        0x4 c:/mingw/bin/../lib/gcc/mingw32/3.4.2/../../../libuser32.a(dgdft.o)
 .idata$5       0x015c8774        0x4 c:/mingw/bin/../lib/gcc/mingw32/3.4.2/../../../libwinmm.a(dgtfh.o)
 .idata$5       0x015c8778        0x4 c:/mingw/bin/../lib/gcc/mingw32/3.4.2/../../../libwinmm.a(dgtfs00074.o)
                0x015c8778                _imp__midiOutGetDevCapsA@12
 .idata$5       0x015c877c        0x4 c:/mingw/bin/../lib/gcc/mingw32/3.4.2/../../../libwinmm.a(dgtfs00081.o)
                0x015c877c                _imp__midiOutLongMsg@12
 .idata$5       0x015c8780        0x4 c:/mingw/bin/../lib/gcc/mingw32/3.4.2/../../../libwinmm.a(dgtfs00084.o)
                0x015c8780                _imp__midiOutPrepareHeader@12
 .idata$5       0x015c8784        0x4 c:/mingw/bin/../lib/gcc/mingw32/3.4.2/../../../libwinmm.a(dgtfs00087.o)
                0x015c8784                _imp__midiOutShortMsg@8
 .idata$5       0x015c8788        0x4 c:/mingw/bin/../lib/gcc/mingw32/3.4.2/../../../libwinmm.a(dgtfs00088.o)
                0x015c8788                _imp__midiOutUnprepareHeader@12
 .idata$5       0x015c878c        0x4 c:/mingw/bin/../lib/gcc/mingw32/3.4.2/../../../libwinmm.a(dgtfs00089.o)
                0x015c878c                _imp__midiStreamClose@4
 .idata$5       0x015c8790        0x4 c:/mingw/bin/../lib/gcc/mingw32/3.4.2/../../../libwinmm.a(dgtfs00090.o)
                0x015c8790                _imp__midiStreamOpen@24
 .idata$5       0x015c8794        0x4 c:/mingw/bin/../lib/gcc/mingw32/3.4.2/../../../libwinmm.a(dgtfs00091.o)
                0x015c8794                _imp__midiStreamOut@12
 .idata$5       0x015c8798        0x4 c:/mingw/bin/../lib/gcc/mingw32/3.4.2/../../../libwinmm.a(dgtfs00092.o)
                0x015c8798                _imp__midiStreamPause@4
 .idata$5       0x015c879c        0x4 c:/mingw/bin/../lib/gcc/mingw32/3.4.2/../../../libwinmm.a(dgtfs00094.o)
                0x015c879c                _imp__midiStreamProperty@12
 .idata$5       0x015c87a0        0x4 c:/mingw/bin/../lib/gcc/mingw32/3.4.2/../../../libwinmm.a(dgtfs00095.o)
                0x015c87a0                _imp__midiStreamRestart@4
 .idata$5       0x015c87a4        0x4 c:/mingw/bin/../lib/gcc/mingw32/3.4.2/../../../libwinmm.a(dgtfs00096.o)
                0x015c87a4                _imp__midiStreamStop@4
 .idata$5       0x015c87a8        0x4 c:/mingw/bin/../lib/gcc/mingw32/3.4.2/../../../libwinmm.a(dgtft.o)
 .idata$5       0x015c87ac        0x4 c:/mingw/bin/../lib/gcc/mingw32/3.4.2/../../../libwsock32.a(deoeh.o)
 .idata$5       0x015c87b0        0x4 c:/mingw/bin/../lib/gcc/mingw32/3.4.2/../../../libwsock32.a(deoes00025.o)
                0x015c87b0                _imp__WSACleanup@0
 .idata$5       0x015c87b4        0x4 c:/mingw/bin/../lib/gcc/mingw32/3.4.2/../../../libwsock32.a(deoes00031.o)
                0x015c87b4                _imp__WSAStartup@8
 .idata$5       0x015c87b8        0x4 c:/mingw/bin/../lib/gcc/mingw32/3.4.2/../../../libwsock32.a(deoes00036.o)
                0x015c87b8                _imp__bind@12
 .idata$5       0x015c87bc        0x4 c:/mingw/bin/../lib/gcc/mingw32/3.4.2/../../../libwsock32.a(deoes00037.o)
                0x015c87bc                _imp__closesocket@4
 .idata$5       0x015c87c0        0x4 c:/mingw/bin/../lib/gcc/mingw32/3.4.2/../../../libwsock32.a(deoes00041.o)
                0x015c87c0                _imp__gethostbyname@4
 .idata$5       0x015c87c4        0x4 c:/mingw/bin/../lib/gcc/mingw32/3.4.2/../../../libwsock32.a(deoes00042.o)
                0x015c87c4                _imp__gethostname@8
 .idata$5       0x015c87c8        0x4 c:/mingw/bin/../lib/gcc/mingw32/3.4.2/../../../libwsock32.a(deoes00052.o)
                0x015c87c8                _imp__htons@4
 .idata$5       0x015c87cc        0x4 c:/mingw/bin/../lib/gcc/mingw32/3.4.2/../../../libwsock32.a(deoes00053.o)
                0x015c87cc                _imp__inet_addr@4
 .idata$5       0x015c87d0        0x4 c:/mingw/bin/../lib/gcc/mingw32/3.4.2/../../../libwsock32.a(deoes00055.o)
                0x015c87d0                _imp__inet_ntoa@4
 .idata$5       0x015c87d4        0x4 c:/mingw/bin/../lib/gcc/mingw32/3.4.2/../../../libwsock32.a(deoes00056.o)
                0x015c87d4                _imp__ioctlsocket@12
 .idata$5       0x015c87d8        0x4 c:/mingw/bin/../lib/gcc/mingw32/3.4.2/../../../libwsock32.a(deoes00059.o)
                0x015c87d8                _imp__ntohs@4
 .idata$5       0x015c87dc        0x4 c:/mingw/bin/../lib/gcc/mingw32/3.4.2/../../../libwsock32.a(deoes00062.o)
                0x015c87dc                _imp__recvfrom@24
 .idata$5       0x015c87e0        0x4 c:/mingw/bin/../lib/gcc/mingw32/3.4.2/../../../libwsock32.a(deoes00068.o)
                0x015c87e0                _imp__sendto@24
 .idata$5       0x015c87e4        0x4 c:/mingw/bin/../lib/gcc/mingw32/3.4.2/../../../libwsock32.a(deoes00072.o)
                0x015c87e4                _imp__socket@12
 .idata$5       0x015c87e8        0x4 c:/mingw/bin/../lib/gcc/mingw32/3.4.2/../../../libwsock32.a(deoet.o)
 SORT(*)(.idata$6)
 .idata$6       0x015c87ec        0xa c:/mingw/bin/../lib/gcc/mingw32/3.4.2/../../../libgdi32.a(deubs00012.o)
 *fill*         0x015c87f6        0x2 00
 .idata$6       0x015c87f8       0x14 c:/mingw/bin/../lib/gcc/mingw32/3.4.2/../../../libgdi32.a(deubs00015.o)
 .idata$6       0x015c880c       0x16 c:/mingw/bin/../lib/gcc/mingw32/3.4.2/../../../libgdi32.a(deubs00033.o)
 *fill*         0x015c8822        0x2 00
 .idata$6       0x015c8824       0x14 c:/mingw/bin/../lib/gcc/mingw32/3.4.2/../../../libgdi32.a(deubs00038.o)
 .idata$6       0x015c8838       0x10 c:/mingw/bin/../lib/gcc/mingw32/3.4.2/../../../libgdi32.a(deubs00055.o)
 .idata$6       0x015c8848        0xc c:/mingw/bin/../lib/gcc/mingw32/3.4.2/../../../libgdi32.a(deubs00069.o)
 .idata$6       0x015c8854       0x10 c:/mingw/bin/../lib/gcc/mingw32/3.4.2/../../../libgdi32.a(deubs00072.o)
 .idata$6       0x015c8864       0x10 c:/mingw/bin/../lib/gcc/mingw32/3.4.2/../../../libgdi32.a(deubs00145.o)
 .idata$6       0x015c8874       0x16 c:/mingw/bin/../lib/gcc/mingw32/3.4.2/../../../libgdi32.a(deubs00146.o)
 *fill*         0x015c888a        0x2 00
 .idata$6       0x015c888c       0x12 c:/mingw/bin/../lib/gcc/mingw32/3.4.2/../../../libgdi32.a(deubs00256.o)
 *fill*         0x015c889e        0x2 00
 .idata$6       0x015c88a0       0x10 c:/mingw/bin/../lib/gcc/mingw32/3.4.2/../../../libgdi32.a(deubs00277.o)
 .idata$6       0x015c88b0       0x10 c:/mingw/bin/../lib/gcc/mingw32/3.4.2/../../../libgdi32.a(deubs00278.o)
 .idata$6       0x015c88c0       0x14 c:/mingw/bin/../lib/gcc/mingw32/3.4.2/../../../libgdi32.a(deubs00291.o)
 .idata$6       0x015c88d4       0x16 c:/mingw/bin/../lib/gcc/mingw32/3.4.2/../../../libgdi32.a(deubs00294.o)
 *fill*         0x015c88ea        0x2 00
 .idata$6       0x015c88ec       0x14 c:/mingw/bin/../lib/gcc/mingw32/3.4.2/../../../libgdi32.a(deubs00306.o)
 .idata$6       0x015c8900       0x12 c:/mingw/bin/../lib/gcc/mingw32/3.4.2/../../../libgdi32.a(deubs00308.o)
 *fill*         0x015c8912        0x2 00
 .idata$6       0x015c8914       0x16 c:/mingw/bin/../lib/gcc/mingw32/3.4.2/../../../libgdi32.a(deubs00315.o)
 *fill*         0x015c892a        0x2 00
 .idata$6       0x015c892c        0xc c:/mingw/bin/../lib/gcc/mingw32/3.4.2/../../../libkernel32.a(dqifs00001.o)
 .idata$6       0x015c8938        0xe c:/mingw/bin/../lib/gcc/mingw32/3.4.2/../../../libkernel32.a(dqifs00038.o)
 *fill*         0x015c8946        0x2 00
 .idata$6       0x015c8948       0x10 c:/mingw/bin/../lib/gcc/mingw32/3.4.2/../../../libkernel32.a(dqifs00064.o)
 .idata$6       0x015c8958       0x14 c:/mingw/bin/../lib/gcc/mingw32/3.4.2/../../../libkernel32.a(dqifs00087.o)
 .idata$6       0x015c896c       0x10 c:/mingw/bin/../lib/gcc/mingw32/3.4.2/../../../libkernel32.a(dqifs00090.o)
 .idata$6       0x015c897c       0x18 c:/mingw/bin/../lib/gcc/mingw32/3.4.2/../../../libkernel32.a(dqifs00125.o)
 .idata$6       0x015c8994        0xe c:/mingw/bin/../lib/gcc/mingw32/3.4.2/../../../libkernel32.a(dqifs00155.o)
 *fill*         0x015c89a2        0x2 00
 .idata$6       0x015c89a4        0xc c:/mingw/bin/../lib/gcc/mingw32/3.4.2/../../../libkernel32.a(dqifs00175.o)
 .idata$6       0x015c89b0        0xc c:/mingw/bin/../lib/gcc/mingw32/3.4.2/../../../libkernel32.a(dqifs00177.o)
 .idata$6       0x015c89bc       0x12 c:/mingw/bin/../lib/gcc/mingw32/3.4.2/../../../libkernel32.a(dqifs00181.o)
 *fill*         0x015c89ce        0x2 00
 .idata$6       0x015c89d0       0x10 c:/mingw/bin/../lib/gcc/mingw32/3.4.2/../../../libkernel32.a(dqifs00190.o)
 .idata$6       0x015c89e0       0x12 c:/mingw/bin/../lib/gcc/mingw32/3.4.2/../../../libkernel32.a(dqifs00208.o)
 *fill*         0x015c89f2        0x2 00
 .idata$6       0x015c89f4        0xe c:/mingw/bin/../lib/gcc/mingw32/3.4.2/../../../libkernel32.a(dqifs00213.o)
 *fill*         0x015c8a02        0x2 00
 .idata$6       0x015c8a04       0x10 c:/mingw/bin/../lib/gcc/mingw32/3.4.2/../../../libkernel32.a(dqifs00220.o)
 .idata$6       0x015c8a14       0x12 c:/mingw/bin/../lib/gcc/mingw32/3.4.2/../../../libkernel32.a(dqifs00236.o)
 *fill*         0x015c8a26        0x2 00
 .idata$6       0x015c8a28       0x14 c:/mingw/bin/../lib/gcc/mingw32/3.4.2/../../../libkernel32.a(dqifs00281.o)
 .idata$6       0x015c8a3c       0x16 c:/mingw/bin/../lib/gcc/mingw32/3.4.2/../../../libkernel32.a(dqifs00306.o)
 *fill*         0x015c8a52        0x2 00
 .idata$6       0x015c8a54       0x10 c:/mingw/bin/../lib/gcc/mingw32/3.4.2/../../../libkernel32.a(dqifs00323.o)
 .idata$6       0x015c8a64       0x14 c:/mingw/bin/../lib/gcc/mingw32/3.4.2/../../../libkernel32.a(dqifs00329.o)
 .idata$6       0x015c8a78       0x14 c:/mingw/bin/../lib/gcc/mingw32/3.4.2/../../../libkernel32.a(dqifs00335.o)
 .idata$6       0x015c8a8c       0x12 c:/mingw/bin/../lib/gcc/mingw32/3.4.2/../../../libkernel32.a(dqifs00362.o)
 *fill*         0x015c8a9e        0x2 00
 .idata$6       0x015c8aa0       0x12 c:/mingw/bin/../lib/gcc/mingw32/3.4.2/../../../libkernel32.a(dqifs00384.o)
 *fill*         0x015c8ab2        0x2 00
 .idata$6       0x015c8ab4       0x10 c:/mingw/bin/../lib/gcc/mingw32/3.4.2/../../../libkernel32.a(dqifs00421.o)
 .idata$6       0x015c8ac4       0x10 c:/mingw/bin/../lib/gcc/mingw32/3.4.2/../../../libkernel32.a(dqifs00431.o)
 .idata$6       0x015c8ad4       0x16 c:/mingw/bin/../lib/gcc/mingw32/3.4.2/../../../libkernel32.a(dqifs00458.o)
 *fill*         0x015c8aea        0x2 00
 .idata$6       0x015c8aec       0x1c c:/mingw/bin/../lib/gcc/mingw32/3.4.2/../../../libkernel32.a(dqifs00490.o)
 .idata$6       0x015c8b08       0x18 c:/mingw/bin/../lib/gcc/mingw32/3.4.2/../../../libkernel32.a(dqifs00521.o)
 .idata$6       0x015c8b20       0x10 c:/mingw/bin/../lib/gcc/mingw32/3.4.2/../../../libkernel32.a(dqifs00522.o)
 .idata$6       0x015c8b30       0x1a c:/mingw/bin/../lib/gcc/mingw32/3.4.2/../../../libkernel32.a(dqifs00595.o)
 *fill*         0x015c8b4a        0x2 00
 .idata$6       0x015c8b4c       0x1c c:/mingw/bin/../lib/gcc/mingw32/3.4.2/../../../libkernel32.a(dqifs00596.o)
 .idata$6       0x015c8b68       0x10 c:/mingw/bin/../lib/gcc/mingw32/3.4.2/../../../libkernel32.a(dqifs00638.o)
 .idata$6       0x015c8b78        0xc c:/mingw/bin/../lib/gcc/mingw32/3.4.2/../../../libkernel32.a(dqifs00695.o)
 .idata$6       0x015c8b84       0x14 c:/mingw/bin/../lib/gcc/mingw32/3.4.2/../../../libkernel32.a(dqifs00716.o)
 .idata$6       0x015c8b98       0x14 c:/mingw/bin/../lib/gcc/mingw32/3.4.2/../../../libkernel32.a(dqifs00732.o)
 .idata$6       0x015c8bac       0x1e c:/mingw/bin/../lib/gcc/mingw32/3.4.2/../../../libkernel32.a(dqifs00736.o)
 *fill*         0x015c8bca        0x2 00
 .idata$6       0x015c8bcc       0x1a c:/mingw/bin/../lib/gcc/mingw32/3.4.2/../../../libkernel32.a(dqifs00804.o)
 *fill*         0x015c8be6        0x2 00
 .idata$6       0x015c8be8       0x16 c:/mingw/bin/../lib/gcc/mingw32/3.4.2/../../../libkernel32.a(dqifs00806.o)
 *fill*         0x015c8bfe        0x2 00
 .idata$6       0x015c8c00        0xa c:/mingw/bin/../lib/gcc/mingw32/3.4.2/../../../libmoldname.a(duuds00000.o)
 *fill*         0x015c8c0a        0x2 00
 .idata$6       0x015c8c0c        0xa c:/mingw/bin/../lib/gcc/mingw32/3.4.2/../../../libmoldname.a(duuds00002.o)
 *fill*         0x015c8c16        0x2 00
 .idata$6       0x015c8c18        0xa c:/mingw/bin/../lib/gcc/mingw32/3.4.2/../../../libmoldname.a(duuds00006.o)
 *fill*         0x015c8c22        0x2 00
 .idata$6       0x015c8c24        0xa c:/mingw/bin/../lib/gcc/mingw32/3.4.2/../../../libmoldname.a(duuds00023.o)
 *fill*         0x015c8c2e        0x2 00
 .idata$6       0x015c8c30        0xe c:/mingw/bin/../lib/gcc/mingw32/3.4.2/../../../libmoldname.a(duuds00026.o)
 *fill*         0x015c8c3e        0x2 00
 .idata$6       0x015c8c40        0xa c:/mingw/bin/../lib/gcc/mingw32/3.4.2/../../../libmoldname.a(duuds00032.o)
 *fill*         0x015c8c4a        0x2 00
 .idata$6       0x015c8c4c        0xa c:/mingw/bin/../lib/gcc/mingw32/3.4.2/../../../libmoldname.a(duuds00037.o)
 *fill*         0x015c8c56        0x2 00
 .idata$6       0x015c8c58        0xa c:/mingw/bin/../lib/gcc/mingw32/3.4.2/../../../libmoldname.a(duuds00051.o)
 *fill*         0x015c8c62        0x2 00
 .idata$6       0x015c8c64        0xa c:/mingw/bin/../lib/gcc/mingw32/3.4.2/../../../libmoldname.a(duuds00055.o)
 *fill*         0x015c8c6e        0x2 00
 .idata$6       0x015c8c70        0x8 c:/mingw/bin/../lib/gcc/mingw32/3.4.2/../../../libmoldname.a(duuds00058.o)
 .idata$6       0x015c8c78        0x8 c:/mingw/bin/../lib/gcc/mingw32/3.4.2/../../../libmoldname.a(duuds00064.o)
 .idata$6       0x015c8c80        0x8 c:/mingw/bin/../lib/gcc/mingw32/3.4.2/../../../libmoldname.a(duuds00079.o)
 .idata$6       0x015c8c88        0xa c:/mingw/bin/../lib/gcc/mingw32/3.4.2/../../../libmoldname.a(duuds00081.o)
 *fill*         0x015c8c92        0x2 00
 .idata$6       0x015c8c94        0xa c:/mingw/bin/../lib/gcc/mingw32/3.4.2/../../../libmoldname.a(duuds00110.o)
 *fill*         0x015c8c9e        0x2 00
 .idata$6       0x015c8ca0       0x10 c:/mingw/bin/../lib/gcc/mingw32/3.4.2/../../../libmsvcrt.a(dwpds00039.o)
 .idata$6       0x015c8cb0       0x10 c:/mingw/bin/../lib/gcc/mingw32/3.4.2/../../../libmsvcrt.a(dwpds00048.o)
 .idata$6       0x015c8cc0       0x10 c:/mingw/bin/../lib/gcc/mingw32/3.4.2/../../../libmsvcrt.a(dwpds00060.o)
 .idata$6       0x015c8cd0        0xe c:/mingw/bin/../lib/gcc/mingw32/3.4.2/../../../libmsvcrt.a(dwpds00062.o)
 *fill*         0x015c8cde        0x2 00
 .idata$6       0x015c8ce0       0x12 c:/mingw/bin/../lib/gcc/mingw32/3.4.2/../../../libmsvcrt.a(dwpds00080.o)
 *fill*         0x015c8cf2        0x2 00
 .idata$6       0x015c8cf4        0xa c:/mingw/bin/../lib/gcc/mingw32/3.4.2/../../../libmsvcrt.a(dwpds00121.o)
 *fill*         0x015c8cfe        0x2 00
 .idata$6       0x015c8d00        0xa c:/mingw/bin/../lib/gcc/mingw32/3.4.2/../../../libmsvcrt.a(dwpds00152.o)
 *fill*         0x015c8d0a        0x2 00
 .idata$6       0x015c8d0c        0xe c:/mingw/bin/../lib/gcc/mingw32/3.4.2/../../../libmsvcrt.a(dwpds00175.o)
 *fill*         0x015c8d1a        0x2 00
 .idata$6       0x015c8d1c        0xe c:/mingw/bin/../lib/gcc/mingw32/3.4.2/../../../libmsvcrt.a(dwpds00176.o)
 *fill*         0x015c8d2a        0x2 00
 .idata$6       0x015c8d2c        0xc c:/mingw/bin/../lib/gcc/mingw32/3.4.2/../../../libmsvcrt.a(dwpds00179.o)
 .idata$6       0x015c8d38        0xc c:/mingw/bin/../lib/gcc/mingw32/3.4.2/../../../libmsvcrt.a(dwpds00198.o)
 .idata$6       0x015c8d44        0xc c:/mingw/bin/../lib/gcc/mingw32/3.4.2/../../../libmsvcrt.a(dwpds00207.o)
 .idata$6       0x015c8d50        0x8 c:/mingw/bin/../lib/gcc/mingw32/3.4.2/../../../libmsvcrt.a(dwpds00233.o)
 .idata$6       0x015c8d58        0xc c:/mingw/bin/../lib/gcc/mingw32/3.4.2/../../../libmsvcrt.a(dwpds00235.o)
 .idata$6       0x015c8d64        0xa c:/mingw/bin/../lib/gcc/mingw32/3.4.2/../../../libmsvcrt.a(dwpds00280.o)
 *fill*         0x015c8d6e        0x2 00
 .idata$6       0x015c8d70        0xa c:/mingw/bin/../lib/gcc/mingw32/3.4.2/../../../libmsvcrt.a(dwpds00350.o)
 *fill*         0x015c8d7a        0x2 00
 .idata$6       0x015c8d7c        0xa c:/mingw/bin/../lib/gcc/mingw32/3.4.2/../../../libmsvcrt.a(dwpds00359.o)
 *fill*         0x015c8d86        0x2 00
 .idata$6       0x015c8d88        0xc c:/mingw/bin/../lib/gcc/mingw32/3.4.2/../../../libmsvcrt.a(dwpds00388.o)
 .idata$6       0x015c8d94        0xc c:/mingw/bin/../lib/gcc/mingw32/3.4.2/../../../libmsvcrt.a(dwpds00411.o)
 .idata$6       0x015c8da0        0xc c:/mingw/bin/../lib/gcc/mingw32/3.4.2/../../../libmsvcrt.a(dwpds00415.o)
 .idata$6       0x015c8dac        0xe c:/mingw/bin/../lib/gcc/mingw32/3.4.2/../../../libmsvcrt.a(dwpds00445.o)
 *fill*         0x015c8dba        0x2 00
 .idata$6       0x015c8dbc        0x8 c:/mingw/bin/../lib/gcc/mingw32/3.4.2/../../../libmsvcrt.a(dwpds00533.o)
 .idata$6       0x015c8dc4        0xa c:/mingw/bin/../lib/gcc/mingw32/3.4.2/../../../libmsvcrt.a(dwpds00536.o)
 *fill*         0x015c8dce        0x2 00
 .idata$6       0x015c8dd0        0xa c:/mingw/bin/../lib/gcc/mingw32/3.4.2/../../../libmsvcrt.a(dwpds00540.o)
 *fill*         0x015c8dda        0x2 00
 .idata$6       0x015c8ddc        0x8 c:/mingw/bin/../lib/gcc/mingw32/3.4.2/../../../libmsvcrt.a(dwpds00542.o)
 .idata$6       0x015c8de4        0x8 c:/mingw/bin/../lib/gcc/mingw32/3.4.2/../../../libmsvcrt.a(dwpds00543.o)
 .idata$6       0x015c8dec        0xa c:/mingw/bin/../lib/gcc/mingw32/3.4.2/../../../libmsvcrt.a(dwpds00545.o)
 *fill*         0x015c8df6        0x2 00
 .idata$6       0x015c8df8        0x6 c:/mingw/bin/../lib/gcc/mingw32/3.4.2/../../../libmsvcrt.a(dwpds00549.o)
 *fill*         0x015c8dfe        0x2 00
 .idata$6       0x015c8e00        0x8 c:/mingw/bin/../lib/gcc/mingw32/3.4.2/../../../libmsvcrt.a(dwpds00554.o)
 .idata$6       0x015c8e08        0xa c:/mingw/bin/../lib/gcc/mingw32/3.4.2/../../../libmsvcrt.a(dwpds00557.o)
 *fill*         0x015c8e12        0x2 00
 .idata$6       0x015c8e14        0xa c:/mingw/bin/../lib/gcc/mingw32/3.4.2/../../../libmsvcrt.a(dwpds00560.o)
 *fill*         0x015c8e1e        0x2 00
 .idata$6       0x015c8e20        0x8 c:/mingw/bin/../lib/gcc/mingw32/3.4.2/../../../libmsvcrt.a(dwpds00563.o)
 .idata$6       0x015c8e28        0x8 c:/mingw/bin/../lib/gcc/mingw32/3.4.2/../../../libmsvcrt.a(dwpds00566.o)
 .idata$6       0x015c8e30        0x8 c:/mingw/bin/../lib/gcc/mingw32/3.4.2/../../../libmsvcrt.a(dwpds00568.o)
 .idata$6       0x015c8e38        0xa c:/mingw/bin/../lib/gcc/mingw32/3.4.2/../../../libmsvcrt.a(dwpds00569.o)
 *fill*         0x015c8e42        0x2 00
 .idata$6       0x015c8e44        0x8 c:/mingw/bin/../lib/gcc/mingw32/3.4.2/../../../libmsvcrt.a(dwpds00570.o)
 .idata$6       0x015c8e4c        0x8 c:/mingw/bin/../lib/gcc/mingw32/3.4.2/../../../libmsvcrt.a(dwpds00571.o)
 .idata$6       0x015c8e54        0x8 c:/mingw/bin/../lib/gcc/mingw32/3.4.2/../../../libmsvcrt.a(dwpds00574.o)
 .idata$6       0x015c8e5c        0x8 c:/mingw/bin/../lib/gcc/mingw32/3.4.2/../../../libmsvcrt.a(dwpds00575.o)
 .idata$6       0x015c8e64        0xa c:/mingw/bin/../lib/gcc/mingw32/3.4.2/../../../libmsvcrt.a(dwpds00576.o)
 *fill*         0x015c8e6e        0x2 00
 .idata$6       0x015c8e70        0x8 c:/mingw/bin/../lib/gcc/mingw32/3.4.2/../../../libmsvcrt.a(dwpds00579.o)
 .idata$6       0x015c8e78        0x8 c:/mingw/bin/../lib/gcc/mingw32/3.4.2/../../../libmsvcrt.a(dwpds00581.o)
 .idata$6       0x015c8e80        0xa c:/mingw/bin/../lib/gcc/mingw32/3.4.2/../../../libmsvcrt.a(dwpds00583.o)
 *fill*         0x015c8e8a        0x2 00
 .idata$6       0x015c8e8c        0xa c:/mingw/bin/../lib/gcc/mingw32/3.4.2/../../../libmsvcrt.a(dwpds00587.o)
 *fill*         0x015c8e96        0x2 00
 .idata$6       0x015c8e98        0xc c:/mingw/bin/../lib/gcc/mingw32/3.4.2/../../../libmsvcrt.a(dwpds00622.o)
 .idata$6       0x015c8ea4        0xa c:/mingw/bin/../lib/gcc/mingw32/3.4.2/../../../libmsvcrt.a(dwpds00626.o)
 *fill*         0x015c8eae        0x2 00
 .idata$6       0x015c8eb0        0xa c:/mingw/bin/../lib/gcc/mingw32/3.4.2/../../../libmsvcrt.a(dwpds00632.o)
 *fill*         0x015c8eba        0x2 00
 .idata$6       0x015c8ebc        0xa c:/mingw/bin/../lib/gcc/mingw32/3.4.2/../../../libmsvcrt.a(dwpds00633.o)
 *fill*         0x015c8ec6        0x2 00
 .idata$6       0x015c8ec8        0xa c:/mingw/bin/../lib/gcc/mingw32/3.4.2/../../../libmsvcrt.a(dwpds00634.o)
 *fill*         0x015c8ed2        0x2 00
 .idata$6       0x015c8ed4        0x6 c:/mingw/bin/../lib/gcc/mingw32/3.4.2/../../../libmsvcrt.a(dwpds00638.o)
 *fill*         0x015c8eda        0x2 00
 .idata$6       0x015c8edc        0xa c:/mingw/bin/../lib/gcc/mingw32/3.4.2/../../../libmsvcrt.a(dwpds00639.o)
 *fill*         0x015c8ee6        0x2 00
 .idata$6       0x015c8ee8        0x8 c:/mingw/bin/../lib/gcc/mingw32/3.4.2/../../../libmsvcrt.a(dwpds00642.o)
 .idata$6       0x015c8ef0        0x8 c:/mingw/bin/../lib/gcc/mingw32/3.4.2/../../../libmsvcrt.a(dwpds00645.o)
 .idata$6       0x015c8ef8        0x8 c:/mingw/bin/../lib/gcc/mingw32/3.4.2/../../../libmsvcrt.a(dwpds00647.o)
 .idata$6       0x015c8f00        0xa c:/mingw/bin/../lib/gcc/mingw32/3.4.2/../../../libmsvcrt.a(dwpds00648.o)
 *fill*         0x015c8f0a        0x2 00
 .idata$6       0x015c8f0c        0xa c:/mingw/bin/../lib/gcc/mingw32/3.4.2/../../../libmsvcrt.a(dwpds00655.o)
 *fill*         0x015c8f16        0x2 00
 .idata$6       0x015c8f18        0xa c:/mingw/bin/../lib/gcc/mingw32/3.4.2/../../../libmsvcrt.a(dwpds00656.o)
 *fill*         0x015c8f22        0x2 00
 .idata$6       0x015c8f24        0x6 c:/mingw/bin/../lib/gcc/mingw32/3.4.2/../../../libmsvcrt.a(dwpds00657.o)
 *fill*         0x015c8f2a        0x2 00
 .idata$6       0x015c8f2c        0xa c:/mingw/bin/../lib/gcc/mingw32/3.4.2/../../../libmsvcrt.a(dwpds00659.o)
 *fill*         0x015c8f36        0x2 00
 .idata$6       0x015c8f38        0x8 c:/mingw/bin/../lib/gcc/mingw32/3.4.2/../../../libmsvcrt.a(dwpds00660.o)
 .idata$6       0x015c8f40        0xa c:/mingw/bin/../lib/gcc/mingw32/3.4.2/../../../libmsvcrt.a(dwpds00663.o)
 *fill*         0x015c8f4a        0x2 00
 .idata$6       0x015c8f4c        0xa c:/mingw/bin/../lib/gcc/mingw32/3.4.2/../../../libmsvcrt.a(dwpds00664.o)
 *fill*         0x015c8f56        0x2 00
 .idata$6       0x015c8f58        0xa c:/mingw/bin/../lib/gcc/mingw32/3.4.2/../../../libmsvcrt.a(dwpds00665.o)
 *fill*         0x015c8f62        0x2 00
 .idata$6       0x015c8f64        0xa c:/mingw/bin/../lib/gcc/mingw32/3.4.2/../../../libmsvcrt.a(dwpds00667.o)
 *fill*         0x015c8f6e        0x2 00
 .idata$6       0x015c8f70        0xc c:/mingw/bin/../lib/gcc/mingw32/3.4.2/../../../libmsvcrt.a(dwpds00669.o)
 .idata$6       0x015c8f7c        0xa c:/mingw/bin/../lib/gcc/mingw32/3.4.2/../../../libmsvcrt.a(dwpds00671.o)
 *fill*         0x015c8f86        0x2 00
 .idata$6       0x015c8f88        0xa c:/mingw/bin/../lib/gcc/mingw32/3.4.2/../../../libmsvcrt.a(dwpds00672.o)
 *fill*         0x015c8f92        0x2 00
 .idata$6       0x015c8f94        0xa c:/mingw/bin/../lib/gcc/mingw32/3.4.2/../../../libmsvcrt.a(dwpds00674.o)
 *fill*         0x015c8f9e        0x2 00
 .idata$6       0x015c8fa0        0xa c:/mingw/bin/../lib/gcc/mingw32/3.4.2/../../../libmsvcrt.a(dwpds00676.o)
 *fill*         0x015c8faa        0x2 00
 .idata$6       0x015c8fac        0xa c:/mingw/bin/../lib/gcc/mingw32/3.4.2/../../../libmsvcrt.a(dwpds00680.o)
 *fill*         0x015c8fb6        0x2 00
 .idata$6       0x015c8fb8        0xa c:/mingw/bin/../lib/gcc/mingw32/3.4.2/../../../libmsvcrt.a(dwpds00681.o)
 *fill*         0x015c8fc2        0x2 00
 .idata$6       0x015c8fc4        0xa c:/mingw/bin/../lib/gcc/mingw32/3.4.2/../../../libmsvcrt.a(dwpds00682.o)
 *fill*         0x015c8fce        0x2 00
 .idata$6       0x015c8fd0        0x8 c:/mingw/bin/../lib/gcc/mingw32/3.4.2/../../../libmsvcrt.a(dwpds00689.o)
 .idata$6       0x015c8fd8        0xa c:/mingw/bin/../lib/gcc/mingw32/3.4.2/../../../libmsvcrt.a(dwpds00692.o)
 *fill*         0x015c8fe2        0x2 00
 .idata$6       0x015c8fe4        0xa c:/mingw/bin/../lib/gcc/mingw32/3.4.2/../../../libmsvcrt.a(dwpds00693.o)
 *fill*         0x015c8fee        0x2 00
 .idata$6       0x015c8ff0        0xc c:/mingw/bin/../lib/gcc/mingw32/3.4.2/../../../libmsvcrt.a(dwpds00701.o)
 .idata$6       0x015c8ffc       0x1a c:/mingw/bin/../lib/gcc/mingw32/3.4.2/../../../libshell32.a(dsjes00104.o)
 *fill*         0x015c9016        0x2 00
 .idata$6       0x015c9018       0x14 c:/mingw/bin/../lib/gcc/mingw32/3.4.2/../../../libuser32.a(dgdfs00001.o)
 .idata$6       0x015c902c       0x1a c:/mingw/bin/../lib/gcc/mingw32/3.4.2/../../../libuser32.a(dgdfs00029.o)
 *fill*         0x015c9046        0x2 00
 .idata$6       0x015c9048        0xe c:/mingw/bin/../lib/gcc/mingw32/3.4.2/../../../libuser32.a(dgdfs00045.o)
 *fill*         0x015c9056        0x2 00
 .idata$6       0x015c9058       0x16 c:/mingw/bin/../lib/gcc/mingw32/3.4.2/../../../libuser32.a(dgdfs00079.o)
 *fill*         0x015c906e        0x2 00
 .idata$6       0x015c9070       0x12 c:/mingw/bin/../lib/gcc/mingw32/3.4.2/../../../libuser32.a(dgdfs00089.o)
 *fill*         0x015c9082        0x2 00
 .idata$6       0x015c9084       0x12 c:/mingw/bin/../lib/gcc/mingw32/3.4.2/../../../libuser32.a(dgdfs00133.o)
 *fill*         0x015c9096        0x2 00
 .idata$6       0x015c9098       0x10 c:/mingw/bin/../lib/gcc/mingw32/3.4.2/../../../libuser32.a(dgdfs00143.o)
 .idata$6       0x015c90a8       0x14 c:/mingw/bin/../lib/gcc/mingw32/3.4.2/../../../libuser32.a(dgdfs00148.o)
 .idata$6       0x015c90bc       0x18 c:/mingw/bin/../lib/gcc/mingw32/3.4.2/../../../libuser32.a(dgdfs00193.o)
 .idata$6       0x015c90d4       0x10 c:/mingw/bin/../lib/gcc/mingw32/3.4.2/../../../libuser32.a(dgdfs00235.o)
 .idata$6       0x015c90e4        0x8 c:/mingw/bin/../lib/gcc/mingw32/3.4.2/../../../libuser32.a(dgdfs00247.o)
 .idata$6       0x015c90ec       0x10 c:/mingw/bin/../lib/gcc/mingw32/3.4.2/../../../libuser32.a(dgdfs00251.o)
 .idata$6       0x015c90fc        0xe c:/mingw/bin/../lib/gcc/mingw32/3.4.2/../../../libuser32.a(dgdfs00252.o)
 *fill*         0x015c910a        0x2 00
 .idata$6       0x015c910c        0xe c:/mingw/bin/../lib/gcc/mingw32/3.4.2/../../../libuser32.a(dgdfs00267.o)
 *fill*         0x015c911a        0x2 00
 .idata$6       0x015c911c        0xe c:/mingw/bin/../lib/gcc/mingw32/3.4.2/../../../libuser32.a(dgdfs00322.o)
 *fill*         0x015c912a        0x2 00
 .idata$6       0x015c912c       0x14 c:/mingw/bin/../lib/gcc/mingw32/3.4.2/../../../libuser32.a(dgdfs00323.o)
 .idata$6       0x015c9140       0x14 c:/mingw/bin/../lib/gcc/mingw32/3.4.2/../../../libuser32.a(dgdfs00325.o)
 .idata$6       0x015c9154       0x12 c:/mingw/bin/../lib/gcc/mingw32/3.4.2/../../../libuser32.a(dgdfs00340.o)
 *fill*         0x015c9166        0x2 00
 .idata$6       0x015c9168       0x10 c:/mingw/bin/../lib/gcc/mingw32/3.4.2/../../../libuser32.a(dgdfs00346.o)
 .idata$6       0x015c9178       0x14 c:/mingw/bin/../lib/gcc/mingw32/3.4.2/../../../libuser32.a(dgdfs00381.o)
 .idata$6       0x015c918c        0xc c:/mingw/bin/../lib/gcc/mingw32/3.4.2/../../../libuser32.a(dgdfs00390.o)
 .idata$6       0x015c9198        0xe c:/mingw/bin/../lib/gcc/mingw32/3.4.2/../../../libuser32.a(dgdfs00399.o)
 *fill*         0x015c91a6        0x2 00
 .idata$6       0x015c91a8        0xe c:/mingw/bin/../lib/gcc/mingw32/3.4.2/../../../libuser32.a(dgdfs00401.o)
 *fill*         0x015c91b6        0x2 00
 .idata$6       0x015c91b8        0xe c:/mingw/bin/../lib/gcc/mingw32/3.4.2/../../../libuser32.a(dgdfs00407.o)
 *fill*         0x015c91c6        0x2 00
 .idata$6       0x015c91c8        0xe c:/mingw/bin/../lib/gcc/mingw32/3.4.2/../../../libuser32.a(dgdfs00430.o)
 *fill*         0x015c91d6        0x2 00
 .idata$6       0x015c91d8        0xe c:/mingw/bin/../lib/gcc/mingw32/3.4.2/../../../libuser32.a(dgdfs00441.o)
 *fill*         0x015c91e6        0x2 00
 .idata$6       0x015c91e8       0x1c c:/mingw/bin/../lib/gcc/mingw32/3.4.2/../../../libuser32.a(dgdfs00442.o)
 .idata$6       0x015c9204       0x10 c:/mingw/bin/../lib/gcc/mingw32/3.4.2/../../../libuser32.a(dgdfs00460.o)
 .idata$6       0x015c9214       0x14 c:/mingw/bin/../lib/gcc/mingw32/3.4.2/../../../libuser32.a(dgdfs00476.o)
 .idata$6       0x015c9228       0x12 c:/mingw/bin/../lib/gcc/mingw32/3.4.2/../../../libuser32.a(dgdfs00483.o)
 *fill*         0x015c923a        0x2 00
 .idata$6       0x015c923c        0xc c:/mingw/bin/../lib/gcc/mingw32/3.4.2/../../../libuser32.a(dgdfs00488.o)
 .idata$6       0x015c9248       0x16 c:/mingw/bin/../lib/gcc/mingw32/3.4.2/../../../libuser32.a(dgdfs00499.o)
 *fill*         0x015c925e        0x2 00
 .idata$6       0x015c9260       0x10 c:/mingw/bin/../lib/gcc/mingw32/3.4.2/../../../libuser32.a(dgdfs00502.o)
 .idata$6       0x015c9270        0xc c:/mingw/bin/../lib/gcc/mingw32/3.4.2/../../../libuser32.a(dgdfs00527.o)
 .idata$6       0x015c927c       0x16 c:/mingw/bin/../lib/gcc/mingw32/3.4.2/../../../libuser32.a(dgdfs00528.o)
 *fill*         0x015c9292        0x2 00
 .idata$6       0x015c9294       0x10 c:/mingw/bin/../lib/gcc/mingw32/3.4.2/../../../libuser32.a(dgdfs00552.o)
 .idata$6       0x015c92a4       0x12 c:/mingw/bin/../lib/gcc/mingw32/3.4.2/../../../libuser32.a(dgdfs00563.o)
 *fill*         0x015c92b6        0x2 00
 .idata$6       0x015c92b8       0x10 c:/mingw/bin/../lib/gcc/mingw32/3.4.2/../../../libuser32.a(dgdfs00566.o)
 .idata$6       0x015c92c8       0x12 c:/mingw/bin/../lib/gcc/mingw32/3.4.2/../../../libuser32.a(dgdfs00568.o)
 *fill*         0x015c92da        0x2 00
 .idata$6       0x015c92dc        0xe c:/mingw/bin/../lib/gcc/mingw32/3.4.2/../../../libuser32.a(dgdfs00579.o)
 *fill*         0x015c92ea        0x2 00
 .idata$6       0x015c92ec       0x14 c:/mingw/bin/../lib/gcc/mingw32/3.4.2/../../../libuser32.a(dgdfs00602.o)
 .idata$6       0x015c9300       0x14 c:/mingw/bin/../lib/gcc/mingw32/3.4.2/../../../libuser32.a(dgdfs00612.o)
 .idata$6       0x015c9314       0x10 c:/mingw/bin/../lib/gcc/mingw32/3.4.2/../../../libuser32.a(dgdfs00614.o)
 .idata$6       0x015c9324        0xc c:/mingw/bin/../lib/gcc/mingw32/3.4.2/../../../libuser32.a(dgdfs00633.o)
 .idata$6       0x015c9330       0x16 c:/mingw/bin/../lib/gcc/mingw32/3.4.2/../../../libwinmm.a(dgtfs00074.o)
 *fill*         0x015c9346        0x2 00
 .idata$6       0x015c9348       0x12 c:/mingw/bin/../lib/gcc/mingw32/3.4.2/../../../libwinmm.a(dgtfs00081.o)
 *fill*         0x015c935a        0x2 00
 .idata$6       0x015c935c       0x18 c:/mingw/bin/../lib/gcc/mingw32/3.4.2/../../../libwinmm.a(dgtfs00084.o)
 .idata$6       0x015c9374       0x12 c:/mingw/bin/../lib/gcc/mingw32/3.4.2/../../../libwinmm.a(dgtfs00087.o)
 *fill*         0x015c9386        0x2 00
 .idata$6       0x015c9388       0x1a c:/mingw/bin/../lib/gcc/mingw32/3.4.2/../../../libwinmm.a(dgtfs00088.o)
 *fill*         0x015c93a2        0x2 00
 .idata$6       0x015c93a4       0x12 c:/mingw/bin/../lib/gcc/mingw32/3.4.2/../../../libwinmm.a(dgtfs00089.o)
 *fill*         0x015c93b6        0x2 00
 .idata$6       0x015c93b8       0x12 c:/mingw/bin/../lib/gcc/mingw32/3.4.2/../../../libwinmm.a(dgtfs00090.o)
 *fill*         0x015c93ca        0x2 00
 .idata$6       0x015c93cc       0x10 c:/mingw/bin/../lib/gcc/mingw32/3.4.2/../../../libwinmm.a(dgtfs00091.o)
 .idata$6       0x015c93dc       0x12 c:/mingw/bin/../lib/gcc/mingw32/3.4.2/../../../libwinmm.a(dgtfs00092.o)
 *fill*         0x015c93ee        0x2 00
 .idata$6       0x015c93f0       0x16 c:/mingw/bin/../lib/gcc/mingw32/3.4.2/../../../libwinmm.a(dgtfs00094.o)
 *fill*         0x015c9406        0x2 00
 .idata$6       0x015c9408       0x14 c:/mingw/bin/../lib/gcc/mingw32/3.4.2/../../../libwinmm.a(dgtfs00095.o)
 .idata$6       0x015c941c       0x12 c:/mingw/bin/../lib/gcc/mingw32/3.4.2/../../../libwinmm.a(dgtfs00096.o)
 *fill*         0x015c942e        0x2 00
 .idata$6       0x015c9430        0xe c:/mingw/bin/../lib/gcc/mingw32/3.4.2/../../../libwsock32.a(deoes00025.o)
 *fill*         0x015c943e        0x2 00
 .idata$6       0x015c9440        0xe c:/mingw/bin/../lib/gcc/mingw32/3.4.2/../../../libwsock32.a(deoes00031.o)
 *fill*         0x015c944e        0x2 00
 .idata$6       0x015c9450        0x8 c:/mingw/bin/../lib/gcc/mingw32/3.4.2/../../../libwsock32.a(deoes00036.o)
 .idata$6       0x015c9458        0xe c:/mingw/bin/../lib/gcc/mingw32/3.4.2/../../../libwsock32.a(deoes00037.o)
 *fill*         0x015c9466        0x2 00
 .idata$6       0x015c9468       0x10 c:/mingw/bin/../lib/gcc/mingw32/3.4.2/../../../libwsock32.a(deoes00041.o)
 .idata$6       0x015c9478        0xe c:/mingw/bin/../lib/gcc/mingw32/3.4.2/../../../libwsock32.a(deoes00042.o)
 *fill*         0x015c9486        0x2 00
 .idata$6       0x015c9488        0x8 c:/mingw/bin/../lib/gcc/mingw32/3.4.2/../../../libwsock32.a(deoes00052.o)
 .idata$6       0x015c9490        0xc c:/mingw/bin/../lib/gcc/mingw32/3.4.2/../../../libwsock32.a(deoes00053.o)
 .idata$6       0x015c949c        0xc c:/mingw/bin/../lib/gcc/mingw32/3.4.2/../../../libwsock32.a(deoes00055.o)
 .idata$6       0x015c94a8        0xe c:/mingw/bin/../lib/gcc/mingw32/3.4.2/../../../libwsock32.a(deoes00056.o)
 *fill*         0x015c94b6        0x2 00
 .idata$6       0x015c94b8        0x8 c:/mingw/bin/../lib/gcc/mingw32/3.4.2/../../../libwsock32.a(deoes00059.o)
 .idata$6       0x015c94c0        0xc c:/mingw/bin/../lib/gcc/mingw32/3.4.2/../../../libwsock32.a(deoes00062.o)
 .idata$6       0x015c94cc        0xa c:/mingw/bin/../lib/gcc/mingw32/3.4.2/../../../libwsock32.a(deoes00068.o)
 *fill*         0x015c94d6        0x2 00
 .idata$6       0x015c94d8        0xa c:/mingw/bin/../lib/gcc/mingw32/3.4.2/../../../libwsock32.a(deoes00072.o)
 SORT(*)(.idata$7)
 *fill*         0x015c94e2        0x2 00
 .idata$7       0x015c94e4        0x4 c:/mingw/bin/../lib/gcc/mingw32/3.4.2/../../../libgdi32.a(deubs00012.o)
 .idata$7       0x015c94e8        0x4 c:/mingw/bin/../lib/gcc/mingw32/3.4.2/../../../libgdi32.a(deubs00015.o)
 .idata$7       0x015c94ec        0x4 c:/mingw/bin/../lib/gcc/mingw32/3.4.2/../../../libgdi32.a(deubs00033.o)
 .idata$7       0x015c94f0        0x4 c:/mingw/bin/../lib/gcc/mingw32/3.4.2/../../../libgdi32.a(deubs00038.o)
 .idata$7       0x015c94f4        0x4 c:/mingw/bin/../lib/gcc/mingw32/3.4.2/../../../libgdi32.a(deubs00055.o)
 .idata$7       0x015c94f8        0x4 c:/mingw/bin/../lib/gcc/mingw32/3.4.2/../../../libgdi32.a(deubs00069.o)
 .idata$7       0x015c94fc        0x4 c:/mingw/bin/../lib/gcc/mingw32/3.4.2/../../../libgdi32.a(deubs00072.o)
 .idata$7       0x015c9500        0x4 c:/mingw/bin/../lib/gcc/mingw32/3.4.2/../../../libgdi32.a(deubs00145.o)
 .idata$7       0x015c9504        0x4 c:/mingw/bin/../lib/gcc/mingw32/3.4.2/../../../libgdi32.a(deubs00146.o)
 .idata$7       0x015c9508        0x4 c:/mingw/bin/../lib/gcc/mingw32/3.4.2/../../../libgdi32.a(deubs00256.o)
 .idata$7       0x015c950c        0x4 c:/mingw/bin/../lib/gcc/mingw32/3.4.2/../../../libgdi32.a(deubs00277.o)
 .idata$7       0x015c9510        0x4 c:/mingw/bin/../lib/gcc/mingw32/3.4.2/../../../libgdi32.a(deubs00278.o)
 .idata$7       0x015c9514        0x4 c:/mingw/bin/../lib/gcc/mingw32/3.4.2/../../../libgdi32.a(deubs00291.o)
 .idata$7       0x015c9518        0x4 c:/mingw/bin/../lib/gcc/mingw32/3.4.2/../../../libgdi32.a(deubs00294.o)
 .idata$7       0x015c951c        0x4 c:/mingw/bin/../lib/gcc/mingw32/3.4.2/../../../libgdi32.a(deubs00306.o)
 .idata$7       0x015c9520        0x4 c:/mingw/bin/../lib/gcc/mingw32/3.4.2/../../../libgdi32.a(deubs00308.o)
 .idata$7       0x015c9524        0x4 c:/mingw/bin/../lib/gcc/mingw32/3.4.2/../../../libgdi32.a(deubs00315.o)
 .idata$7       0x015c9528        0xc c:/mingw/bin/../lib/gcc/mingw32/3.4.2/../../../libgdi32.a(deubt.o)
                0x015c9528                _libgdi32_a_iname
 .idata$7       0x015c9534        0x4 c:/mingw/bin/../lib/gcc/mingw32/3.4.2/../../../libkernel32.a(dqifs00001.o)
 .idata$7       0x015c9538        0x4 c:/mingw/bin/../lib/gcc/mingw32/3.4.2/../../../libkernel32.a(dqifs00038.o)
 .idata$7       0x015c953c        0x4 c:/mingw/bin/../lib/gcc/mingw32/3.4.2/../../../libkernel32.a(dqifs00064.o)
 .idata$7       0x015c9540        0x4 c:/mingw/bin/../lib/gcc/mingw32/3.4.2/../../../libkernel32.a(dqifs00087.o)
 .idata$7       0x015c9544        0x4 c:/mingw/bin/../lib/gcc/mingw32/3.4.2/../../../libkernel32.a(dqifs00090.o)
 .idata$7       0x015c9548        0x4 c:/mingw/bin/../lib/gcc/mingw32/3.4.2/../../../libkernel32.a(dqifs00125.o)
 .idata$7       0x015c954c        0x4 c:/mingw/bin/../lib/gcc/mingw32/3.4.2/../../../libkernel32.a(dqifs00155.o)
 .idata$7       0x015c9550        0x4 c:/mingw/bin/../lib/gcc/mingw32/3.4.2/../../../libkernel32.a(dqifs00175.o)
 .idata$7       0x015c9554        0x4 c:/mingw/bin/../lib/gcc/mingw32/3.4.2/../../../libkernel32.a(dqifs00177.o)
 .idata$7       0x015c9558        0x4 c:/mingw/bin/../lib/gcc/mingw32/3.4.2/../../../libkernel32.a(dqifs00181.o)
 .idata$7       0x015c955c        0x4 c:/mingw/bin/../lib/gcc/mingw32/3.4.2/../../../libkernel32.a(dqifs00190.o)
 .idata$7       0x015c9560        0x4 c:/mingw/bin/../lib/gcc/mingw32/3.4.2/../../../libkernel32.a(dqifs00208.o)
 .idata$7       0x015c9564        0x4 c:/mingw/bin/../lib/gcc/mingw32/3.4.2/../../../libkernel32.a(dqifs00213.o)
 .idata$7       0x015c9568        0x4 c:/mingw/bin/../lib/gcc/mingw32/3.4.2/../../../libkernel32.a(dqifs00220.o)
 .idata$7       0x015c956c        0x4 c:/mingw/bin/../lib/gcc/mingw32/3.4.2/../../../libkernel32.a(dqifs00236.o)
 .idata$7       0x015c9570        0x4 c:/mingw/bin/../lib/gcc/mingw32/3.4.2/../../../libkernel32.a(dqifs00281.o)
 .idata$7       0x015c9574        0x4 c:/mingw/bin/../lib/gcc/mingw32/3.4.2/../../../libkernel32.a(dqifs00306.o)
 .idata$7       0x015c9578        0x4 c:/mingw/bin/../lib/gcc/mingw32/3.4.2/../../../libkernel32.a(dqifs00323.o)
 .idata$7       0x015c957c        0x4 c:/mingw/bin/../lib/gcc/mingw32/3.4.2/../../../libkernel32.a(dqifs00329.o)
 .idata$7       0x015c9580        0x4 c:/mingw/bin/../lib/gcc/mingw32/3.4.2/../../../libkernel32.a(dqifs00335.o)
 .idata$7       0x015c9584        0x4 c:/mingw/bin/../lib/gcc/mingw32/3.4.2/../../../libkernel32.a(dqifs00362.o)
 .idata$7       0x015c9588        0x4 c:/mingw/bin/../lib/gcc/mingw32/3.4.2/../../../libkernel32.a(dqifs00384.o)
 .idata$7       0x015c958c        0x4 c:/mingw/bin/../lib/gcc/mingw32/3.4.2/../../../libkernel32.a(dqifs00421.o)
 .idata$7       0x015c9590        0x4 c:/mingw/bin/../lib/gcc/mingw32/3.4.2/../../../libkernel32.a(dqifs00431.o)
 .idata$7       0x015c9594        0x4 c:/mingw/bin/../lib/gcc/mingw32/3.4.2/../../../libkernel32.a(dqifs00458.o)
 .idata$7       0x015c9598        0x4 c:/mingw/bin/../lib/gcc/mingw32/3.4.2/../../../libkernel32.a(dqifs00490.o)
 .idata$7       0x015c959c        0x4 c:/mingw/bin/../lib/gcc/mingw32/3.4.2/../../../libkernel32.a(dqifs00521.o)
 .idata$7       0x015c95a0        0x4 c:/mingw/bin/../lib/gcc/mingw32/3.4.2/../../../libkernel32.a(dqifs00522.o)
 .idata$7       0x015c95a4        0x4 c:/mingw/bin/../lib/gcc/mingw32/3.4.2/../../../libkernel32.a(dqifs00595.o)
 .idata$7       0x015c95a8        0x4 c:/mingw/bin/../lib/gcc/mingw32/3.4.2/../../../libkernel32.a(dqifs00596.o)
 .idata$7       0x015c95ac        0x4 c:/mingw/bin/../lib/gcc/mingw32/3.4.2/../../../libkernel32.a(dqifs00638.o)
 .idata$7       0x015c95b0        0x4 c:/mingw/bin/../lib/gcc/mingw32/3.4.2/../../../libkernel32.a(dqifs00695.o)
 .idata$7       0x015c95b4        0x4 c:/mingw/bin/../lib/gcc/mingw32/3.4.2/../../../libkernel32.a(dqifs00716.o)
 .idata$7       0x015c95b8        0x4 c:/mingw/bin/../lib/gcc/mingw32/3.4.2/../../../libkernel32.a(dqifs00732.o)
 .idata$7       0x015c95bc        0x4 c:/mingw/bin/../lib/gcc/mingw32/3.4.2/../../../libkernel32.a(dqifs00736.o)
 .idata$7       0x015c95c0        0x4 c:/mingw/bin/../lib/gcc/mingw32/3.4.2/../../../libkernel32.a(dqifs00804.o)
 .idata$7       0x015c95c4        0x4 c:/mingw/bin/../lib/gcc/mingw32/3.4.2/../../../libkernel32.a(dqifs00806.o)
 .idata$7       0x015c95c8       0x10 c:/mingw/bin/../lib/gcc/mingw32/3.4.2/../../../libkernel32.a(dqift.o)
                0x015c95c8                _libkernel32_a_iname
 .idata$7       0x015c95d8        0x4 c:/mingw/bin/../lib/gcc/mingw32/3.4.2/../../../libmoldname.a(duuds00000.o)
 .idata$7       0x015c95dc        0x4 c:/mingw/bin/../lib/gcc/mingw32/3.4.2/../../../libmoldname.a(duuds00002.o)
 .idata$7       0x015c95e0        0x4 c:/mingw/bin/../lib/gcc/mingw32/3.4.2/../../../libmoldname.a(duuds00006.o)
 .idata$7       0x015c95e4        0x4 c:/mingw/bin/../lib/gcc/mingw32/3.4.2/../../../libmoldname.a(duuds00023.o)
 .idata$7       0x015c95e8        0x4 c:/mingw/bin/../lib/gcc/mingw32/3.4.2/../../../libmoldname.a(duuds00026.o)
 .idata$7       0x015c95ec        0x4 c:/mingw/bin/../lib/gcc/mingw32/3.4.2/../../../libmoldname.a(duuds00032.o)
 .idata$7       0x015c95f0        0x4 c:/mingw/bin/../lib/gcc/mingw32/3.4.2/../../../libmoldname.a(duuds00037.o)
 .idata$7       0x015c95f4        0x4 c:/mingw/bin/../lib/gcc/mingw32/3.4.2/../../../libmoldname.a(duuds00051.o)
 .idata$7       0x015c95f8        0x4 c:/mingw/bin/../lib/gcc/mingw32/3.4.2/../../../libmoldname.a(duuds00055.o)
 .idata$7       0x015c95fc        0x4 c:/mingw/bin/../lib/gcc/mingw32/3.4.2/../../../libmoldname.a(duuds00058.o)
 .idata$7       0x015c9600        0x4 c:/mingw/bin/../lib/gcc/mingw32/3.4.2/../../../libmoldname.a(duuds00064.o)
 .idata$7       0x015c9604        0x4 c:/mingw/bin/../lib/gcc/mingw32/3.4.2/../../../libmoldname.a(duuds00079.o)
 .idata$7       0x015c9608        0x4 c:/mingw/bin/../lib/gcc/mingw32/3.4.2/../../../libmoldname.a(duuds00081.o)
 .idata$7       0x015c960c        0x4 c:/mingw/bin/../lib/gcc/mingw32/3.4.2/../../../libmoldname.a(duuds00110.o)
 .idata$7       0x015c9610        0xc c:/mingw/bin/../lib/gcc/mingw32/3.4.2/../../../libmoldname.a(duudt.o)
                0x015c9610                _libmoldname_a_iname
 .idata$7       0x015c961c        0x4 c:/mingw/bin/../lib/gcc/mingw32/3.4.2/../../../libmsvcrt.a(dwpds00039.o)
 .idata$7       0x015c9620        0x4 c:/mingw/bin/../lib/gcc/mingw32/3.4.2/../../../libmsvcrt.a(dwpds00048.o)
 .idata$7       0x015c9624        0x4 c:/mingw/bin/../lib/gcc/mingw32/3.4.2/../../../libmsvcrt.a(dwpds00060.o)
 .idata$7       0x015c9628        0x4 c:/mingw/bin/../lib/gcc/mingw32/3.4.2/../../../libmsvcrt.a(dwpds00062.o)
 .idata$7       0x015c962c        0x4 c:/mingw/bin/../lib/gcc/mingw32/3.4.2/../../../libmsvcrt.a(dwpds00080.o)
 .idata$7       0x015c9630        0x4 c:/mingw/bin/../lib/gcc/mingw32/3.4.2/../../../libmsvcrt.a(dwpds00121.o)
 .idata$7       0x015c9634        0x4 c:/mingw/bin/../lib/gcc/mingw32/3.4.2/../../../libmsvcrt.a(dwpds00152.o)
 .idata$7       0x015c9638        0x4 c:/mingw/bin/../lib/gcc/mingw32/3.4.2/../../../libmsvcrt.a(dwpds00175.o)
 .idata$7       0x015c963c        0x4 c:/mingw/bin/../lib/gcc/mingw32/3.4.2/../../../libmsvcrt.a(dwpds00176.o)
 .idata$7       0x015c9640        0x4 c:/mingw/bin/../lib/gcc/mingw32/3.4.2/../../../libmsvcrt.a(dwpds00179.o)
 .idata$7       0x015c9644        0x4 c:/mingw/bin/../lib/gcc/mingw32/3.4.2/../../../libmsvcrt.a(dwpds00198.o)
 .idata$7       0x015c9648        0x4 c:/mingw/bin/../lib/gcc/mingw32/3.4.2/../../../libmsvcrt.a(dwpds00207.o)
 .idata$7       0x015c964c        0x4 c:/mingw/bin/../lib/gcc/mingw32/3.4.2/../../../libmsvcrt.a(dwpds00233.o)
 .idata$7       0x015c9650        0x4 c:/mingw/bin/../lib/gcc/mingw32/3.4.2/../../../libmsvcrt.a(dwpds00235.o)
 .idata$7       0x015c9654        0x4 c:/mingw/bin/../lib/gcc/mingw32/3.4.2/../../../libmsvcrt.a(dwpds00280.o)
 .idata$7       0x015c9658        0x4 c:/mingw/bin/../lib/gcc/mingw32/3.4.2/../../../libmsvcrt.a(dwpds00350.o)
 .idata$7       0x015c965c        0x4 c:/mingw/bin/../lib/gcc/mingw32/3.4.2/../../../libmsvcrt.a(dwpds00359.o)
 .idata$7       0x015c9660        0x4 c:/mingw/bin/../lib/gcc/mingw32/3.4.2/../../../libmsvcrt.a(dwpds00388.o)
 .idata$7       0x015c9664        0x4 c:/mingw/bin/../lib/gcc/mingw32/3.4.2/../../../libmsvcrt.a(dwpds00411.o)
 .idata$7       0x015c9668        0x4 c:/mingw/bin/../lib/gcc/mingw32/3.4.2/../../../libmsvcrt.a(dwpds00415.o)
 .idata$7       0x015c966c        0x4 c:/mingw/bin/../lib/gcc/mingw32/3.4.2/../../../libmsvcrt.a(dwpds00445.o)
 .idata$7       0x015c9670        0x4 c:/mingw/bin/../lib/gcc/mingw32/3.4.2/../../../libmsvcrt.a(dwpds00533.o)
 .idata$7       0x015c9674        0x4 c:/mingw/bin/../lib/gcc/mingw32/3.4.2/../../../libmsvcrt.a(dwpds00536.o)
 .idata$7       0x015c9678        0x4 c:/mingw/bin/../lib/gcc/mingw32/3.4.2/../../../libmsvcrt.a(dwpds00540.o)
 .idata$7       0x015c967c        0x4 c:/mingw/bin/../lib/gcc/mingw32/3.4.2/../../../libmsvcrt.a(dwpds00542.o)
 .idata$7       0x015c9680        0x4 c:/mingw/bin/../lib/gcc/mingw32/3.4.2/../../../libmsvcrt.a(dwpds00543.o)
 .idata$7       0x015c9684        0x4 c:/mingw/bin/../lib/gcc/mingw32/3.4.2/../../../libmsvcrt.a(dwpds00545.o)
 .idata$7       0x015c9688        0x4 c:/mingw/bin/../lib/gcc/mingw32/3.4.2/../../../libmsvcrt.a(dwpds00549.o)
 .idata$7       0x015c968c        0x4 c:/mingw/bin/../lib/gcc/mingw32/3.4.2/../../../libmsvcrt.a(dwpds00554.o)
 .idata$7       0x015c9690        0x4 c:/mingw/bin/../lib/gcc/mingw32/3.4.2/../../../libmsvcrt.a(dwpds00557.o)
 .idata$7       0x015c9694        0x4 c:/mingw/bin/../lib/gcc/mingw32/3.4.2/../../../libmsvcrt.a(dwpds00560.o)
 .idata$7       0x015c9698        0x4 c:/mingw/bin/../lib/gcc/mingw32/3.4.2/../../../libmsvcrt.a(dwpds00563.o)
 .idata$7       0x015c969c        0x4 c:/mingw/bin/../lib/gcc/mingw32/3.4.2/../../../libmsvcrt.a(dwpds00566.o)
 .idata$7       0x015c96a0        0x4 c:/mingw/bin/../lib/gcc/mingw32/3.4.2/../../../libmsvcrt.a(dwpds00568.o)
 .idata$7       0x015c96a4        0x4 c:/mingw/bin/../lib/gcc/mingw32/3.4.2/../../../libmsvcrt.a(dwpds00569.o)
 .idata$7       0x015c96a8        0x4 c:/mingw/bin/../lib/gcc/mingw32/3.4.2/../../../libmsvcrt.a(dwpds00570.o)
 .idata$7       0x015c96ac        0x4 c:/mingw/bin/../lib/gcc/mingw32/3.4.2/../../../libmsvcrt.a(dwpds00571.o)
 .idata$7       0x015c96b0        0x4 c:/mingw/bin/../lib/gcc/mingw32/3.4.2/../../../libmsvcrt.a(dwpds00574.o)
 .idata$7       0x015c96b4        0x4 c:/mingw/bin/../lib/gcc/mingw32/3.4.2/../../../libmsvcrt.a(dwpds00575.o)
 .idata$7       0x015c96b8        0x4 c:/mingw/bin/../lib/gcc/mingw32/3.4.2/../../../libmsvcrt.a(dwpds00576.o)
 .idata$7       0x015c96bc        0x4 c:/mingw/bin/../lib/gcc/mingw32/3.4.2/../../../libmsvcrt.a(dwpds00579.o)
 .idata$7       0x015c96c0        0x4 c:/mingw/bin/../lib/gcc/mingw32/3.4.2/../../../libmsvcrt.a(dwpds00581.o)
 .idata$7       0x015c96c4        0x4 c:/mingw/bin/../lib/gcc/mingw32/3.4.2/../../../libmsvcrt.a(dwpds00583.o)
 .idata$7       0x015c96c8        0x4 c:/mingw/bin/../lib/gcc/mingw32/3.4.2/../../../libmsvcrt.a(dwpds00587.o)
 .idata$7       0x015c96cc        0x4 c:/mingw/bin/../lib/gcc/mingw32/3.4.2/../../../libmsvcrt.a(dwpds00622.o)
 .idata$7       0x015c96d0        0x4 c:/mingw/bin/../lib/gcc/mingw32/3.4.2/../../../libmsvcrt.a(dwpds00626.o)
 .idata$7       0x015c96d4        0x4 c:/mingw/bin/../lib/gcc/mingw32/3.4.2/../../../libmsvcrt.a(dwpds00632.o)
 .idata$7       0x015c96d8        0x4 c:/mingw/bin/../lib/gcc/mingw32/3.4.2/../../../libmsvcrt.a(dwpds00633.o)
 .idata$7       0x015c96dc        0x4 c:/mingw/bin/../lib/gcc/mingw32/3.4.2/../../../libmsvcrt.a(dwpds00634.o)
 .idata$7       0x015c96e0        0x4 c:/mingw/bin/../lib/gcc/mingw32/3.4.2/../../../libmsvcrt.a(dwpds00638.o)
 .idata$7       0x015c96e4        0x4 c:/mingw/bin/../lib/gcc/mingw32/3.4.2/../../../libmsvcrt.a(dwpds00639.o)
 .idata$7       0x015c96e8        0x4 c:/mingw/bin/../lib/gcc/mingw32/3.4.2/../../../libmsvcrt.a(dwpds00642.o)
 .idata$7       0x015c96ec        0x4 c:/mingw/bin/../lib/gcc/mingw32/3.4.2/../../../libmsvcrt.a(dwpds00645.o)
 .idata$7       0x015c96f0        0x4 c:/mingw/bin/../lib/gcc/mingw32/3.4.2/../../../libmsvcrt.a(dwpds00647.o)
 .idata$7       0x015c96f4        0x4 c:/mingw/bin/../lib/gcc/mingw32/3.4.2/../../../libmsvcrt.a(dwpds00648.o)
 .idata$7       0x015c96f8        0x4 c:/mingw/bin/../lib/gcc/mingw32/3.4.2/../../../libmsvcrt.a(dwpds00655.o)
 .idata$7       0x015c96fc        0x4 c:/mingw/bin/../lib/gcc/mingw32/3.4.2/../../../libmsvcrt.a(dwpds00656.o)
 .idata$7       0x015c9700        0x4 c:/mingw/bin/../lib/gcc/mingw32/3.4.2/../../../libmsvcrt.a(dwpds00657.o)
 .idata$7       0x015c9704        0x4 c:/mingw/bin/../lib/gcc/mingw32/3.4.2/../../../libmsvcrt.a(dwpds00659.o)
 .idata$7       0x015c9708        0x4 c:/mingw/bin/../lib/gcc/mingw32/3.4.2/../../../libmsvcrt.a(dwpds00660.o)
 .idata$7       0x015c970c        0x4 c:/mingw/bin/../lib/gcc/mingw32/3.4.2/../../../libmsvcrt.a(dwpds00663.o)
 .idata$7       0x015c9710        0x4 c:/mingw/bin/../lib/gcc/mingw32/3.4.2/../../../libmsvcrt.a(dwpds00664.o)
 .idata$7       0x015c9714        0x4 c:/mingw/bin/../lib/gcc/mingw32/3.4.2/../../../libmsvcrt.a(dwpds00665.o)
 .idata$7       0x015c9718        0x4 c:/mingw/bin/../lib/gcc/mingw32/3.4.2/../../../libmsvcrt.a(dwpds00667.o)
 .idata$7       0x015c971c        0x4 c:/mingw/bin/../lib/gcc/mingw32/3.4.2/../../../libmsvcrt.a(dwpds00669.o)
 .idata$7       0x015c9720        0x4 c:/mingw/bin/../lib/gcc/mingw32/3.4.2/../../../libmsvcrt.a(dwpds00671.o)
 .idata$7       0x015c9724        0x4 c:/mingw/bin/../lib/gcc/mingw32/3.4.2/../../../libmsvcrt.a(dwpds00672.o)
 .idata$7       0x015c9728        0x4 c:/mingw/bin/../lib/gcc/mingw32/3.4.2/../../../libmsvcrt.a(dwpds00674.o)
 .idata$7       0x015c972c        0x4 c:/mingw/bin/../lib/gcc/mingw32/3.4.2/../../../libmsvcrt.a(dwpds00676.o)
 .idata$7       0x015c9730        0x4 c:/mingw/bin/../lib/gcc/mingw32/3.4.2/../../../libmsvcrt.a(dwpds00680.o)
 .idata$7       0x015c9734        0x4 c:/mingw/bin/../lib/gcc/mingw32/3.4.2/../../../libmsvcrt.a(dwpds00681.o)
 .idata$7       0x015c9738        0x4 c:/mingw/bin/../lib/gcc/mingw32/3.4.2/../../../libmsvcrt.a(dwpds00682.o)
 .idata$7       0x015c973c        0x4 c:/mingw/bin/../lib/gcc/mingw32/3.4.2/../../../libmsvcrt.a(dwpds00689.o)
 .idata$7       0x015c9740        0x4 c:/mingw/bin/../lib/gcc/mingw32/3.4.2/../../../libmsvcrt.a(dwpds00692.o)
 .idata$7       0x015c9744        0x4 c:/mingw/bin/../lib/gcc/mingw32/3.4.2/../../../libmsvcrt.a(dwpds00693.o)
 .idata$7       0x015c9748        0x4 c:/mingw/bin/../lib/gcc/mingw32/3.4.2/../../../libmsvcrt.a(dwpds00701.o)
 .idata$7       0x015c974c        0xc c:/mingw/bin/../lib/gcc/mingw32/3.4.2/../../../libmsvcrt.a(dwpdt.o)
                0x015c974c                _libmsvcrt_a_iname
 .idata$7       0x015c9758        0x4 c:/mingw/bin/../lib/gcc/mingw32/3.4.2/../../../libshell32.a(dsjes00104.o)
 .idata$7       0x015c975c        0xc c:/mingw/bin/../lib/gcc/mingw32/3.4.2/../../../libshell32.a(dsjet.o)
                0x015c975c                _libshell32_a_iname
 .idata$7       0x015c9768        0x4 c:/mingw/bin/../lib/gcc/mingw32/3.4.2/../../../libuser32.a(dgdfs00001.o)
 .idata$7       0x015c976c        0x4 c:/mingw/bin/../lib/gcc/mingw32/3.4.2/../../../libuser32.a(dgdfs00029.o)
 .idata$7       0x015c9770        0x4 c:/mingw/bin/../lib/gcc/mingw32/3.4.2/../../../libuser32.a(dgdfs00045.o)
 .idata$7       0x015c9774        0x4 c:/mingw/bin/../lib/gcc/mingw32/3.4.2/../../../libuser32.a(dgdfs00079.o)
 .idata$7       0x015c9778        0x4 c:/mingw/bin/../lib/gcc/mingw32/3.4.2/../../../libuser32.a(dgdfs00089.o)
 .idata$7       0x015c977c        0x4 c:/mingw/bin/../lib/gcc/mingw32/3.4.2/../../../libuser32.a(dgdfs00133.o)
 .idata$7       0x015c9780        0x4 c:/mingw/bin/../lib/gcc/mingw32/3.4.2/../../../libuser32.a(dgdfs00143.o)
 .idata$7       0x015c9784        0x4 c:/mingw/bin/../lib/gcc/mingw32/3.4.2/../../../libuser32.a(dgdfs00148.o)
 .idata$7       0x015c9788        0x4 c:/mingw/bin/../lib/gcc/mingw32/3.4.2/../../../libuser32.a(dgdfs00193.o)
 .idata$7       0x015c978c        0x4 c:/mingw/bin/../lib/gcc/mingw32/3.4.2/../../../libuser32.a(dgdfs00235.o)
 .idata$7       0x015c9790        0x4 c:/mingw/bin/../lib/gcc/mingw32/3.4.2/../../../libuser32.a(dgdfs00247.o)
 .idata$7       0x015c9794        0x4 c:/mingw/bin/../lib/gcc/mingw32/3.4.2/../../../libuser32.a(dgdfs00251.o)
 .idata$7       0x015c9798        0x4 c:/mingw/bin/../lib/gcc/mingw32/3.4.2/../../../libuser32.a(dgdfs00252.o)
 .idata$7       0x015c979c        0x4 c:/mingw/bin/../lib/gcc/mingw32/3.4.2/../../../libuser32.a(dgdfs00267.o)
 .idata$7       0x015c97a0        0x4 c:/mingw/bin/../lib/gcc/mingw32/3.4.2/../../../libuser32.a(dgdfs00322.o)
 .idata$7       0x015c97a4        0x4 c:/mingw/bin/../lib/gcc/mingw32/3.4.2/../../../libuser32.a(dgdfs00323.o)
 .idata$7       0x015c97a8        0x4 c:/mingw/bin/../lib/gcc/mingw32/3.4.2/../../../libuser32.a(dgdfs00325.o)
 .idata$7       0x015c97ac        0x4 c:/mingw/bin/../lib/gcc/mingw32/3.4.2/../../../libuser32.a(dgdfs00340.o)
 .idata$7       0x015c97b0        0x4 c:/mingw/bin/../lib/gcc/mingw32/3.4.2/../../../libuser32.a(dgdfs00346.o)
 .idata$7       0x015c97b4        0x4 c:/mingw/bin/../lib/gcc/mingw32/3.4.2/../../../libuser32.a(dgdfs00381.o)
 .idata$7       0x015c97b8        0x4 c:/mingw/bin/../lib/gcc/mingw32/3.4.2/../../../libuser32.a(dgdfs00390.o)
 .idata$7       0x015c97bc        0x4 c:/mingw/bin/../lib/gcc/mingw32/3.4.2/../../../libuser32.a(dgdfs00399.o)
 .idata$7       0x015c97c0        0x4 c:/mingw/bin/../lib/gcc/mingw32/3.4.2/../../../libuser32.a(dgdfs00401.o)
 .idata$7       0x015c97c4        0x4 c:/mingw/bin/../lib/gcc/mingw32/3.4.2/../../../libuser32.a(dgdfs00407.o)
 .idata$7       0x015c97c8        0x4 c:/mingw/bin/../lib/gcc/mingw32/3.4.2/../../../libuser32.a(dgdfs00430.o)
 .idata$7       0x015c97cc        0x4 c:/mingw/bin/../lib/gcc/mingw32/3.4.2/../../../libuser32.a(dgdfs00441.o)
 .idata$7       0x015c97d0        0x4 c:/mingw/bin/../lib/gcc/mingw32/3.4.2/../../../libuser32.a(dgdfs00442.o)
 .idata$7       0x015c97d4        0x4 c:/mingw/bin/../lib/gcc/mingw32/3.4.2/../../../libuser32.a(dgdfs00460.o)
 .idata$7       0x015c97d8        0x4 c:/mingw/bin/../lib/gcc/mingw32/3.4.2/../../../libuser32.a(dgdfs00476.o)
 .idata$7       0x015c97dc        0x4 c:/mingw/bin/../lib/gcc/mingw32/3.4.2/../../../libuser32.a(dgdfs00483.o)
 .idata$7       0x015c97e0        0x4 c:/mingw/bin/../lib/gcc/mingw32/3.4.2/../../../libuser32.a(dgdfs00488.o)
 .idata$7       0x015c97e4        0x4 c:/mingw/bin/../lib/gcc/mingw32/3.4.2/../../../libuser32.a(dgdfs00499.o)
 .idata$7       0x015c97e8        0x4 c:/mingw/bin/../lib/gcc/mingw32/3.4.2/../../../libuser32.a(dgdfs00502.o)
 .idata$7       0x015c97ec        0x4 c:/mingw/bin/../lib/gcc/mingw32/3.4.2/../../../libuser32.a(dgdfs00527.o)
 .idata$7       0x015c97f0        0x4 c:/mingw/bin/../lib/gcc/mingw32/3.4.2/../../../libuser32.a(dgdfs00528.o)
 .idata$7       0x015c97f4        0x4 c:/mingw/bin/../lib/gcc/mingw32/3.4.2/../../../libuser32.a(dgdfs00552.o)
 .idata$7       0x015c97f8        0x4 c:/mingw/bin/../lib/gcc/mingw32/3.4.2/../../../libuser32.a(dgdfs00563.o)
 .idata$7       0x015c97fc        0x4 c:/mingw/bin/../lib/gcc/mingw32/3.4.2/../../../libuser32.a(dgdfs00566.o)
 .idata$7       0x015c9800        0x4 c:/mingw/bin/../lib/gcc/mingw32/3.4.2/../../../libuser32.a(dgdfs00568.o)
 .idata$7       0x015c9804        0x4 c:/mingw/bin/../lib/gcc/mingw32/3.4.2/../../../libuser32.a(dgdfs00579.o)
 .idata$7       0x015c9808        0x4 c:/mingw/bin/../lib/gcc/mingw32/3.4.2/../../../libuser32.a(dgdfs00602.o)
 .idata$7       0x015c980c        0x4 c:/mingw/bin/../lib/gcc/mingw32/3.4.2/../../../libuser32.a(dgdfs00612.o)
 .idata$7       0x015c9810        0x4 c:/mingw/bin/../lib/gcc/mingw32/3.4.2/../../../libuser32.a(dgdfs00614.o)
 .idata$7       0x015c9814        0x4 c:/mingw/bin/../lib/gcc/mingw32/3.4.2/../../../libuser32.a(dgdfs00633.o)
 .idata$7       0x015c9818        0xc c:/mingw/bin/../lib/gcc/mingw32/3.4.2/../../../libuser32.a(dgdft.o)
                0x015c9818                _libuser32_a_iname
 .idata$7       0x015c9824        0x4 c:/mingw/bin/../lib/gcc/mingw32/3.4.2/../../../libwinmm.a(dgtfs00074.o)
 .idata$7       0x015c9828        0x4 c:/mingw/bin/../lib/gcc/mingw32/3.4.2/../../../libwinmm.a(dgtfs00081.o)
 .idata$7       0x015c982c        0x4 c:/mingw/bin/../lib/gcc/mingw32/3.4.2/../../../libwinmm.a(dgtfs00084.o)
 .idata$7       0x015c9830        0x4 c:/mingw/bin/../lib/gcc/mingw32/3.4.2/../../../libwinmm.a(dgtfs00087.o)
 .idata$7       0x015c9834        0x4 c:/mingw/bin/../lib/gcc/mingw32/3.4.2/../../../libwinmm.a(dgtfs00088.o)
 .idata$7       0x015c9838        0x4 c:/mingw/bin/../lib/gcc/mingw32/3.4.2/../../../libwinmm.a(dgtfs00089.o)
 .idata$7       0x015c983c        0x4 c:/mingw/bin/../lib/gcc/mingw32/3.4.2/../../../libwinmm.a(dgtfs00090.o)
 .idata$7       0x015c9840        0x4 c:/mingw/bin/../lib/gcc/mingw32/3.4.2/../../../libwinmm.a(dgtfs00091.o)
 .idata$7       0x015c9844        0x4 c:/mingw/bin/../lib/gcc/mingw32/3.4.2/../../../libwinmm.a(dgtfs00092.o)
 .idata$7       0x015c9848        0x4 c:/mingw/bin/../lib/gcc/mingw32/3.4.2/../../../libwinmm.a(dgtfs00094.o)
 .idata$7       0x015c984c        0x4 c:/mingw/bin/../lib/gcc/mingw32/3.4.2/../../../libwinmm.a(dgtfs00095.o)
 .idata$7       0x015c9850        0x4 c:/mingw/bin/../lib/gcc/mingw32/3.4.2/../../../libwinmm.a(dgtfs00096.o)
 .idata$7       0x015c9854        0xc c:/mingw/bin/../lib/gcc/mingw32/3.4.2/../../../libwinmm.a(dgtft.o)
                0x015c9854                _libwinmm_a_iname
 .idata$7       0x015c9860        0x4 c:/mingw/bin/../lib/gcc/mingw32/3.4.2/../../../libwsock32.a(deoes00025.o)
 .idata$7       0x015c9864        0x4 c:/mingw/bin/../lib/gcc/mingw32/3.4.2/../../../libwsock32.a(deoes00031.o)
 .idata$7       0x015c9868        0x4 c:/mingw/bin/../lib/gcc/mingw32/3.4.2/../../../libwsock32.a(deoes00036.o)
 .idata$7       0x015c986c        0x4 c:/mingw/bin/../lib/gcc/mingw32/3.4.2/../../../libwsock32.a(deoes00037.o)
 .idata$7       0x015c9870        0x4 c:/mingw/bin/../lib/gcc/mingw32/3.4.2/../../../libwsock32.a(deoes00041.o)
 .idata$7       0x015c9874        0x4 c:/mingw/bin/../lib/gcc/mingw32/3.4.2/../../../libwsock32.a(deoes00042.o)
 .idata$7       0x015c9878        0x4 c:/mingw/bin/../lib/gcc/mingw32/3.4.2/../../../libwsock32.a(deoes00052.o)
 .idata$7       0x015c987c        0x4 c:/mingw/bin/../lib/gcc/mingw32/3.4.2/../../../libwsock32.a(deoes00053.o)
 .idata$7       0x015c9880        0x4 c:/mingw/bin/../lib/gcc/mingw32/3.4.2/../../../libwsock32.a(deoes00055.o)
 .idata$7       0x015c9884        0x4 c:/mingw/bin/../lib/gcc/mingw32/3.4.2/../../../libwsock32.a(deoes00056.o)
 .idata$7       0x015c9888        0x4 c:/mingw/bin/../lib/gcc/mingw32/3.4.2/../../../libwsock32.a(deoes00059.o)
 .idata$7       0x015c988c        0x4 c:/mingw/bin/../lib/gcc/mingw32/3.4.2/../../../libwsock32.a(deoes00062.o)
 .idata$7       0x015c9890        0x4 c:/mingw/bin/../lib/gcc/mingw32/3.4.2/../../../libwsock32.a(deoes00068.o)
 .idata$7       0x015c9894        0x4 c:/mingw/bin/../lib/gcc/mingw32/3.4.2/../../../libwsock32.a(deoes00072.o)
 .idata$7       0x015c9898        0xc c:/mingw/bin/../lib/gcc/mingw32/3.4.2/../../../libwsock32.a(deoet.o)
                0x015c9898                _libwsock32_a_iname

.CRT            0x015ca000        0x0
                0x015ca000                ___crt_xc_start__ = .
 *(SORT(.CRT$XC*))
                0x015ca000                ___crt_xc_end__ = .
                0x015ca000                ___crt_xi_start__ = .
 *(SORT(.CRT$XI*))
                0x015ca000                ___crt_xi_end__ = .
                0x015ca000                ___crt_xl_start__ = .
 *(SORT(.CRT$XL*))
                0x015ca000                ___crt_xp_start__ = .
 *(SORT(.CRT$XP*))
                0x015ca000                ___crt_xp_end__ = .
                0x015ca000                ___crt_xt_start__ = .
 *(SORT(.CRT$XT*))
                0x015ca000                ___crt_xt_end__ = .

.tls            0x015ca000        0x0
                0x015ca000                ___tls_start__ = .
 *(.tls)
 *(.tls$)
 *(SORT(.tls$*))
                0x015ca000                ___tls_end__ = .

.endjunk        0x015ca000        0x0
                0x015ca000                PROVIDE (end, .)
                0x015ca000                PROVIDE (_end, .)
                0x015ca000                __end__ = .

.rsrc           0x015ca000    0x10a00
 *(.rsrc)
 .rsrc          0x015ca000    0x109b0 obj/gameres.o
 *(SORT(.rsrc$*))

.reloc
 *(.reloc)

.stab
 *(.stab)

.stabstr
 *(.stabstr)

.debug_aranges
 *(.debug_aranges)

.debug_pubnames
 *(.debug_pubnames)

.debug_info
 *(.debug_info)
 *(.gnu.linkonce.wi.*)

.debug_abbrev
 *(.debug_abbrev)

.debug_line
 *(.debug_line)

.debug_frame
 *(.debug_frame)

.debug_str
 *(.debug_str)

.debug_loc
 *(.debug_loc)

.debug_macinfo
 *(.debug_macinfo)

.debug_weaknames
 *(.debug_weaknames)

.debug_funcnames
 *(.debug_funcnames)

.debug_typenames
 *(.debug_typenames)

.debug_varnames
 *(.debug_varnames)

.debug_ranges
 *(.debug_ranges)
OUTPUT(eduke32.exe pei-i386)
