Archive member included because of file (symbol)

eobj/libbuild.a(build.o)      obj/astub.o (_printmessage16)
eobj/libbuild.a(config.o)     obj/astub.o (loadsetup)
eobj/libbuild.a(buildstartwin.o)
                              eobj/libbuild.a(build.o) (DoLaunchWindow)
eobj/libengine.a(engine.o)    obj/astub.o (md_tilehasmodel)
eobj/libengine.a(winlayer.o)  eobj/libbuild.a(buildstartwin.o) (win_gethinstance)
eobj/libengine.a(cache1d.o)   eobj/libengine.a(engine.o) (initcache)
eobj/libengine.a(osd.o)       obj/astub.o (OSD_SetLogFile)
eobj/libengine.a(compat.o)    obj/astub.o (Bgethomedir)
eobj/libengine.a(defs.o)      eobj/libbuild.a(build.o) (loaddefinitionsfile)
eobj/libengine.a(glbuild.o)   eobj/libengine.a(winlayer.o) (loadgldriver)
eobj/libengine.a(baselayer.o)
                              eobj/libengine.a(winlayer.o) (baselayer_init)
eobj/libengine.a(pragmas.o)   eobj/libengine.a(engine.o) (clearbufbyte)
eobj/libengine.a(crc32.o)     eobj/libengine.a(engine.o) (initcrc32table)
eobj/libengine.a(a.o)         eobj/libengine.a(engine.o) (sethlinesizes)
eobj/libengine.a(scriptfile.o)
                              eobj/libengine.a(engine.o) (scriptfile_gettoken)
eobj/libengine.a(lzf_d.o)     eobj/libengine.a(engine.o) (lzf_decompress)
eobj/libengine.a(lzf_c.o)     eobj/libengine.a(engine.o) (lzf_compress)
eobj/libengine.a(md4.o)       eobj/libengine.a(engine.o) (md4once)
eobj/libengine.a(kplib.o)     eobj/libengine.a(engine.o) (kpgetdim)
eobj/libengine.a(engineinfo.o)
                              eobj/libengine.a(baselayer.o) (_engine_date)
c:/mingw/bin/../lib/gcc/mingw32/3.4.2/../../../libmingwex.a(snprintf.o)
                              obj/astub.o (snprintf)
c:/mingw/bin/../lib/gcc/mingw32/3.4.2/../../../libmingwex.a(dirent.o)
                              eobj/libengine.a(compat.o) (opendir)
c:/mingw/bin/../lib/gcc/mingw32/3.4.2/../../../libdxguid.a(dxguid.o)
                              eobj/libengine.a(winlayer.o) (IID_IDirectDrawGammaControl)
c:/mingw/bin/../lib/gcc/mingw32/3.4.2/../../../libmingw32.a(CRTglob.o)
                              c:/mingw/bin/../lib/gcc/mingw32/3.4.2/../../../crt2.o (_CRT_glob)
c:/mingw/bin/../lib/gcc/mingw32/3.4.2/../../../libmingw32.a(CRTfmode.o)
                              c:/mingw/bin/../lib/gcc/mingw32/3.4.2/../../../crt2.o (_CRT_fmode)
c:/mingw/bin/../lib/gcc/mingw32/3.4.2/../../../libmingw32.a(txtmode.o)
                              c:/mingw/bin/../lib/gcc/mingw32/3.4.2/../../../crt2.o (_fmode)
c:/mingw/bin/../lib/gcc/mingw32/3.4.2/../../../libmingw32.a(main.o)
                              c:/mingw/bin/../lib/gcc/mingw32/3.4.2/../../../crt2.o (main)
c:/mingw/bin/../lib/gcc/mingw32/3.4.2/../../../libmingw32.a(pseudo-reloc.o)
                              c:/mingw/bin/../lib/gcc/mingw32/3.4.2/../../../crt2.o (_pei386_runtime_relocator)
c:/mingw/bin/../lib/gcc/mingw32/3.4.2/../../../libmingw32.a(CRT_fp10.o)
                              c:/mingw/bin/../lib/gcc/mingw32/3.4.2/../../../crt2.o (_fpreset)
c:/mingw/bin/../lib/gcc/mingw32/3.4.2/../../../libmingw32.a(gccmain.o)
                              c:/mingw/bin/../lib/gcc/mingw32/3.4.2/../../../libmingw32.a(main.o) (__main)
c:/mingw/bin/../lib/gcc/mingw32/3.4.2/../../../libmingw32.a(pseudo-reloc-list.o)
                              c:/mingw/bin/../lib/gcc/mingw32/3.4.2/../../../libmingw32.a(pseudo-reloc.o) (__RUNTIME_PSEUDO_RELOC_LIST__)
c:/mingw/bin/../lib/gcc/mingw32/3.4.2/libgcc.a(w32-shared-ptr.o)
                              c:/mingw/bin/../lib/gcc/mingw32/3.4.2/crtbegin.o (__w32_sharedptr_initialize)
c:/mingw/bin/../lib/gcc/mingw32/3.4.2/libgcc.a(_divdi3.o)
                              eobj/libengine.a(winlayer.o) (__divdi3)
c:/mingw/bin/../lib/gcc/mingw32/3.4.2/libgcc.a(_chkstk.o)
                              eobj/libengine.a(winlayer.o) (_alloca)
c:/mingw/bin/../lib/gcc/mingw32/3.4.2/libgcc.a(_ctors.o)
                              c:/mingw/bin/../lib/gcc/mingw32/3.4.2/../../../libmingw32.a(gccmain.o) (__CTOR_LIST__)
c:/mingw/bin/../lib/gcc/mingw32/3.4.2/libgcc.a(_eprintf.o)
                              c:/mingw/bin/../lib/gcc/mingw32/3.4.2/libgcc.a(w32-shared-ptr.o) (__eprintf)
c:/mingw/bin/../lib/gcc/mingw32/3.4.2/../../../libmoldname.a(duuds00089.o)
                              obj/astub.o (strupr)
c:/mingw/bin/../lib/gcc/mingw32/3.4.2/../../../libmoldname.a(duuds00002.o)
                              obj/astub.o (chdir)
c:/mingw/bin/../lib/gcc/mingw32/3.4.2/../../../libmoldname.a(duuds00055.o)
                              obj/astub.o (mkdir)
c:/mingw/bin/../lib/gcc/mingw32/3.4.2/../../../libmoldname.a(duuds00037.o)
                              obj/astub.o (getcwd)
c:/mingw/bin/../lib/gcc/mingw32/3.4.2/../../../libmoldname.a(duuds00000.o)
                              obj/astub.o (access)
c:/mingw/bin/../lib/gcc/mingw32/3.4.2/../../../libmoldname.a(duuds00006.o)
                              eobj/libengine.a(engine.o) (close)
c:/mingw/bin/../lib/gcc/mingw32/3.4.2/../../../libmoldname.a(duuds00110.o)
                              eobj/libengine.a(engine.o) (write)
c:/mingw/bin/../lib/gcc/mingw32/3.4.2/../../../libmoldname.a(duuds00058.o)
                              eobj/libengine.a(engine.o) (open)
c:/mingw/bin/../lib/gcc/mingw32/3.4.2/../../../libmoldname.a(duuds00079.o)
                              eobj/libengine.a(engine.o) (stat)
c:/mingw/bin/../lib/gcc/mingw32/3.4.2/../../../libmoldname.a(duuds00081.o)
                              eobj/libengine.a(engine.o) (strdup)
c:/mingw/bin/../lib/gcc/mingw32/3.4.2/../../../libmoldname.a(duuds00051.o)
                              eobj/libengine.a(cache1d.o) (lseek)
c:/mingw/bin/../lib/gcc/mingw32/3.4.2/../../../libmoldname.a(duuds00064.o)
                              eobj/libengine.a(cache1d.o) (read)
c:/mingw/bin/../lib/gcc/mingw32/3.4.2/../../../libmoldname.a(duuds00023.o)
                              eobj/libengine.a(cache1d.o) (fdopen)
c:/mingw/bin/../lib/gcc/mingw32/3.4.2/../../../libmoldname.a(duuds00032.o)
                              eobj/libengine.a(compat.o) (fstat)
c:/mingw/bin/../lib/gcc/mingw32/3.4.2/../../../libmoldname.a(duuds00026.o)
                              eobj/libengine.a(kplib.o) (filelength)
c:/mingw/bin/../lib/gcc/mingw32/3.4.2/../../../libmoldname.a(duudh.o)
                              c:/mingw/bin/../lib/gcc/mingw32/3.4.2/../../../libmoldname.a(duuds00089.o) (_head_libmoldname_a)
c:/mingw/bin/../lib/gcc/mingw32/3.4.2/../../../libmoldname.a(duudt.o)
                              c:/mingw/bin/../lib/gcc/mingw32/3.4.2/../../../libmoldname.a(duudh.o) (_libmoldname_a_iname)
c:/mingw/bin/../lib/gcc/mingw32/3.4.2/../../../libmsvcrt.a(dwpds00233.o)
                              c:/mingw/bin/../lib/gcc/mingw32/3.4.2/../../../crt2.o (_imp___iob)
c:/mingw/bin/../lib/gcc/mingw32/3.4.2/../../../libmsvcrt.a(dwpds00080.o)
                              c:/mingw/bin/../lib/gcc/mingw32/3.4.2/../../../crt2.o (_imp____set_app_type)
c:/mingw/bin/../lib/gcc/mingw32/3.4.2/../../../libmsvcrt.a(dwpds00540.o)
                              c:/mingw/bin/../lib/gcc/mingw32/3.4.2/../../../crt2.o (_imp__atexit)
c:/mingw/bin/../lib/gcc/mingw32/3.4.2/../../../libmsvcrt.a(dwpds00350.o)
                              c:/mingw/bin/../lib/gcc/mingw32/3.4.2/../../../crt2.o (_imp___onexit)
c:/mingw/bin/../lib/gcc/mingw32/3.4.2/../../../libmsvcrt.a(dwpds00121.o)
                              c:/mingw/bin/../lib/gcc/mingw32/3.4.2/../../../crt2.o (_cexit)
c:/mingw/bin/../lib/gcc/mingw32/3.4.2/../../../libmsvcrt.a(dwpds00060.o)
                              c:/mingw/bin/../lib/gcc/mingw32/3.4.2/../../../crt2.o (__p__environ)
c:/mingw/bin/../lib/gcc/mingw32/3.4.2/../../../libmsvcrt.a(dwpds00656.o)
                              c:/mingw/bin/../lib/gcc/mingw32/3.4.2/../../../crt2.o (signal)
c:/mingw/bin/../lib/gcc/mingw32/3.4.2/../../../libmsvcrt.a(dwpds00062.o)
                              c:/mingw/bin/../lib/gcc/mingw32/3.4.2/../../../crt2.o (__p__fmode)
c:/mingw/bin/../lib/gcc/mingw32/3.4.2/../../../libmsvcrt.a(dwpds00388.o)
                              c:/mingw/bin/../lib/gcc/mingw32/3.4.2/../../../crt2.o (_setmode)
c:/mingw/bin/../lib/gcc/mingw32/3.4.2/../../../libmsvcrt.a(dwpds00039.o)
                              c:/mingw/bin/../lib/gcc/mingw32/3.4.2/../../../crt2.o (__getmainargs)
c:/mingw/bin/../lib/gcc/mingw32/3.4.2/../../../libmsvcrt.a(dwpds00626.o)
                              obj/astub.o (malloc)
c:/mingw/bin/../lib/gcc/mingw32/3.4.2/../../../libmsvcrt.a(dwpds00587.o)
                              obj/astub.o (getenv)
c:/mingw/bin/../lib/gcc/mingw32/3.4.2/../../../libmsvcrt.a(dwpds00575.o)
                              obj/astub.o (free)
c:/mingw/bin/../lib/gcc/mingw32/3.4.2/../../../libmsvcrt.a(dwpds00554.o)
                              obj/astub.o (exit)
c:/mingw/bin/../lib/gcc/mingw32/3.4.2/../../../libmsvcrt.a(dwpds00557.o)
                              obj/astub.o (fclose)
c:/mingw/bin/../lib/gcc/mingw32/3.4.2/../../../libmsvcrt.a(dwpds00665.o)
                              obj/astub.o (strcmp)
c:/mingw/bin/../lib/gcc/mingw32/3.4.2/../../../libmsvcrt.a(dwpds00563.o)
                              obj/astub.o (fgets)
c:/mingw/bin/../lib/gcc/mingw32/3.4.2/../../../libmsvcrt.a(dwpds00667.o)
                              obj/astub.o (strcpy)
c:/mingw/bin/../lib/gcc/mingw32/3.4.2/../../../libmsvcrt.a(dwpds00659.o)
                              obj/astub.o (sprintf)
c:/mingw/bin/../lib/gcc/mingw32/3.4.2/../../../libmsvcrt.a(dwpds00671.o)
                              eobj/libbuild.a(build.o) (strlen)
c:/mingw/bin/../lib/gcc/mingw32/3.4.2/../../../libmsvcrt.a(dwpds00642.o)
                              eobj/libbuild.a(build.o) (puts)
c:/mingw/bin/../lib/gcc/mingw32/3.4.2/../../../libmsvcrt.a(dwpds00634.o)
                              eobj/libbuild.a(build.o) (memset)
c:/mingw/bin/../lib/gcc/mingw32/3.4.2/../../../libmsvcrt.a(dwpds00681.o)
                              eobj/libbuild.a(build.o) (strtol)
c:/mingw/bin/../lib/gcc/mingw32/3.4.2/../../../libmsvcrt.a(dwpds00676.o)
                              eobj/libbuild.a(build.o) (strrchr)
c:/mingw/bin/../lib/gcc/mingw32/3.4.2/../../../libmsvcrt.a(dwpds00620.o)
                              eobj/libbuild.a(build.o) (ldiv)
c:/mingw/bin/../lib/gcc/mingw32/3.4.2/../../../libmsvcrt.a(dwpds00639.o)
                              eobj/libbuild.a(build.o) (printf)
c:/mingw/bin/../lib/gcc/mingw32/3.4.2/../../../libmsvcrt.a(dwpds00663.o)
                              eobj/libbuild.a(build.o) (strcat)
c:/mingw/bin/../lib/gcc/mingw32/3.4.2/../../../libmsvcrt.a(dwpds00664.o)
                              eobj/libbuild.a(build.o) (strchr)
c:/mingw/bin/../lib/gcc/mingw32/3.4.2/../../../libmsvcrt.a(dwpds00674.o)
                              eobj/libbuild.a(build.o) (strncpy)
c:/mingw/bin/../lib/gcc/mingw32/3.4.2/../../../libmsvcrt.a(dwpds00648.o)
                              eobj/libbuild.a(build.o) (realloc)
c:/mingw/bin/../lib/gcc/mingw32/3.4.2/../../../libmsvcrt.a(dwpds00543.o)
                              eobj/libbuild.a(build.o) (atol)
c:/mingw/bin/../lib/gcc/mingw32/3.4.2/../../../libmsvcrt.a(dwpds00569.o)
                              eobj/libbuild.a(config.o) (fprintf)
c:/mingw/bin/../lib/gcc/mingw32/3.4.2/../../../libmsvcrt.a(dwpds00542.o)
                              eobj/libbuild.a(config.o) (atoi)
c:/mingw/bin/../lib/gcc/mingw32/3.4.2/../../../libmsvcrt.a(dwpds00651.o)
                              eobj/libbuild.a(config.o) (rewind)
c:/mingw/bin/../lib/gcc/mingw32/3.4.2/../../../libmsvcrt.a(dwpds00679.o)
                              eobj/libbuild.a(config.o) (strtod)
c:/mingw/bin/../lib/gcc/mingw32/3.4.2/../../../libmsvcrt.a(dwpds00411.o)
                              eobj/libbuild.a(config.o) (_stricmp)
c:/mingw/bin/../lib/gcc/mingw32/3.4.2/../../../libmsvcrt.a(dwpds00568.o)
                              eobj/libbuild.a(config.o) (fopen)
c:/mingw/bin/../lib/gcc/mingw32/3.4.2/../../../libmsvcrt.a(dwpds00632.o)
                              eobj/libengine.a(engine.o) (memcpy)
c:/mingw/bin/../lib/gcc/mingw32/3.4.2/../../../libmsvcrt.a(dwpds00570.o)
                              eobj/libengine.a(engine.o) (fputc)
c:/mingw/bin/../lib/gcc/mingw32/3.4.2/../../../libmsvcrt.a(dwpds00583.o)
                              eobj/libengine.a(engine.o) (fwrite)
c:/mingw/bin/../lib/gcc/mingw32/3.4.2/../../../libmsvcrt.a(dwpds00682.o)
                              eobj/libengine.a(engine.o) (strtoul)
c:/mingw/bin/../lib/gcc/mingw32/3.4.2/../../../libmsvcrt.a(dwpds00657.o)
                              eobj/libengine.a(engine.o) (sin)
c:/mingw/bin/../lib/gcc/mingw32/3.4.2/../../../libmsvcrt.a(dwpds00549.o)
                              eobj/libengine.a(engine.o) (cos)
c:/mingw/bin/../lib/gcc/mingw32/3.4.2/../../../libmsvcrt.a(dwpds00660.o)
                              eobj/libengine.a(engine.o) (sqrt)
c:/mingw/bin/../lib/gcc/mingw32/3.4.2/../../../libmsvcrt.a(dwpds00566.o)
                              eobj/libengine.a(engine.o) (floor)
c:/mingw/bin/../lib/gcc/mingw32/3.4.2/../../../libmsvcrt.a(dwpds00152.o)
                              eobj/libengine.a(engine.o) (_errno)
c:/mingw/bin/../lib/gcc/mingw32/3.4.2/../../../libmsvcrt.a(dwpds00647.o)
                              eobj/libengine.a(engine.o) (rand)
c:/mingw/bin/../lib/gcc/mingw32/3.4.2/../../../libmsvcrt.a(dwpds00545.o)
                              eobj/libengine.a(engine.o) (calloc)
c:/mingw/bin/../lib/gcc/mingw32/3.4.2/../../../libmsvcrt.a(dwpds00638.o)
                              eobj/libengine.a(engine.o) (pow)
c:/mingw/bin/../lib/gcc/mingw32/3.4.2/../../../libmsvcrt.a(dwpds00645.o)
                              eobj/libengine.a(winlayer.o) (qsort)
c:/mingw/bin/../lib/gcc/mingw32/3.4.2/../../../libmsvcrt.a(dwpds00655.o)
                              eobj/libengine.a(winlayer.o) (setvbuf)
c:/mingw/bin/../lib/gcc/mingw32/3.4.2/../../../libmsvcrt.a(dwpds00576.o)
                              eobj/libengine.a(winlayer.o) (freopen)
c:/mingw/bin/../lib/gcc/mingw32/3.4.2/../../../libmsvcrt.a(dwpds00701.o)
                              eobj/libengine.a(winlayer.o) (vsprintf)
c:/mingw/bin/../lib/gcc/mingw32/3.4.2/../../../libmsvcrt.a(dwpds00445.o)
                              eobj/libengine.a(winlayer.o) (_vsnprintf)
c:/mingw/bin/../lib/gcc/mingw32/3.4.2/../../../libmsvcrt.a(dwpds00574.o)
                              eobj/libengine.a(cache1d.o) (fread)
c:/mingw/bin/../lib/gcc/mingw32/3.4.2/../../../libmsvcrt.a(dwpds00571.o)
                              eobj/libengine.a(osd.o) (fputs)
c:/mingw/bin/../lib/gcc/mingw32/3.4.2/../../../libmsvcrt.a(dwpds00633.o)
                              eobj/libengine.a(osd.o) (memmove)
c:/mingw/bin/../lib/gcc/mingw32/3.4.2/../../../libmsvcrt.a(dwpds00415.o)
                              eobj/libengine.a(osd.o) (_strnicmp)
c:/mingw/bin/../lib/gcc/mingw32/3.4.2/../../../libmsvcrt.a(dwpds00207.o)
                              eobj/libengine.a(compat.o) (_getdcwd)
c:/mingw/bin/../lib/gcc/mingw32/3.4.2/../../../libmsvcrt.a(dwpds00693.o)
                              eobj/libengine.a(compat.o) (toupper)
c:/mingw/bin/../lib/gcc/mingw32/3.4.2/../../../libmsvcrt.a(dwpds00581.o)
                              eobj/libengine.a(kplib.o) (ftell)
c:/mingw/bin/../lib/gcc/mingw32/3.4.2/../../../libmsvcrt.a(dwpds00579.o)
                              eobj/libengine.a(kplib.o) (fseek)
c:/mingw/bin/../lib/gcc/mingw32/3.4.2/../../../libmsvcrt.a(dwpds00280.o)
                              eobj/libengine.a(kplib.o) (_lrotl)
c:/mingw/bin/../lib/gcc/mingw32/3.4.2/../../../libmsvcrt.a(dwpds00175.o)
                              c:/mingw/bin/../lib/gcc/mingw32/3.4.2/../../../libmingwex.a(dirent.o) (_findclose)
c:/mingw/bin/../lib/gcc/mingw32/3.4.2/../../../libmsvcrt.a(dwpds00179.o)
                              c:/mingw/bin/../lib/gcc/mingw32/3.4.2/../../../libmingwex.a(dirent.o) (_findnext)
c:/mingw/bin/../lib/gcc/mingw32/3.4.2/../../../libmsvcrt.a(dwpds00176.o)
                              c:/mingw/bin/../lib/gcc/mingw32/3.4.2/../../../libmingwex.a(dirent.o) (_findfirst)
c:/mingw/bin/../lib/gcc/mingw32/3.4.2/../../../libmsvcrt.a(dwpds00198.o)
                              c:/mingw/bin/../lib/gcc/mingw32/3.4.2/../../../libmingwex.a(dirent.o) (_fullpath)
c:/mingw/bin/../lib/gcc/mingw32/3.4.2/../../../libmsvcrt.a(dwpds00533.o)
                              c:/mingw/bin/../lib/gcc/mingw32/3.4.2/libgcc.a(w32-shared-ptr.o) (abort)
c:/mingw/bin/../lib/gcc/mingw32/3.4.2/../../../libmsvcrt.a(dwpds00560.o)
                              c:/mingw/bin/../lib/gcc/mingw32/3.4.2/libgcc.a(_eprintf.o) (fflush)
c:/mingw/bin/../lib/gcc/mingw32/3.4.2/../../../libmsvcrt.a(dwpdh.o)
                              c:/mingw/bin/../lib/gcc/mingw32/3.4.2/../../../libmsvcrt.a(dwpds00233.o) (_head_libmsvcrt_a)
c:/mingw/bin/../lib/gcc/mingw32/3.4.2/../../../libmsvcrt.a(dwpdt.o)
                              c:/mingw/bin/../lib/gcc/mingw32/3.4.2/../../../libmsvcrt.a(dwpdh.o) (_libmsvcrt_a_iname)
c:/mingw/bin/../lib/gcc/mingw32/3.4.2/../../../libgdi32.a(deubs00145.o)
                              eobj/libengine.a(winlayer.o) (GetDeviceCaps@8)
c:/mingw/bin/../lib/gcc/mingw32/3.4.2/../../../libgdi32.a(deubs00072.o)
                              eobj/libengine.a(winlayer.o) (DeleteObject@4)
c:/mingw/bin/../lib/gcc/mingw32/3.4.2/../../../libgdi32.a(deubs00012.o)
                              eobj/libengine.a(winlayer.o) (BitBlt@36)
c:/mingw/bin/../lib/gcc/mingw32/3.4.2/../../../libgdi32.a(deubs00294.o)
                              eobj/libengine.a(winlayer.o) (SetDeviceGammaRamp@8)
c:/mingw/bin/../lib/gcc/mingw32/3.4.2/../../../libgdi32.a(deubs00291.o)
                              eobj/libengine.a(winlayer.o) (SetDIBColorTable@16)
c:/mingw/bin/../lib/gcc/mingw32/3.4.2/../../../libgdi32.a(deubs00315.o)
                              eobj/libengine.a(winlayer.o) (SetSystemPaletteUse@8)
c:/mingw/bin/../lib/gcc/mingw32/3.4.2/../../../libgdi32.a(deubs00306.o)
                              eobj/libengine.a(winlayer.o) (SetPaletteEntries@16)
c:/mingw/bin/../lib/gcc/mingw32/3.4.2/../../../libgdi32.a(deubs00278.o)
                              eobj/libengine.a(winlayer.o) (SelectPalette@12)
c:/mingw/bin/../lib/gcc/mingw32/3.4.2/../../../libgdi32.a(deubs00256.o)
                              eobj/libengine.a(winlayer.o) (RealizePalette@4)
c:/mingw/bin/../lib/gcc/mingw32/3.4.2/../../../libgdi32.a(deubs00055.o)
                              eobj/libengine.a(winlayer.o) (CreatePalette@4)
c:/mingw/bin/../lib/gcc/mingw32/3.4.2/../../../libgdi32.a(deubs00069.o)
                              eobj/libengine.a(winlayer.o) (DeleteDC@4)
c:/mingw/bin/../lib/gcc/mingw32/3.4.2/../../../libgdi32.a(deubs00015.o)
                              eobj/libengine.a(winlayer.o) (ChoosePixelFormat@8)
c:/mingw/bin/../lib/gcc/mingw32/3.4.2/../../../libgdi32.a(deubs00308.o)
                              eobj/libengine.a(winlayer.o) (SetPixelFormat@12)
c:/mingw/bin/../lib/gcc/mingw32/3.4.2/../../../libgdi32.a(deubs00038.o)
                              eobj/libengine.a(winlayer.o) (CreateDIBSection@24)
c:/mingw/bin/../lib/gcc/mingw32/3.4.2/../../../libgdi32.a(deubs00033.o)
                              eobj/libengine.a(winlayer.o) (CreateCompatibleDC@4)
c:/mingw/bin/../lib/gcc/mingw32/3.4.2/../../../libgdi32.a(deubs00277.o)
                              eobj/libengine.a(winlayer.o) (SelectObject@8)
c:/mingw/bin/../lib/gcc/mingw32/3.4.2/../../../libgdi32.a(deubs00146.o)
                              eobj/libengine.a(winlayer.o) (GetDeviceGammaRamp@8)
c:/mingw/bin/../lib/gcc/mingw32/3.4.2/../../../libgdi32.a(deubh.o)
                              c:/mingw/bin/../lib/gcc/mingw32/3.4.2/../../../libgdi32.a(deubs00145.o) (_head_libgdi32_a)
c:/mingw/bin/../lib/gcc/mingw32/3.4.2/../../../libgdi32.a(deubt.o)
                              c:/mingw/bin/../lib/gcc/mingw32/3.4.2/../../../libgdi32.a(deubh.o) (_libgdi32_a_iname)
c:/mingw/bin/../lib/gcc/mingw32/3.4.2/../../../libuser32.a(dgdfs00502.o)
                              eobj/libbuild.a(buildstartwin.o) (SendMessageA@16)
c:/mingw/bin/../lib/gcc/mingw32/3.4.2/../../../libuser32.a(dgdfs00143.o)
                              eobj/libbuild.a(buildstartwin.o) (DestroyWindow@4)
c:/mingw/bin/../lib/gcc/mingw32/3.4.2/../../../libuser32.a(dgdfs00252.o)
                              eobj/libbuild.a(buildstartwin.o) (GetDlgItem@8)
c:/mingw/bin/../lib/gcc/mingw32/3.4.2/../../../libuser32.a(dgdfs00579.o)
                              eobj/libbuild.a(buildstartwin.o) (ShowWindow@8)
c:/mingw/bin/../lib/gcc/mingw32/3.4.2/../../../libuser32.a(dgdfs00346.o)
                              eobj/libbuild.a(buildstartwin.o) (GetWindowRect@8)
c:/mingw/bin/../lib/gcc/mingw32/3.4.2/../../../libuser32.a(dgdfs00441.o)
                              eobj/libbuild.a(buildstartwin.o) (MoveWindow@24)
c:/mingw/bin/../lib/gcc/mingw32/3.4.2/../../../libuser32.a(dgdfs00079.o)
                              eobj/libbuild.a(buildstartwin.o) (CreateDialogParamA@20)
c:/mingw/bin/../lib/gcc/mingw32/3.4.2/../../../libuser32.a(dgdfs00179.o)
                              eobj/libbuild.a(buildstartwin.o) (EnableWindow@8)
c:/mingw/bin/../lib/gcc/mingw32/3.4.2/../../../libuser32.a(dgdfs00390.o)
                              eobj/libbuild.a(buildstartwin.o) (IsWindow@4)
c:/mingw/bin/../lib/gcc/mingw32/3.4.2/../../../libuser32.a(dgdfs00483.o)
                              eobj/libengine.a(winlayer.o) (RegisterHotKey@16)
c:/mingw/bin/../lib/gcc/mingw32/3.4.2/../../../libuser32.a(dgdfs00612.o)
                              eobj/libengine.a(winlayer.o) (UnregisterHotKey@8)
c:/mingw/bin/../lib/gcc/mingw32/3.4.2/../../../libuser32.a(dgdfs00430.o)
                              eobj/libengine.a(winlayer.o) (MessageBoxA@16)
c:/mingw/bin/../lib/gcc/mingw32/3.4.2/../../../libuser32.a(dgdfs00568.o)
                              eobj/libengine.a(winlayer.o) (SetWindowTextA@8)
c:/mingw/bin/../lib/gcc/mingw32/3.4.2/../../../libuser32.a(dgdfs00251.o)
                              eobj/libengine.a(winlayer.o) (GetDlgCtrlID@4)
c:/mingw/bin/../lib/gcc/mingw32/3.4.2/../../../libuser32.a(dgdfs00323.o)
                              eobj/libengine.a(winlayer.o) (GetSysColorBrush@4)
c:/mingw/bin/../lib/gcc/mingw32/3.4.2/../../../libuser32.a(dgdfs00399.o)
                              eobj/libengine.a(winlayer.o) (LoadBitmapA@8)
c:/mingw/bin/../lib/gcc/mingw32/3.4.2/../../../libuser32.a(dgdfs00499.o)
                              eobj/libengine.a(winlayer.o) (SendDlgItemMessageA@20)
c:/mingw/bin/../lib/gcc/mingw32/3.4.2/../../../libuser32.a(dgdfs00235.o)
                              eobj/libengine.a(winlayer.o) (GetClientRect@8)
c:/mingw/bin/../lib/gcc/mingw32/3.4.2/../../../libuser32.a(dgdfs00325.o)
                              eobj/libengine.a(winlayer.o) (GetSystemMetrics@4)
c:/mingw/bin/../lib/gcc/mingw32/3.4.2/../../../libuser32.a(dgdfs00340.o)
                              eobj/libengine.a(winlayer.o) (GetWindowLongA@8)
c:/mingw/bin/../lib/gcc/mingw32/3.4.2/../../../libuser32.a(dgdfs00001.o)
                              eobj/libengine.a(winlayer.o) (AdjustWindowRect@12)
c:/mingw/bin/../lib/gcc/mingw32/3.4.2/../../../libuser32.a(dgdfs00247.o)
                              eobj/libengine.a(winlayer.o) (GetDC@4)
c:/mingw/bin/../lib/gcc/mingw32/3.4.2/../../../libuser32.a(dgdfs00488.o)
                              eobj/libengine.a(winlayer.o) (ReleaseDC@8)
c:/mingw/bin/../lib/gcc/mingw32/3.4.2/../../../libuser32.a(dgdfs00566.o)
                              eobj/libengine.a(winlayer.o) (SetWindowPos@28)
c:/mingw/bin/../lib/gcc/mingw32/3.4.2/../../../libuser32.a(dgdfs00460.o)
                              eobj/libengine.a(winlayer.o) (PeekMessageA@20)
c:/mingw/bin/../lib/gcc/mingw32/3.4.2/../../../libuser32.a(dgdfs00381.o)
                              eobj/libengine.a(winlayer.o) (IsDialogMessageA@8)
c:/mingw/bin/../lib/gcc/mingw32/3.4.2/../../../libuser32.a(dgdfs00602.o)
                              eobj/libengine.a(winlayer.o) (TranslateMessage@4)
c:/mingw/bin/../lib/gcc/mingw32/3.4.2/../../../libuser32.a(dgdfs00148.o)
                              eobj/libengine.a(winlayer.o) (DispatchMessageA@4)
c:/mingw/bin/../lib/gcc/mingw32/3.4.2/../../../libuser32.a(dgdfs00442.o)
                              eobj/libengine.a(winlayer.o) (MsgWaitForMultipleObjects@20)
c:/mingw/bin/../lib/gcc/mingw32/3.4.2/../../../libuser32.a(dgdfs00267.o)
                              eobj/libengine.a(winlayer.o) (GetKeyState@4)
c:/mingw/bin/../lib/gcc/mingw32/3.4.2/../../../libuser32.a(dgdfs00193.o)
                              eobj/libengine.a(winlayer.o) (EnumDisplaySettingsA@12)
c:/mingw/bin/../lib/gcc/mingw32/3.4.2/../../../libuser32.a(dgdfs00029.o)
                              eobj/libengine.a(winlayer.o) (ChangeDisplaySettingsA@8)
c:/mingw/bin/../lib/gcc/mingw32/3.4.2/../../../libuser32.a(dgdfs00552.o)
                              eobj/libengine.a(winlayer.o) (SetSysColors@12)
c:/mingw/bin/../lib/gcc/mingw32/3.4.2/../../../libuser32.a(dgdfs00133.o)
                              eobj/libengine.a(winlayer.o) (DefWindowProcA@16)
c:/mingw/bin/../lib/gcc/mingw32/3.4.2/../../../libuser32.a(dgdfs00089.o)
                              eobj/libengine.a(winlayer.o) (CreateWindowExA@48)
c:/mingw/bin/../lib/gcc/mingw32/3.4.2/../../../libuser32.a(dgdfs00528.o)
                              eobj/libengine.a(winlayer.o) (SetForegroundWindow@4)
c:/mingw/bin/../lib/gcc/mingw32/3.4.2/../../../libuser32.a(dgdfs00527.o)
                              eobj/libengine.a(winlayer.o) (SetFocus@4)
c:/mingw/bin/../lib/gcc/mingw32/3.4.2/../../../libuser32.a(dgdfs00563.o)
                              eobj/libengine.a(winlayer.o) (SetWindowLongA@12)
c:/mingw/bin/../lib/gcc/mingw32/3.4.2/../../../libuser32.a(dgdfs00614.o)
                              eobj/libengine.a(winlayer.o) (UpdateWindow@4)
c:/mingw/bin/../lib/gcc/mingw32/3.4.2/../../../libuser32.a(dgdfs00045.o)
                              eobj/libengine.a(winlayer.o) (CharToOemA@8)
c:/mingw/bin/../lib/gcc/mingw32/3.4.2/../../../libuser32.a(dgdfs00322.o)
                              eobj/libengine.a(winlayer.o) (GetSysColor@4)
c:/mingw/bin/../lib/gcc/mingw32/3.4.2/../../../libuser32.a(dgdfs00407.o)
                              eobj/libengine.a(winlayer.o) (LoadImageA@24)
c:/mingw/bin/../lib/gcc/mingw32/3.4.2/../../../libuser32.a(dgdfs00401.o)
                              eobj/libengine.a(winlayer.o) (LoadCursorA@8)
c:/mingw/bin/../lib/gcc/mingw32/3.4.2/../../../libuser32.a(dgdfs00476.o)
                              eobj/libengine.a(winlayer.o) (RegisterClassExA@4)
c:/mingw/bin/../lib/gcc/mingw32/3.4.2/../../../libuser32.a(dgdfs00633.o)
                              eobj/libengine.a(winlayer.o) (wsprintfA)
c:/mingw/bin/../lib/gcc/mingw32/3.4.2/../../../libuser32.a(dgdfh.o)
                              c:/mingw/bin/../lib/gcc/mingw32/3.4.2/../../../libuser32.a(dgdfs00502.o) (_head_libuser32_a)
c:/mingw/bin/../lib/gcc/mingw32/3.4.2/../../../libuser32.a(dgdft.o)
                              c:/mingw/bin/../lib/gcc/mingw32/3.4.2/../../../libuser32.a(dgdfh.o) (_libuser32_a_iname)
c:/mingw/bin/../lib/gcc/mingw32/3.4.2/../../../libkernel32.a(dqifs00736.o)
                              c:/mingw/bin/../lib/gcc/mingw32/3.4.2/../../../crt2.o (SetUnhandledExceptionFilter@4)
c:/mingw/bin/../lib/gcc/mingw32/3.4.2/../../../libkernel32.a(dqifs00155.o)
                              c:/mingw/bin/../lib/gcc/mingw32/3.4.2/../../../crt2.o (ExitProcess@4)
c:/mingw/bin/../lib/gcc/mingw32/3.4.2/../../../libkernel32.a(dqifs00806.o)
                              eobj/libengine.a(winlayer.o) (WaitForSingleObject@8)
c:/mingw/bin/../lib/gcc/mingw32/3.4.2/../../../libkernel32.a(dqifs00595.o)
                              eobj/libengine.a(winlayer.o) (QueryPerformanceCounter@4)
c:/mingw/bin/../lib/gcc/mingw32/3.4.2/../../../libkernel32.a(dqifs00038.o)
                              eobj/libengine.a(winlayer.o) (CloseHandle@4)
c:/mingw/bin/../lib/gcc/mingw32/3.4.2/../../../libkernel32.a(dqifs00213.o)
                              eobj/libengine.a(winlayer.o) (FreeLibrary@4)
c:/mingw/bin/../lib/gcc/mingw32/3.4.2/../../../libkernel32.a(dqifs00281.o)
                              eobj/libengine.a(winlayer.o) (GetCurrentProcess@0)
c:/mingw/bin/../lib/gcc/mingw32/3.4.2/../../../libkernel32.a(dqifs00716.o)
                              eobj/libengine.a(winlayer.o) (SetPriorityClass@8)
c:/mingw/bin/../lib/gcc/mingw32/3.4.2/../../../libkernel32.a(dqifs00323.o)
                              eobj/libengine.a(winlayer.o) (GetLastError@0)
c:/mingw/bin/../lib/gcc/mingw32/3.4.2/../../../libkernel32.a(dqifs00208.o)
                              eobj/libengine.a(winlayer.o) (FormatMessageA@28)
c:/mingw/bin/../lib/gcc/mingw32/3.4.2/../../../libkernel32.a(dqifs00596.o)
                              eobj/libengine.a(winlayer.o) (QueryPerformanceFrequency@4)
c:/mingw/bin/../lib/gcc/mingw32/3.4.2/../../../libkernel32.a(dqifs00362.o)
                              eobj/libengine.a(winlayer.o) (GetProcAddress@8)
c:/mingw/bin/../lib/gcc/mingw32/3.4.2/../../../libkernel32.a(dqifs00064.o)
                              eobj/libengine.a(winlayer.o) (CreateEventA@16)
c:/mingw/bin/../lib/gcc/mingw32/3.4.2/../../../libkernel32.a(dqifs00522.o)
                              eobj/libengine.a(winlayer.o) (LoadLibraryA@4)
c:/mingw/bin/../lib/gcc/mingw32/3.4.2/../../../libkernel32.a(dqifs00431.o)
                              eobj/libengine.a(winlayer.o) (GetVersionExA@4)
c:/mingw/bin/../lib/gcc/mingw32/3.4.2/../../../libkernel32.a(dqifs00236.o)
                              eobj/libengine.a(winlayer.o) (GetCommandLineA@0)
c:/mingw/bin/../lib/gcc/mingw32/3.4.2/../../../libkernel32.a(dqifs00087.o)
                              eobj/libengine.a(winlayer.o) (CreateSemaphoreA@16)
c:/mingw/bin/../lib/gcc/mingw32/3.4.2/../../../libkernel32.a(dqifs00329.o)
                              eobj/libengine.a(compat.o) (GetLogicalDrives@0)
c:/mingw/bin/../lib/gcc/mingw32/3.4.2/../../../libkernel32.a(dqifs00458.o)
                              eobj/libengine.a(compat.o) (GlobalMemoryStatus@4)
c:/mingw/bin/../lib/gcc/mingw32/3.4.2/../../../libkernel32.a(dqifs00177.o)
                              eobj/libengine.a(kplib.o) (FindClose@4)
c:/mingw/bin/../lib/gcc/mingw32/3.4.2/../../../libkernel32.a(dqifs00190.o)
                              eobj/libengine.a(kplib.o) (FindNextFileA@8)
c:/mingw/bin/../lib/gcc/mingw32/3.4.2/../../../libkernel32.a(dqifs00181.o)
                              eobj/libengine.a(kplib.o) (FindFirstFileA@8)
c:/mingw/bin/../lib/gcc/mingw32/3.4.2/../../../libkernel32.a(dqifs00306.o)
                              c:/mingw/bin/../lib/gcc/mingw32/3.4.2/../../../libmingwex.a(dirent.o) (GetFileAttributesA@4)
c:/mingw/bin/../lib/gcc/mingw32/3.4.2/../../../libkernel32.a(dqifs00384.o)
                              c:/mingw/bin/../lib/gcc/mingw32/3.4.2/../../../libmingw32.a(main.o) (GetStartupInfoA@4)
c:/mingw/bin/../lib/gcc/mingw32/3.4.2/../../../libkernel32.a(dqifs00335.o)
                              c:/mingw/bin/../lib/gcc/mingw32/3.4.2/../../../libmingw32.a(main.o) (GetModuleHandleA@4)
c:/mingw/bin/../lib/gcc/mingw32/3.4.2/../../../libkernel32.a(dqifs00220.o)
                              c:/mingw/bin/../lib/gcc/mingw32/3.4.2/libgcc.a(w32-shared-ptr.o) (_imp__GetAtomNameA@12)
c:/mingw/bin/../lib/gcc/mingw32/3.4.2/../../../libkernel32.a(dqifs00175.o)
                              c:/mingw/bin/../lib/gcc/mingw32/3.4.2/libgcc.a(w32-shared-ptr.o) (_imp__FindAtomA@4)
c:/mingw/bin/../lib/gcc/mingw32/3.4.2/../../../libkernel32.a(dqifs00001.o)
                              c:/mingw/bin/../lib/gcc/mingw32/3.4.2/libgcc.a(w32-shared-ptr.o) (_imp__AddAtomA@4)
c:/mingw/bin/../lib/gcc/mingw32/3.4.2/../../../libkernel32.a(dqifh.o)
                              c:/mingw/bin/../lib/gcc/mingw32/3.4.2/../../../libkernel32.a(dqifs00736.o) (_head_libkernel32_a)
c:/mingw/bin/../lib/gcc/mingw32/3.4.2/../../../libkernel32.a(dqift.o)
                              c:/mingw/bin/../lib/gcc/mingw32/3.4.2/../../../libkernel32.a(dqifh.o) (_libkernel32_a_iname)
c:/mingw/bin/../lib/gcc/mingw32/3.4.2/../../../libshell32.a(dsjes00104.o)
                              eobj/libengine.a(compat.o) (SHGetSpecialFolderPathA@16)
c:/mingw/bin/../lib/gcc/mingw32/3.4.2/../../../libshell32.a(dsjeh.o)
                              c:/mingw/bin/../lib/gcc/mingw32/3.4.2/../../../libshell32.a(dsjes00104.o) (_head_libshell32_a)
c:/mingw/bin/../lib/gcc/mingw32/3.4.2/../../../libshell32.a(dsjet.o)
                              c:/mingw/bin/../lib/gcc/mingw32/3.4.2/../../../libshell32.a(dsjeh.o) (_libshell32_a_iname)

Allocating common symbols
Common symbol       size              file

bglVertex3fv        0x10              eobj/libengine.a(glbuild.o)
palcol              0x400             eobj/libengine.a(kplib.o)
gvx                 0x10              eobj/libengine.a(engine.o)
bglTexParameterf    0x10              eobj/libengine.a(glbuild.o)
bglEnable           0x10              eobj/libengine.a(glbuild.o)
keyfifoplc          0x10              eobj/libengine.a(winlayer.o)
mousecol            0x10              obj/astub.o
bglGetCompressedTexImageARB
                    0x10              eobj/libengine.a(glbuild.o)
nextspritestat      0x8000            eobj/libengine.a(engine.o)
ydim                0x10              eobj/libengine.a(engine.o)
searchit            0x10              eobj/libengine.a(engine.o)
temppal             0x10              eobj/libbuild.a(build.o)
__DTOR_LIST__       0x10              c:/mingw/bin/../lib/gcc/mingw32/3.4.2/libgcc.a(_ctors.o)
bglOrtho            0x10              eobj/libengine.a(glbuild.o)
vplce               0x10              eobj/libengine.a(engine.o)
ebpbak              0x10              eobj/libengine.a(engine.o)
globalcursectnum    0x10              eobj/libengine.a(engine.o)
walock              0x3c00            eobj/libengine.a(engine.o)
globalx2            0x10              eobj/libengine.a(engine.o)
__w32_sharedptr_terminate
                    0x10              c:/mingw/bin/../lib/gcc/mingw32/3.4.2/libgcc.a(w32-shared-ptr.o)
windowx1            0x10              eobj/libengine.a(engine.o)
tempxrepeat         0x10              eobj/libbuild.a(build.o)
guniqhudid          0x10              eobj/libengine.a(engine.o)
osearchx            0x10              eobj/libbuild.a(build.o)
searchstat          0x10              eobj/libengine.a(engine.o)
visibility          0x10              eobj/libengine.a(engine.o)
tsprite             0x16000           eobj/libengine.a(engine.o)
searchy             0x10              eobj/libengine.a(engine.o)
frameoffset         0x10              eobj/libengine.a(engine.o)
startdmost          0xc80             eobj/libengine.a(engine.o)
lastageclock        0x10              eobj/libengine.a(engine.o)
getmessagetimeoff   0x10              obj/astub.o
britable            0x1000            eobj/libengine.a(engine.o)
getmessageleng      0x10              obj/astub.o
midydim16           0x10              eobj/libengine.a(engine.o)
startposx           0x10              eobj/libengine.a(engine.o)
bglCullFace         0x10              eobj/libengine.a(glbuild.o)
gdy                 0x10              eobj/libengine.a(engine.o)
sprite              0xb0000           eobj/libengine.a(engine.o)
bglViewport         0x10              eobj/libengine.a(glbuild.o)
ppointhighlight     0x10              obj/astub.o
randomseed          0x10              eobj/libengine.a(engine.o)
wy2                 0x10              eobj/libengine.a(engine.o)
parallaxvisibility  0x10              eobj/libengine.a(engine.o)
globalyshift        0x10              eobj/libengine.a(engine.o)
parallaxyoffs       0x10              eobj/libengine.a(engine.o)
globalxshift        0x10              eobj/libengine.a(engine.o)
dplc                0xc80             eobj/libengine.a(engine.o)
keystatus           0x100             eobj/libengine.a(winlayer.o)
pskyoff             0x200             eobj/libengine.a(engine.o)
globalpal           0x10              eobj/libengine.a(engine.o)
tilesizy            0x7800            eobj/libengine.a(engine.o)
globalcisibility    0x10              eobj/libengine.a(engine.o)
vince               0x10              eobj/libengine.a(engine.o)
pskybits            0x10              eobj/libengine.a(engine.o)
templotag           0x10              eobj/libbuild.a(build.o)
pageoffset          0x10              eobj/libengine.a(engine.o)
sintable            0x1000            eobj/libengine.a(engine.o)
mousx               0x10              eobj/libbuild.a(build.o)
show2dwall          0x800             eobj/libengine.a(engine.o)
bglShadeModel       0x10              eobj/libengine.a(glbuild.o)
fpuasm              0x10              eobj/libengine.a(engine.o)
keyasciififoend     0x10              eobj/libengine.a(winlayer.o)
gux                 0x10              eobj/libengine.a(engine.o)
numwalls            0x10              eobj/libengine.a(engine.o)
bglLoadMatrixf      0x10              eobj/libengine.a(glbuild.o)
globalang           0x10              eobj/libengine.a(engine.o)
coltype             0x10              eobj/libengine.a(kplib.o)
globalpalwritten    0x10              eobj/libengine.a(engine.o)
bglDisable          0x10              eobj/libengine.a(glbuild.o)
globparaceilclip    0x10              eobj/libengine.a(engine.o)
sinviewingrangeglobalang
                    0x10              eobj/libengine.a(engine.o)
linehighlight       0x10              eobj/libengine.a(engine.o)
tempshade           0x10              eobj/libbuild.a(build.o)
whitecol            0x10              eobj/libbuild.a(build.o)
vel                 0x10              eobj/libbuild.a(build.o)
headspritestat      0x810             eobj/libengine.a(engine.o)
xoldtimerhandler    0x10              obj/astub.o
posy                0x10              eobj/libbuild.a(build.o)
startposy           0x10              eobj/libengine.a(engine.o)
globalx             0x10              eobj/libengine.a(engine.o)
xdimscale           0x10              eobj/libengine.a(engine.o)
numpages            0x10              eobj/libengine.a(engine.o)
WATERpalette        0x300             obj/astub.o
globalposz          0x10              eobj/libengine.a(engine.o)
globalypanning      0x10              eobj/libengine.a(engine.o)
bglTexImage2D       0x10              eobj/libengine.a(glbuild.o)
bglPushMatrix       0x10              eobj/libengine.a(glbuild.o)
floor_over_floor    0x10              obj/astub.o
temppicnum          0x10              eobj/libbuild.a(build.o)
bglPopMatrix        0x10              eobj/libengine.a(glbuild.o)
asm2                0x10              eobj/libengine.a(engine.o)
captureformat       0x10              eobj/libengine.a(engine.o)
globalshade         0x10              eobj/libengine.a(engine.o)
bwglSetPixelFormat  0x10              eobj/libengine.a(glbuild.o)
bglVertex2f         0x10              eobj/libengine.a(glbuild.o)
highlight           0x8000            eobj/libbuild.a(build.o)
wx1                 0x10              eobj/libengine.a(engine.o)
names               0x5dc00           eobj/libbuild.a(build.o)
picanm              0xf000            eobj/libengine.a(engine.o)
globalxpanning      0x10              eobj/libengine.a(engine.o)
searchwall          0x10              eobj/libengine.a(engine.o)
bglGetTexLevelParameteriv
                    0x10              eobj/libengine.a(glbuild.o)
prevspritesect      0x8000            eobj/libengine.a(engine.o)
cac                 0x1b000           eobj/libengine.a(cache1d.o)
gvy                 0x10              eobj/libengine.a(engine.o)
bglMatrixMode       0x10              eobj/libengine.a(glbuild.o)
tiletovox           0xf000            eobj/libengine.a(engine.o)
tilesizx            0x7800            eobj/libengine.a(engine.o)
timoff              0x10              obj/astub.o
cosviewingrangeglobalang
                    0x10              eobj/libengine.a(engine.o)
TITLEpalette        0x300             obj/astub.o
num_tables          0x10              obj/astub.o
show2dsector        0x200             eobj/libengine.a(engine.o)
paleng              0x10              eobj/libengine.a(kplib.o)
voxoff              0x14000           eobj/libengine.a(engine.o)
wx2                 0x10              eobj/libengine.a(engine.o)
guy                 0x10              eobj/libengine.a(engine.o)
windowy2            0x10              eobj/libengine.a(engine.o)
bglVertex3d         0x10              eobj/libengine.a(glbuild.o)
bglEnd              0x10              eobj/libengine.a(glbuild.o)
bglBindTexture      0x10              eobj/libengine.a(glbuild.o)
startsectnum        0x10              eobj/libengine.a(engine.o)
globaly2            0x10              eobj/libengine.a(engine.o)
numscans            0x10              eobj/libengine.a(engine.o)
bglGetError         0x10              eobj/libengine.a(glbuild.o)
gdo                 0x10              eobj/libengine.a(engine.o)
voxlock             0x5000            eobj/libengine.a(engine.o)
voxscale            0x4000            eobj/libengine.a(engine.o)
keyasciififo        0x40              eobj/libengine.a(winlayer.o)
getmessage          0xb0              obj/astub.o
palookupoffse       0x10              eobj/libengine.a(engine.o)
GAMEpalette         0x300             obj/astub.o
ang                 0x10              eobj/libbuild.a(build.o)
totalclock          0x10              eobj/libengine.a(engine.o)
globalhoriz         0x10              eobj/libengine.a(engine.o)
__w32_sharedptr     0x10              c:/mingw/bin/../lib/gcc/mingw32/3.4.2/libgcc.a(w32-shared-ptr.o)
globalhisibility    0x10              eobj/libengine.a(engine.o)
ylookup             0x12d0            eobj/libengine.a(engine.o)
tempcstat           0x10              eobj/libbuild.a(build.o)
alphahackarray      0xf000            eobj/libengine.a(engine.o)
levelname           0x100             obj/astub.o
numsprites          0x10              eobj/libbuild.a(build.o)
bwglCreateContext   0x10              eobj/libengine.a(glbuild.o)
bglFrontFace        0x10              eobj/libengine.a(glbuild.o)
gdx                 0x10              eobj/libengine.a(engine.o)
ydim16              0x10              eobj/libengine.a(engine.o)
spritecol2d         0x7800            eobj/libengine.a(engine.o)
globalorientation   0x10              eobj/libengine.a(engine.o)
bglColor4f          0x10              eobj/libengine.a(glbuild.o)
autosavetimer       0x10              obj/astub.o
highlightsector     0x2000            eobj/libbuild.a(build.o)
asm3                0x10              eobj/libengine.a(engine.o)
halfxdimen          0x10              eobj/libengine.a(engine.o)
bglTexCoord2d       0x10              eobj/libengine.a(glbuild.o)
bglVertex2i         0x10              eobj/libengine.a(glbuild.o)
palette             0x300             eobj/libengine.a(engine.o)
totalclocklock      0x10              eobj/libengine.a(engine.o)
highlightcnt        0x10              eobj/libengine.a(engine.o)
__CTOR_LIST__       0x10              c:/mingw/bin/../lib/gcc/mingw32/3.4.2/libgcc.a(_ctors.o)
posz                0x10              eobj/libbuild.a(build.o)
tilefilenum         0x3c00            eobj/libengine.a(engine.o)
lastmessagetime     0x10              obj/astub.o
yvel                0x10              obj/astub.o
angvel              0x10              eobj/libbuild.a(build.o)
bglGetIntegerv      0x10              eobj/libengine.a(glbuild.o)
viewingrange        0x10              eobj/libengine.a(engine.o)
bwglGetProcAddress  0x10              eobj/libengine.a(glbuild.o)
xdimenscale         0x10              eobj/libengine.a(engine.o)
windowy1            0x10              eobj/libengine.a(engine.o)
globvis             0x10              eobj/libengine.a(engine.o)
globaldclip         0x10              eobj/libengine.a(engine.o)
globalzd            0x10              eobj/libengine.a(engine.o)
globalz             0x10              eobj/libengine.a(engine.o)
tempvis             0x10              eobj/libbuild.a(build.o)
xdimenrecip         0x10              eobj/libengine.a(engine.o)
spritesortcnt       0x10              eobj/libengine.a(engine.o)
umost               0xc80             eobj/libengine.a(engine.o)
ydimen              0x10              eobj/libengine.a(engine.o)
bglDepthRange       0x10              eobj/libengine.a(glbuild.o)
globalx3            0x10              eobj/libengine.a(engine.o)
globparaflorclip    0x10              eobj/libengine.a(engine.o)
xvel                0x10              obj/astub.o
bglAlphaFunc        0x10              eobj/libengine.a(glbuild.o)
slopalookup         0x10000           eobj/libengine.a(engine.o)
tempyrepeat         0x10              eobj/libbuild.a(build.o)
startang            0x10              eobj/libengine.a(engine.o)
mousyplc            0x10              obj/astub.o
bglLoadIdentity     0x10              eobj/libengine.a(glbuild.o)
bglBlendFunc        0x10              eobj/libengine.a(glbuild.o)
bglDeleteTextures   0x10              eobj/libengine.a(glbuild.o)
startposz           0x10              eobj/libengine.a(engine.o)
globaly             0x10              eobj/libengine.a(engine.o)
wall                0x80000           eobj/libengine.a(engine.o)
parallaxyscale      0x10              eobj/libengine.a(engine.o)
charsperline        0x10              obj/astub.o
searchsector        0x10              eobj/libengine.a(engine.o)
globalposy          0x10              eobj/libengine.a(engine.o)
validmodecnt        0x10              eobj/libengine.a(engine.o)
hvel                0x10              eobj/libbuild.a(build.o)
bwglGetPixelFormat  0x10              eobj/libengine.a(glbuild.o)
prevspritestat      0x8000            eobj/libengine.a(engine.o)
numbunches          0x10              eobj/libengine.a(engine.o)
asm4                0x10              eobj/libengine.a(engine.o)
globaly3            0x10              eobj/libengine.a(engine.o)
reciptable          0x2000            eobj/libengine.a(engine.o)
windowx2            0x10              eobj/libengine.a(engine.o)
tempbuf             0x1000            eobj/libbuild.a(build.o)
bglColorMask        0x10              eobj/libengine.a(glbuild.o)
gotsector           0x200             eobj/libengine.a(engine.o)
show2dsprite        0x800             eobj/libengine.a(engine.o)
viewingrangerecip   0x10              eobj/libengine.a(engine.o)
bglPolygonMode      0x10              eobj/libengine.a(glbuild.o)
lastupdate          0x10              obj/astub.o
xyaspect            0x10              eobj/libengine.a(engine.o)
bglPolygonOffset    0x10              eobj/libengine.a(glbuild.o)
startumost          0xc80             eobj/libengine.a(engine.o)
tilefileoffs        0xf000            eobj/libengine.a(engine.o)
bglTexCoord2f       0x10              eobj/libengine.a(glbuild.o)
mousxplc            0x10              obj/astub.o
globalpisibility    0x10              eobj/libengine.a(engine.o)
numframes           0x10              eobj/libengine.a(engine.o)
nextspritesect      0x8000            eobj/libengine.a(engine.o)
bwglSwapBuffers     0x10              eobj/libengine.a(glbuild.o)
bufplce             0x10              eobj/libengine.a(engine.o)
asm1                0x10              eobj/libengine.a(engine.o)
bglFogf             0x10              eobj/libengine.a(glbuild.o)
bglFogi             0x10              eobj/libengine.a(glbuild.o)
globalpicnum        0x10              eobj/libengine.a(engine.o)
bglReadPixels       0x10              eobj/libengine.a(glbuild.o)
espbak              0x10              eobj/libengine.a(engine.o)
picsiz              0x3c00            eobj/libengine.a(engine.o)
lastpm16time        0x10              eobj/libbuild.a(build.o)
globalvisibility    0x10              eobj/libengine.a(engine.o)
bglClear            0x10              eobj/libengine.a(glbuild.o)
hudmem              0x78000           eobj/libengine.a(engine.o)
globalshiftval      0x10              eobj/libengine.a(engine.o)
bwglChoosePixelFormat
                    0x10              eobj/libengine.a(glbuild.o)
REALMSpalette       0x300             obj/astub.o
bglFrustum          0x10              eobj/libengine.a(glbuild.o)
globaluclip         0x10              eobj/libengine.a(engine.o)
sector              0x28000           eobj/libengine.a(engine.o)
__w32_sharedptr_unexpected
                    0x10              c:/mingw/bin/../lib/gcc/mingw32/3.4.2/libgcc.a(w32-shared-ptr.o)
temphitag           0x10              eobj/libbuild.a(build.o)
validmode           0x1000            eobj/libengine.a(engine.o)
bwglMakeCurrent     0x10              eobj/libengine.a(glbuild.o)
bglGetFloatv        0x10              eobj/libengine.a(glbuild.o)
cursectnum          0x10              eobj/libbuild.a(build.o)
globalbufplc        0x10              eobj/libengine.a(engine.o)
svel                0x10              eobj/libbuild.a(build.o)
gvo                 0x10              eobj/libengine.a(engine.o)
halfxdim16          0x10              eobj/libengine.a(engine.o)
bglGenTextures      0x10              eobj/libengine.a(glbuild.o)
tempextra           0x10              eobj/libbuild.a(build.o)
gotpic              0x780             eobj/libengine.a(engine.o)
bstatus             0x10              obj/astub.o
wy1                 0x10              eobj/libengine.a(engine.o)
numsectors          0x10              eobj/libengine.a(engine.o)
numpalookups        0x10              eobj/libengine.a(engine.o)
bglClearColor       0x10              eobj/libengine.a(glbuild.o)
osearchy            0x10              eobj/libbuild.a(build.o)
keyasciififoplc     0x10              eobj/libengine.a(winlayer.o)
keyfifoend          0x10              eobj/libengine.a(winlayer.o)
bglDepthMask        0x10              eobj/libengine.a(glbuild.o)
uplc                0xc80             eobj/libengine.a(engine.o)
guo                 0x10              eobj/libengine.a(engine.o)
bglColor4ub         0x10              eobj/libengine.a(glbuild.o)
bwglDescribePixelFormat
                    0x10              eobj/libengine.a(glbuild.o)
mousy               0x10              eobj/libbuild.a(build.o)
globalx1            0x10              eobj/libengine.a(engine.o)
bglCompressedTexImage2DARB
                    0x10              eobj/libengine.a(glbuild.o)
xdim                0x10              eobj/libengine.a(engine.o)
keyfifo             0x40              eobj/libengine.a(winlayer.o)
pointhighlight      0x10              eobj/libengine.a(engine.o)
globaly1            0x10              eobj/libengine.a(engine.o)
bglFogfv            0x10              eobj/libengine.a(glbuild.o)
bglTexSubImage2D    0x10              eobj/libengine.a(glbuild.o)
bglDepthFunc        0x10              eobj/libengine.a(glbuild.o)
headspritesect      0x2010            eobj/libengine.a(engine.o)
globalposx          0x10              eobj/libengine.a(engine.o)
curpalette          0x400             eobj/libengine.a(engine.o)
yxaspect            0x10              eobj/libengine.a(engine.o)
dmost               0xc80             eobj/libengine.a(engine.o)
singlobalang        0x10              eobj/libengine.a(engine.o)
bglTexParameteri    0x10              eobj/libengine.a(glbuild.o)
numhits             0x10              eobj/libengine.a(engine.o)
SLIMEpalette        0x300             obj/astub.o
dmval               0x10              eobj/libengine.a(pragmas.o)
spriteext           0x59600           eobj/libengine.a(engine.o)
bglTexEnvf          0x10              eobj/libengine.a(glbuild.o)
artversion          0x10              eobj/libengine.a(engine.o)
curpalettefaded     0x400             eobj/libengine.a(engine.o)
numtiles            0x10              eobj/libengine.a(engine.o)
waloff              0xf000            eobj/libengine.a(engine.o)
BOSS1palette        0x300             obj/astub.o
bglHint             0x10              eobj/libengine.a(glbuild.o)
posx                0x10              eobj/libbuild.a(build.o)
bglGetString        0x10              eobj/libengine.a(glbuild.o)
bitdepth            0x10              eobj/libengine.a(kplib.o)
bglPushAttrib       0x10              eobj/libengine.a(glbuild.o)
globalyscale        0x10              eobj/libengine.a(engine.o)
bglBegin            0x10              eobj/libengine.a(glbuild.o)
automapping         0x10              eobj/libengine.a(engine.o)
cosglobalang        0x10              eobj/libengine.a(engine.o)
bwglDeleteContext   0x10              eobj/libengine.a(glbuild.o)
palookup            0x400             eobj/libengine.a(engine.o)
showinvisibility    0x10              eobj/libengine.a(engine.o)
bglPopAttrib        0x10              eobj/libengine.a(glbuild.o)
globalzx            0x10              eobj/libengine.a(engine.o)
parallaxtype        0x10              eobj/libengine.a(engine.o)

Memory Configuration

Name             Origin             Length             Attributes
*default*        0x00000000         0xffffffff

Linker script and memory map

                0x00400000                __image_base__ = 0x400000
                0x00000000                __dll__ = 0x0
                0x00001000                __section_alignment__ = 0x1000
                0x00000200                __file_alignment__ = 0x200
                0x00000004                __major_os_version__ = 0x4
                0x00000000                __minor_os_version__ = 0x0
                0x00000001                __major_image_version__ = 0x1
                0x00000000                __minor_image_version__ = 0x0
                0x00000004                __major_subsystem_version__ = 0x4
                0x00000000                __minor_subsystem_version__ = 0x0
                0x00000002                __subsystem__ = 0x2
                0x00200000                __size_of_stack_reserve__ = 0x200000
                0x00001000                __size_of_stack_commit__ = 0x1000
                0x00100000                __size_of_heap_reserve__ = 0x100000
                0x00001000                __size_of_heap_commit__ = 0x1000
                0x00000000                __loader_flags__ = 0x0
LOAD c:/mingw/bin/../lib/gcc/mingw32/3.4.2/../../../crt2.o
LOAD c:/mingw/bin/../lib/gcc/mingw32/3.4.2/crtbegin.o
LOAD obj/astub.o
LOAD obj/buildres.o
LOAD eobj/libbuild.a
LOAD eobj/libengine.a
LOAD c:/mingw/bin/../lib/gcc/mingw32/3.4.2/../../../libm.a
LOAD c:/mingw/bin/../lib/gcc/mingw32/3.4.2/../../../libmingwex.a
LOAD c:/mingw/bin/../lib/gcc/mingw32/3.4.2/../../../libwinmm.a
LOAD c:/mingw/bin/../lib/gcc/mingw32/3.4.2/../../../libwsock32.a
LOAD c:/mingw/bin/../lib/gcc/mingw32/3.4.2/../../../libdxguid.a
LOAD c:/mingw/bin/../lib/gcc/mingw32/3.4.2/../../../libmingw32.a
LOAD c:/mingw/bin/../lib/gcc/mingw32/3.4.2/libgcc.a
LOAD c:/mingw/bin/../lib/gcc/mingw32/3.4.2/../../../libmoldname.a
LOAD c:/mingw/bin/../lib/gcc/mingw32/3.4.2/../../../libmingwex.a
LOAD c:/mingw/bin/../lib/gcc/mingw32/3.4.2/../../../libmsvcrt.a
LOAD c:/mingw/bin/../lib/gcc/mingw32/3.4.2/../../../libgdi32.a
LOAD c:/mingw/bin/../lib/gcc/mingw32/3.4.2/../../../libcomdlg32.a
LOAD c:/mingw/bin/../lib/gcc/mingw32/3.4.2/../../../libuser32.a
LOAD c:/mingw/bin/../lib/gcc/mingw32/3.4.2/../../../libkernel32.a
LOAD c:/mingw/bin/../lib/gcc/mingw32/3.4.2/../../../libadvapi32.a
LOAD c:/mingw/bin/../lib/gcc/mingw32/3.4.2/../../../libshell32.a
LOAD c:/mingw/bin/../lib/gcc/mingw32/3.4.2/../../../libmingw32.a
LOAD c:/mingw/bin/../lib/gcc/mingw32/3.4.2/libgcc.a
LOAD c:/mingw/bin/../lib/gcc/mingw32/3.4.2/../../../libmoldname.a
LOAD c:/mingw/bin/../lib/gcc/mingw32/3.4.2/../../../libmingwex.a
LOAD c:/mingw/bin/../lib/gcc/mingw32/3.4.2/../../../libmsvcrt.a
LOAD c:/mingw/bin/../lib/gcc/mingw32/3.4.2/crtend.o

.text           0x00401000    0x84e00
 *(.init)
 *(.text)
 .text          0x00401000      0x2d0 c:/mingw/bin/../lib/gcc/mingw32/3.4.2/../../../crt2.o
                0x00401290                WinMainCRTStartup
                0x00401270                mainCRTStartup
                0x004012b0                atexit
                0x004012c0                _onexit
 .text          0x004012d0       0x10 c:/mingw/bin/../lib/gcc/mingw32/3.4.2/crtbegin.o
                0x004012d0                __do_sjlj_init
 .text          0x004012e0    0x10520 obj/astub.o
                0x004014e5                ExtSaveMap
                0x004046b8                Show2dText
                0x004012e0                GetTime
                0x0040547a                ExtEditSpriteData
                0x00404c6d                ResetFOFSize
                0x00405627                SpriteName
                0x0040e17d                ExtUnInit
                0x004116ab                ResetKeys
                0x004105ec                EditSpriteData
                0x0040ef05                SetBOSS1Palette
                0x0040e195                ExtPreCheckKeys
                0x00405ab7                m32_showmouse
                0x00405598                PrintStatus
                0x0040effe                SearchSectorsForward
                0x00405362                ExtEditWallData
                0x0040ef51                SetWATERPalette
                0x004027cc                ExtShowSectorData
                0x00402524                ExtGetSpriteCaption
                0x00405d29                AskIfSure
                0x00401520                ExtGetSectorCaption
                0x0040fe93                EditWallData
                0x00401cd2                SectorEffectorText
                0x0040565c                ReadPaletteTable
                0x0040dd67                ExtPreSaveMap
                0x0040dec8                ExtPreInit
                0x00411708                GetAToken
                0x0040f15d                EditSectorData
                0x00405e01                Keys3d
                0x0040bdba                Keys2d
                0x0040ef77                SetGAMEPalette
                0x004116be                Msg
                0x0040dce8                InitCustomColors
                0x0040ea98                ExtCheckKeys
                0x0040520c                ExtSE40Code
                0x004037e9                ExtShowWallData
                0x0040eadb                faketimerhandler
                0x0040f0b3                SearchSectorsBackward
                0x004012e6                ExtLoadMap
                0x00405a59                message
                0x00404ac9                ShowHelpText
                0x0040e273                ExtAnalyzeSprites
                0x00405a15                _message
                0x0040e6f1                Keys2d3d
                0x0040528e                ExtEditSectorData
                0x00401c45                ExtGetWallCaption
                0x00405938                ReadGamePalette
                0x0040da58                ExtSetupSpecialSpriteCols
                0x0040dec7                ExtPreLoadMap
                0x0040ef2b                SetSLIMEPalette
                0x00404c4e                ExtShowSpriteData
                0x004048c5                Show3dText
                0x0040df04                osdcmd_quit
                0x0040ef9d                kensetpalette
                0x0040df22                ExtInit
 .text          0x00411800    0x169e0 eobj/libbuild.a(build.o)
                0x004142a0                checksectorpointer
                0x004119d0                initcrc
                0x00411a80                showmouse
                0x00415f90                getfilenames
                0x004132f0                clearmidstatbar16
                0x00415040                whitelinescan
                0x00411b30                changechar
                0x00422ce0                AlignWalls
                0x00412890                getpoint
                0x004130d0                getlinehighlight
                0x00412c80                fillsector
                0x004171e0                getnumber16
                0x00415a70                insertpoint
                0x00415d90                getnumber256
                0x004131f0                getpointhighlight
                0x00412ab0                printcoords16
                0x00414e20                checkautoinsert
                0x00415950                deletepoint
                0x00414f40                clockdir
                0x00415f50                clearfilenames
                0x00416770                menuselect
                0x00411ba0                drawtilescreen
                0x00416450                keytimerstuff
                0x004222a0                app_main
                0x00416750                printmessage16
                0x004146a0                showwalldata
                0x00411a40                updatenumsprites
                0x004166b0                _printmessage16
                0x004157e0                fixspritesectors
                0x00411800                clearkeys
                0x00422fd0                editinput
                0x00415410                movewalls
                0x00412110                gettile
                0x00415c90                numloopsofsector
                0x00414440                copysector
                0x004152a0                flipwalls
                0x00414d60                fixrepeats
                0x00412970                adjustmark
                0x00416070                loadnames
                0x00422dc0                AutoAlignWalls
                0x00422c20                GetWallZPeg
                0x00415cd0                printmessage256
                0x00417350                overheadeditor
                0x004155e0                deletesector
                0x00412fb0                getclosestpointonwall
                0x00415320                loopinside
                0x004133a0                showspritedata
                0x00413ab0                showsectordata
 .text          0x004281e0      0xc80 eobj/libbuild.a(config.o)
                0x00428c90                writesetup
                0x004283c0                loadsetup
 .text          0x00428e60      0x860 eobj/libbuild.a(buildstartwin.o)
                0x00429590                DoLaunchWindow
 .text          0x004296c0    0x42220 eobj/libengine.a(engine.o)
                0x00460580                drawrooms
                0x00466c40                setviewback
                0x00431080                testvisiblemost
                0x0046b890                getrendermode
                0x00461d50                clipmove
                0x00437dc0                gloadtile_cached
                0x00460ee0                changespritesect
                0x00465f90                setvgapalette
                0x0042a700                partition
                0x00466020                setbrightness
                0x0042b920                md_defineskin
                0x0042f350                gltexmayhavealpha
                0x0042f450                gltexapplyprops
                0x00433100                dxtfilter
                0x00430fa0                vsinsaft
                0x00429760                hicinit
                0x0042f880                polymost_glinit
                0x00466a30                setviewtotile
                0x004664d0                setpalettefade
                0x0045cdb0                inside
                0x00466dc0                squarerotatetile
                0x00430970                trytexcache
                0x0042f980                resizeglcheck
                0x0046a660                printext16
                0x00438d80                polymost_precache
                0x0045f8a0                polymost_drawrooms
                0x00454310                drawmasks
                0x00460ff0                changespritestat
                0x0045a070                lastwall
                0x0045ca20                qloadkvx
                0x00431480                getceilzofslope
                0x0042b860                md_definehud
                0x0045b970                loadmaphack
                0x0045cb50                clipinsidebox
                0x0043d860                loadtile
                0x004298f0                hicsetsubsttex
                0x004654c0                setaspect
                0x0045e220                hitscan
                0x0046a7a0                printext256
                0x00468810                clear2dscreen
                0x00430440                gloadtile_art
                0x0044a8c0                polymost_drawsprite
                0x0042e440                md_loadmodel
                0x0045c850                copytilepiece
                0x0045cca0                clipinsideboxline
                0x00434d60                mddraw
                0x00468860                draw2dgrid
                0x00460fd0                deletesprite
                0x0045b950                insertsprite
                0x004296e0                loadvoxel
                0x0042bc40                md_setmisc
                0x00460ea0                krecip
                0x00466870                plotpixel
                0x00432f50                polymost_initosdfuncs
                0x0042a370                md_undefinetile
                0x00433510                writexcache
                0x00429840                hicsetpalettetint
                0x004321c0                setpolymost2dview
                0x004672d0                alignflorslope
                0x00467400                loopnumofsector
                0x00466e80                preparemirror
                0x0042bc90                md_undefinemodel
                0x004296d0                kfree
                0x00465550                setview
                0x00464380                updatesectorz
                0x004392c0                polymost_fillpolygon
                0x00467860                drawline256
                0x0042bb70                md_defineframe
                0x00431100                getzsofslope
                0x00454150                uninitengine
                0x0042f790                polymost_glreset
                0x00466210                setgamemode
                0x0045cf60                loadoldboard
                0x00443d40                drawpoly
                0x004670e0                sectorofwall
                0x0046b2a0                screencapture_pcx
                0x0042f410                gltexinvalidateall
                0x0045a0c0                drawmapview
                0x00431330                getflorzofslope
                0x004656a0                flushperms
                0x0046b850                setrendermode
                0x00429a60                hicsetskybox
                0x00464610                getmousevalues
                0x00463f10                pushmove
                0x00460e60                ksqrt
                0x0042fc30                fixtransparency
                0x00468570                qsetmode640350
                0x00437fd0                gloadtile_hi
                0x00430f20                vsdel
                0x00461c70                dragpoint
                0x004322c0                polymost_printext256
                0x0045c360                loadpics
                0x0045bfd0                clearallviews
                0x0045c760                allocatepermanenttile
                0x00468700                qsetmodeany
                0x00465b60                makepalookup
                0x00468170                drawcircle16
                0x00453a10                initengine
                0x0045c140                nextpage
                0x004656b0                rotatesprite
                0x00460d40                getangle
                0x004669c0                getpixel
                0x0042a870                gloadtex
                0x0042f3a0                gltexinvalidate
                0x00460f40                setsprite
                0x0042dcf0                mdload
                0x00454220                initspritelists
                0x00464640                krand
                0x00429cf0                drawline2d
                0x00468b20                draw2dscreen
                0x004671a0                alignceilslope
                0x0046b820                screencapture
                0x00446c70                polymost_dorotatesprite
                0x0042b590                mdfree
                0x00461050                nextsectorneighborz
                0x0042ba80                md_defineanimation
                0x004613b0                neartag
                0x00430b50                initmosts
                0x004296c0                kmalloc
                0x00467d30                drawline16
                0x00438e50                polymost_drawtilescreen
                0x00464550                rotatepoint
                0x00429c20                hicclearsubst
                0x0042a3a0                mdloadskin_trytexcache
                0x00464660                getzrange
                0x00466f90                completemirror
                0x00467460                setfirstwall
                0x004666a0                clearview
                0x0045bb90                saveboard
                0x0042a800                quicksort
                0x0046b8a0                setrollangle
                0x00466b90                invalidatetile
                0x00461120                cansee
                0x0045ce80                updatesector
                0x0042a260                md_tilehasmodel
                0x00468620                qsetmode640480
                0x0044d440                domost
                0x00433ab0                dedxtfilter
                0x0045dcd0                loadboard
                0x0044c0e0                polymost_drawmaskwall
                0x0046ac10                screencapture_tga
 .text          0x0046b8e0     0x7090 eobj/libengine.a(winlayer.o)
                0x0046c0e0                debugprintf
                0x0046ca40                handleevents
                0x0046c180                readmousexy
                0x00470a40                setvideomode
                0x00472020                initsystem
                0x0046dfe0                getvalidmodes
                0x0046d7d0                grabmouse
                0x0046c140                bflushchars
                0x0046c0f0                bgetchar
                0x0046c950                sampletimer
                0x0046ba50                wm_ynbox
                0x00471720                inittimer
                0x0046bfd0                win_getstartupwin
                0x00472320                WinMain@16
                0x0046c8b0                getticks
                0x0046c1e0                readmousebstatus
                0x0046f4e0                setgamma
                0x0046c7b0                getkeyname
                0x0046ded0                gettimerfreq
                0x0046b8f0                win_gethinstance
                0x0046e630                begindrawing
                0x0046c020                win_getstartupcommand
                0x0046b8e0                win_gethwnd
                0x0046e620                resetvideomode
                0x0046c410                releaseallbuttons
                0x0046d810                uninitmouse
                0x0046c7d0                getjoyname
                0x0046c150                setkeypresscallback
                0x0046c120                bkbhit
                0x0046ef00                showframe
                0x0046b900                win_allowtaskswitching
                0x0046c160                setmousepresscallback
                0x0046b9b0                win_checkinstance
                0x0046c0b0                uninittimer
                0x0046e730                enddrawing
                0x0046bac0                wm_setapptitle
                0x0046d3c0                initprintf
                0x00470040                uninitsystem
                0x0046d840                getjoydeadzone
                0x0046d990                setjoydeadzone
                0x0046b9f0                wm_msgbox
                0x0046dd70                uninitinput
                0x0046fc80                setpalette
                0x00471830                initinput
                0x0046c170                setjoypresscallback
                0x0046c8a0                installusertimercallback
                0x0046e460                checkvideomode
                0x0046dae0                initmouse
 .text          0x00472970     0x2d90 eobj/libengine.a(cache1d.o)
                0x00472b60                agecache
                0x00473e30                kfilelength
                0x00473ff0                kclose
                0x00472a60                suckcache
                0x00473370                fopenfrompath
                0x00473890                uninitgroupfile
                0x00473750                uninitsinglegroupfile
                0x004753e0                dfwrite
                0x004729d0                initcache
                0x00473310                openfrompath
                0x00473cc0                klseek
                0x00474bc0                dfread
                0x004730b0                addsearchpath
                0x004731c0                findfrompath
                0x00473910                kopen4load
                0x00472d20                allocache
                0x00474180                klistfree
                0x00474900                kdfread
                0x00473470                initgroupfile
                0x00473b10                kread
                0x00473f00                ktell
                0x004741b0                klistpath
                0x004750f0                kdfwrite
 .text          0x00475700     0x1d20 eobj/libengine.a(osd.o)
                0x00475c80                OSD_SetParameters
                0x00476610                OSD_Dispatch
                0x00475e70                OSD_Draw
                0x00475ac0                OSD_SetFunctions
                0x00475cc0                OSD_CaptureKey
                0x00476200                OSD_RegisterFunction
                0x004764b0                OSD_Printf
                0x00475a50                OSD_SetLogFile
                0x00475cd0                OSD_ResizeDisplay
                0x00475e10                OSD_ShowDisplay
                0x00475a10                OSD_Cleanup
                0x00476410                OSD_Init
                0x004769a0                OSD_HandleKey
                0x00476780                OSD_DispatchQueued
 .text          0x00477420      0x750 eobj/libengine.a(compat.o)
                0x00477530                Bopendir
                0x00477aa0                Bwildmatch
                0x004776f0                Bstrtoken
                0x00477420                Bgethomedir
                0x004776c0                Bclosedir
                0x00477500                Bfilelength
                0x00477470                Bgetsystemdrives
                0x00477590                Breaddir
                0x004777b0                Bcorrectfilename
                0x00477950                Bcanonicalisefilename
                0x00477b50                Bgetsysmemsize
 .text          0x00477b70     0x2510 eobj/libengine.a(defs.o)
                0x0047a040                loaddefinitionsfile
 .text          0x0047a080      0xb90 eobj/libengine.a(glbuild.o)
                0x0047a1a0                unloadgldriver
                0x0047a3c0                loadgldriver
                0x0047a130                loadglextensions
 .text          0x0047ac10      0x510 eobj/libengine.a(baselayer.o)
                0x0047b060                baselayer_init
 .text          0x0047b120      0x160 eobj/libengine.a(pragmas.o)
                0x0047b120                boundmulscale
                0x0047b150                clearbufbyte
                0x0047b220                copybufreverse
                0x0047b1b0                copybufbyte
 .text          0x0047b280       0xe0 eobj/libengine.a(crc32.o)
                0x0047b280                initcrc32table
                0x0047b2d0                crc32init
                0x0047b310                crc32finish
                0x0047b2e0                crc32block
                0x0047b320                crc32once
 .text          0x0047b360      0xc60 eobj/libengine.a(scriptfile.o)
                0x0047bae0                scriptfile_fromfile
                0x0047b410                scriptfile_getlinum
                0x0047b470                scriptfile_getstring
                0x0047bf70                scriptfile_clearsymbols
                0x0047bbb0                scriptfile_getsymbolvalue
                0x0047b8a0                scriptfile_preparse
                0x0047b5c0                scriptfile_getdouble
                0x0047bd90                scriptfile_close
                0x0047b7d0                scriptfile_getbraces
                0x0047b4c0                scriptfile_getnumber
                0x0047be20                scriptfile_addsymbolvalue
                0x0047b3d0                scriptfile_gettoken
                0x0047bcf0                scriptfile_fromstring
                0x0047bc40                scriptfile_getsymbol
 .text          0x0047bfc0      0x100 eobj/libengine.a(lzf_d.o)
                0x0047bfc0                lzf_decompress
 .text          0x0047c0c0      0x250 eobj/libengine.a(lzf_c.o)
                0x0047c0c0                lzf_compress
 .text          0x0047c310      0x7c0 eobj/libengine.a(md4.o)
                0x0047c9e0                md4finish
                0x0047c8e0                md4block
                0x0047ca80                md4once
                0x0047c310                md4init
 .text          0x0047cad0     0x7680 eobj/libengine.a(kplib.o)
                0x00482e90                kzopen
                0x0047f210                kprender
                0x00483100                kzfindfilestart
                0x00484020                kpzload
                0x00483fc0                kzeof
                0x00482b20                kzuninit
                0x00483440                kzread
                0x00483f70                kztell
                0x00483f90                kzgetc
                0x00483f00                kzseek
                0x0047efa0                kpgetdim
                0x00482b70                kzaddstack
                0x00483ff0                kzclose
                0x00483ee0                kzfilelength
                0x00483150                kzfindfile
 .text          0x00484150       0x30 c:/mingw/bin/../lib/gcc/mingw32/3.4.2/../../../libmingwex.a(snprintf.o)
                0x00484150                snprintf
 .text          0x00484180      0x560 c:/mingw/bin/../lib/gcc/mingw32/3.4.2/../../../libmingwex.a(dirent.o)
                0x00484570                rewinddir
                0x004845d0                telldir
                0x00484510                closedir
                0x004843c0                readdir
                0x00484180                opendir
                0x00484610                seekdir
 .text          0x004846e0      0x3c0 c:/mingw/bin/../lib/gcc/mingw32/3.4.2/../../../libdxguid.a(dxguid.o)
                0x00484990                GUID_POV
                0x00484940                GUID_RyAxis
                0x00484860                CLSID_DirectInputDevice
                0x00484790                IID_IDirectDrawColorControl
                0x00484810                IID_IDirectSoundCapture
                0x00484770                IID_IDirectDrawPalette
                0x004846f0                CLSID_DirectDrawClipper
                0x00484980                GUID_Key
                0x004848c0                IID_IDirectInputDeviceW
                0x004849b0                GUID_SysMouse
                0x00484890                IID_IDirectInput2A
                0x004846e0                CLSID_DirectDraw
                0x004848b0                IID_IDirectInputDeviceA
                0x00484830                IID_IDirectSoundNotify
                0x00484760                IID_IDirectDrawSurface4
                0x004849c0                GUID_SysKeyboard
                0x004847f0                IID_IDirectSound3DListener
                0x00484970                GUID_Button
                0x00484a30                GUID_SawtoothUp
                0x00484710                IID_IDirectDraw2
                0x004848a0                IID_IDirectInput2W
                0x00484700                IID_IDirectDraw
                0x00484920                GUID_ZAxis
                0x004849d0                GUID_Joystick
                0x00484a20                GUID_Triangle
                0x004847c0                CLSID_DirectSoundCapture
                0x004847b0                CLSID_DirectSound
                0x00484740                IID_IDirectDrawSurface2
                0x004849a0                GUID_Unknown
                0x00484a40                GUID_SawtoothDown
                0x00484880                IID_IDirectInputW
                0x00484730                IID_IDirectDrawSurface
                0x00484720                IID_IDirectDraw4
                0x00484820                IID_IDirectSoundCaptureBuffer
                0x004849e0                GUID_ConstantForce
                0x00484a00                GUID_Square
                0x004847d0                IID_IDirectSound
                0x00484a50                GUID_Spring
                0x00484950                GUID_RzAxis
                0x004847e0                IID_IDirectSoundBuffer
                0x004848f0                IID_IDirectInputEffect
                0x004849f0                GUID_RampForce
                0x00484a60                GUID_Damper
                0x004848e0                IID_IDirectInputDevice2W
                0x00484a90                GUID_CustomForce
                0x00484840                IID_IKsPropertySet
                0x00484a10                GUID_Sine
                0x004847a0                IID_IDirectDrawGammaControl
                0x00484a70                GUID_Inertia
                0x004848d0                IID_IDirectInputDevice2A
                0x00484850                CLSID_DirectInput
                0x00484930                GUID_RxAxis
                0x00484750                IID_IDirectDrawSurface3
                0x00484900                GUID_XAxis
                0x00484a80                GUID_Friction
                0x00484910                GUID_YAxis
                0x00484780                IID_IDirectDrawClipper
                0x00484800                IID_IDirectSound3DBuffer
                0x00484870                IID_IDirectInputA
                0x00484960                GUID_Slider
 .text          0x00484aa0      0x120 c:/mingw/bin/../lib/gcc/mingw32/3.4.2/../../../libmingw32.a(main.o)
                0x00484aa0                main
 .text          0x00484bc0       0x30 c:/mingw/bin/../lib/gcc/mingw32/3.4.2/../../../libmingw32.a(pseudo-reloc.o)
                0x00484bc0                _pei386_runtime_relocator
 .text          0x00484bf0       0x10 c:/mingw/bin/../lib/gcc/mingw32/3.4.2/../../../libmingw32.a(CRT_fp10.o)
                0x00484bf0                _fpreset
                0x00484bf0                fpreset
 .text          0x00484c00      0x100 c:/mingw/bin/../lib/gcc/mingw32/3.4.2/../../../libmingw32.a(gccmain.o)
                0x00484c90                __main
                0x00484c00                __do_global_dtors
                0x00484c30                __do_global_ctors
 .text          0x00484d00      0x2f0 c:/mingw/bin/../lib/gcc/mingw32/3.4.2/libgcc.a(w32-shared-ptr.o)
                0x00484db0                __w32_sharedptr_initialize
 .text          0x00484ff0      0x160 c:/mingw/bin/../lib/gcc/mingw32/3.4.2/libgcc.a(_divdi3.o)
                0x00484ff0                __divdi3
 .text          0x00485150       0x30 c:/mingw/bin/../lib/gcc/mingw32/3.4.2/libgcc.a(_chkstk.o)
                0x00485150                __chkstk
                0x00485150                _alloca
 .text          0x00485180       0x50 c:/mingw/bin/../lib/gcc/mingw32/3.4.2/libgcc.a(_eprintf.o)
                0x00485180                __eprintf
 .text          0x004851d0        0x8 c:/mingw/bin/../lib/gcc/mingw32/3.4.2/../../../libmoldname.a(duuds00089.o)
                0x004851d0                strupr
 *fill*         0x004851d8        0x8 00
 .text          0x004851e0        0x8 c:/mingw/bin/../lib/gcc/mingw32/3.4.2/../../../libmoldname.a(duuds00002.o)
                0x004851e0                chdir
 *fill*         0x004851e8        0x8 00
 .text          0x004851f0        0x8 c:/mingw/bin/../lib/gcc/mingw32/3.4.2/../../../libmoldname.a(duuds00055.o)
                0x004851f0                mkdir
 *fill*         0x004851f8        0x8 00
 .text          0x00485200        0x8 c:/mingw/bin/../lib/gcc/mingw32/3.4.2/../../../libmoldname.a(duuds00037.o)
                0x00485200                getcwd
 *fill*         0x00485208        0x8 00
 .text          0x00485210        0x8 c:/mingw/bin/../lib/gcc/mingw32/3.4.2/../../../libmoldname.a(duuds00000.o)
                0x00485210                access
 *fill*         0x00485218        0x8 00
 .text          0x00485220        0x8 c:/mingw/bin/../lib/gcc/mingw32/3.4.2/../../../libmoldname.a(duuds00006.o)
                0x00485220                close
 *fill*         0x00485228        0x8 00
 .text          0x00485230        0x8 c:/mingw/bin/../lib/gcc/mingw32/3.4.2/../../../libmoldname.a(duuds00110.o)
                0x00485230                write
 *fill*         0x00485238        0x8 00
 .text          0x00485240        0x8 c:/mingw/bin/../lib/gcc/mingw32/3.4.2/../../../libmoldname.a(duuds00058.o)
                0x00485240                open
 *fill*         0x00485248        0x8 00
 .text          0x00485250        0x8 c:/mingw/bin/../lib/gcc/mingw32/3.4.2/../../../libmoldname.a(duuds00079.o)
                0x00485250                stat
 *fill*         0x00485258        0x8 00
 .text          0x00485260        0x8 c:/mingw/bin/../lib/gcc/mingw32/3.4.2/../../../libmoldname.a(duuds00081.o)
                0x00485260                strdup
 *fill*         0x00485268        0x8 00
 .text          0x00485270        0x8 c:/mingw/bin/../lib/gcc/mingw32/3.4.2/../../../libmoldname.a(duuds00051.o)
                0x00485270                lseek
 *fill*         0x00485278        0x8 00
 .text          0x00485280        0x8 c:/mingw/bin/../lib/gcc/mingw32/3.4.2/../../../libmoldname.a(duuds00064.o)
                0x00485280                read
 *fill*         0x00485288        0x8 00
 .text          0x00485290        0x8 c:/mingw/bin/../lib/gcc/mingw32/3.4.2/../../../libmoldname.a(duuds00023.o)
                0x00485290                fdopen
 *fill*         0x00485298        0x8 00
 .text          0x004852a0        0x8 c:/mingw/bin/../lib/gcc/mingw32/3.4.2/../../../libmoldname.a(duuds00032.o)
                0x004852a0                fstat
 *fill*         0x004852a8        0x8 00
 .text          0x004852b0        0x8 c:/mingw/bin/../lib/gcc/mingw32/3.4.2/../../../libmoldname.a(duuds00026.o)
                0x004852b0                filelength
 *fill*         0x004852b8        0x8 00
 .text          0x004852c0        0x8 c:/mingw/bin/../lib/gcc/mingw32/3.4.2/../../../libmsvcrt.a(dwpds00080.o)
                0x004852c0                __set_app_type
 *fill*         0x004852c8        0x8 00
 .text          0x004852d0        0x8 c:/mingw/bin/../lib/gcc/mingw32/3.4.2/../../../libmsvcrt.a(dwpds00121.o)
                0x004852d0                _cexit
 *fill*         0x004852d8        0x8 00
 .text          0x004852e0        0x8 c:/mingw/bin/../lib/gcc/mingw32/3.4.2/../../../libmsvcrt.a(dwpds00060.o)
                0x004852e0                __p__environ
 *fill*         0x004852e8        0x8 00
 .text          0x004852f0        0x8 c:/mingw/bin/../lib/gcc/mingw32/3.4.2/../../../libmsvcrt.a(dwpds00656.o)
                0x004852f0                signal
 *fill*         0x004852f8        0x8 00
 .text          0x00485300        0x8 c:/mingw/bin/../lib/gcc/mingw32/3.4.2/../../../libmsvcrt.a(dwpds00062.o)
                0x00485300                __p__fmode
 *fill*         0x00485308        0x8 00
 .text          0x00485310        0x8 c:/mingw/bin/../lib/gcc/mingw32/3.4.2/../../../libmsvcrt.a(dwpds00388.o)
                0x00485310                _setmode
 *fill*         0x00485318        0x8 00
 .text          0x00485320        0x8 c:/mingw/bin/../lib/gcc/mingw32/3.4.2/../../../libmsvcrt.a(dwpds00039.o)
                0x00485320                __getmainargs
 *fill*         0x00485328        0x8 00
 .text          0x00485330        0x8 c:/mingw/bin/../lib/gcc/mingw32/3.4.2/../../../libmsvcrt.a(dwpds00626.o)
                0x00485330                malloc
 *fill*         0x00485338        0x8 00
 .text          0x00485340        0x8 c:/mingw/bin/../lib/gcc/mingw32/3.4.2/../../../libmsvcrt.a(dwpds00587.o)
                0x00485340                getenv
 *fill*         0x00485348        0x8 00
 .text          0x00485350        0x8 c:/mingw/bin/../lib/gcc/mingw32/3.4.2/../../../libmsvcrt.a(dwpds00575.o)
                0x00485350                free
 *fill*         0x00485358        0x8 00
 .text          0x00485360        0x8 c:/mingw/bin/../lib/gcc/mingw32/3.4.2/../../../libmsvcrt.a(dwpds00554.o)
                0x00485360                exit
 *fill*         0x00485368        0x8 00
 .text          0x00485370        0x8 c:/mingw/bin/../lib/gcc/mingw32/3.4.2/../../../libmsvcrt.a(dwpds00557.o)
                0x00485370                fclose
 *fill*         0x00485378        0x8 00
 .text          0x00485380        0x8 c:/mingw/bin/../lib/gcc/mingw32/3.4.2/../../../libmsvcrt.a(dwpds00665.o)
                0x00485380                strcmp
 *fill*         0x00485388        0x8 00
 .text          0x00485390        0x8 c:/mingw/bin/../lib/gcc/mingw32/3.4.2/../../../libmsvcrt.a(dwpds00563.o)
                0x00485390                fgets
 *fill*         0x00485398        0x8 00
 .text          0x004853a0        0x8 c:/mingw/bin/../lib/gcc/mingw32/3.4.2/../../../libmsvcrt.a(dwpds00667.o)
                0x004853a0                strcpy
 *fill*         0x004853a8        0x8 00
 .text          0x004853b0        0x8 c:/mingw/bin/../lib/gcc/mingw32/3.4.2/../../../libmsvcrt.a(dwpds00659.o)
                0x004853b0                sprintf
 *fill*         0x004853b8        0x8 00
 .text          0x004853c0        0x8 c:/mingw/bin/../lib/gcc/mingw32/3.4.2/../../../libmsvcrt.a(dwpds00671.o)
                0x004853c0                strlen
 *fill*         0x004853c8        0x8 00
 .text          0x004853d0        0x8 c:/mingw/bin/../lib/gcc/mingw32/3.4.2/../../../libmsvcrt.a(dwpds00642.o)
                0x004853d0                puts
 *fill*         0x004853d8        0x8 00
 .text          0x004853e0        0x8 c:/mingw/bin/../lib/gcc/mingw32/3.4.2/../../../libmsvcrt.a(dwpds00634.o)
                0x004853e0                memset
 *fill*         0x004853e8        0x8 00
 .text          0x004853f0        0x8 c:/mingw/bin/../lib/gcc/mingw32/3.4.2/../../../libmsvcrt.a(dwpds00681.o)
                0x004853f0                strtol
 *fill*         0x004853f8        0x8 00
 .text          0x00485400        0x8 c:/mingw/bin/../lib/gcc/mingw32/3.4.2/../../../libmsvcrt.a(dwpds00676.o)
                0x00485400                strrchr
 *fill*         0x00485408        0x8 00
 .text          0x00485410        0x8 c:/mingw/bin/../lib/gcc/mingw32/3.4.2/../../../libmsvcrt.a(dwpds00620.o)
                0x00485410                ldiv
 *fill*         0x00485418        0x8 00
 .text          0x00485420        0x8 c:/mingw/bin/../lib/gcc/mingw32/3.4.2/../../../libmsvcrt.a(dwpds00639.o)
                0x00485420                printf
 *fill*         0x00485428        0x8 00
 .text          0x00485430        0x8 c:/mingw/bin/../lib/gcc/mingw32/3.4.2/../../../libmsvcrt.a(dwpds00663.o)
                0x00485430                strcat
 *fill*         0x00485438        0x8 00
 .text          0x00485440        0x8 c:/mingw/bin/../lib/gcc/mingw32/3.4.2/../../../libmsvcrt.a(dwpds00664.o)
                0x00485440                strchr
 *fill*         0x00485448        0x8 00
 .text          0x00485450        0x8 c:/mingw/bin/../lib/gcc/mingw32/3.4.2/../../../libmsvcrt.a(dwpds00674.o)
                0x00485450                strncpy
 *fill*         0x00485458        0x8 00
 .text          0x00485460        0x8 c:/mingw/bin/../lib/gcc/mingw32/3.4.2/../../../libmsvcrt.a(dwpds00648.o)
                0x00485460                realloc
 *fill*         0x00485468        0x8 00
 .text          0x00485470        0x8 c:/mingw/bin/../lib/gcc/mingw32/3.4.2/../../../libmsvcrt.a(dwpds00543.o)
                0x00485470                atol
 *fill*         0x00485478        0x8 00
 .text          0x00485480        0x8 c:/mingw/bin/../lib/gcc/mingw32/3.4.2/../../../libmsvcrt.a(dwpds00569.o)
                0x00485480                fprintf
 *fill*         0x00485488        0x8 00
 .text          0x00485490        0x8 c:/mingw/bin/../lib/gcc/mingw32/3.4.2/../../../libmsvcrt.a(dwpds00542.o)
                0x00485490                atoi
 *fill*         0x00485498        0x8 00
 .text          0x004854a0        0x8 c:/mingw/bin/../lib/gcc/mingw32/3.4.2/../../../libmsvcrt.a(dwpds00651.o)
                0x004854a0                rewind
 *fill*         0x004854a8        0x8 00
 .text          0x004854b0        0x8 c:/mingw/bin/../lib/gcc/mingw32/3.4.2/../../../libmsvcrt.a(dwpds00679.o)
                0x004854b0                strtod
 *fill*         0x004854b8        0x8 00
 .text          0x004854c0        0x8 c:/mingw/bin/../lib/gcc/mingw32/3.4.2/../../../libmsvcrt.a(dwpds00411.o)
                0x004854c0                _stricmp
 *fill*         0x004854c8        0x8 00
 .text          0x004854d0        0x8 c:/mingw/bin/../lib/gcc/mingw32/3.4.2/../../../libmsvcrt.a(dwpds00568.o)
                0x004854d0                fopen
 *fill*         0x004854d8        0x8 00
 .text          0x004854e0        0x8 c:/mingw/bin/../lib/gcc/mingw32/3.4.2/../../../libmsvcrt.a(dwpds00632.o)
                0x004854e0                memcpy
 *fill*         0x004854e8        0x8 00
 .text          0x004854f0        0x8 c:/mingw/bin/../lib/gcc/mingw32/3.4.2/../../../libmsvcrt.a(dwpds00570.o)
                0x004854f0                fputc
 *fill*         0x004854f8        0x8 00
 .text          0x00485500        0x8 c:/mingw/bin/../lib/gcc/mingw32/3.4.2/../../../libmsvcrt.a(dwpds00583.o)
                0x00485500                fwrite
 *fill*         0x00485508        0x8 00
 .text          0x00485510        0x8 c:/mingw/bin/../lib/gcc/mingw32/3.4.2/../../../libmsvcrt.a(dwpds00682.o)
                0x00485510                strtoul
 *fill*         0x00485518        0x8 00
 .text          0x00485520        0x8 c:/mingw/bin/../lib/gcc/mingw32/3.4.2/../../../libmsvcrt.a(dwpds00657.o)
                0x00485520                sin
 *fill*         0x00485528        0x8 00
 .text          0x00485530        0x8 c:/mingw/bin/../lib/gcc/mingw32/3.4.2/../../../libmsvcrt.a(dwpds00549.o)
                0x00485530                cos
 *fill*         0x00485538        0x8 00
 .text          0x00485540        0x8 c:/mingw/bin/../lib/gcc/mingw32/3.4.2/../../../libmsvcrt.a(dwpds00660.o)
                0x00485540                sqrt
 *fill*         0x00485548        0x8 00
 .text          0x00485550        0x8 c:/mingw/bin/../lib/gcc/mingw32/3.4.2/../../../libmsvcrt.a(dwpds00566.o)
                0x00485550                floor
 *fill*         0x00485558        0x8 00
 .text          0x00485560        0x8 c:/mingw/bin/../lib/gcc/mingw32/3.4.2/../../../libmsvcrt.a(dwpds00152.o)
                0x00485560                _errno
 *fill*         0x00485568        0x8 00
 .text          0x00485570        0x8 c:/mingw/bin/../lib/gcc/mingw32/3.4.2/../../../libmsvcrt.a(dwpds00647.o)
                0x00485570                rand
 *fill*         0x00485578        0x8 00
 .text          0x00485580        0x8 c:/mingw/bin/../lib/gcc/mingw32/3.4.2/../../../libmsvcrt.a(dwpds00545.o)
                0x00485580                calloc
 *fill*         0x00485588        0x8 00
 .text          0x00485590        0x8 c:/mingw/bin/../lib/gcc/mingw32/3.4.2/../../../libmsvcrt.a(dwpds00638.o)
                0x00485590                pow
 *fill*         0x00485598        0x8 00
 .text          0x004855a0        0x8 c:/mingw/bin/../lib/gcc/mingw32/3.4.2/../../../libmsvcrt.a(dwpds00645.o)
                0x004855a0                qsort
 *fill*         0x004855a8        0x8 00
 .text          0x004855b0        0x8 c:/mingw/bin/../lib/gcc/mingw32/3.4.2/../../../libmsvcrt.a(dwpds00655.o)
                0x004855b0                setvbuf
 *fill*         0x004855b8        0x8 00
 .text          0x004855c0        0x8 c:/mingw/bin/../lib/gcc/mingw32/3.4.2/../../../libmsvcrt.a(dwpds00576.o)
                0x004855c0                freopen
 *fill*         0x004855c8        0x8 00
 .text          0x004855d0        0x8 c:/mingw/bin/../lib/gcc/mingw32/3.4.2/../../../libmsvcrt.a(dwpds00701.o)
                0x004855d0                vsprintf
 *fill*         0x004855d8        0x8 00
 .text          0x004855e0        0x8 c:/mingw/bin/../lib/gcc/mingw32/3.4.2/../../../libmsvcrt.a(dwpds00445.o)
                0x004855e0                _vsnprintf
 *fill*         0x004855e8        0x8 00
 .text          0x004855f0        0x8 c:/mingw/bin/../lib/gcc/mingw32/3.4.2/../../../libmsvcrt.a(dwpds00574.o)
                0x004855f0                fread
 *fill*         0x004855f8        0x8 00
 .text          0x00485600        0x8 c:/mingw/bin/../lib/gcc/mingw32/3.4.2/../../../libmsvcrt.a(dwpds00571.o)
                0x00485600                fputs
 *fill*         0x00485608        0x8 00
 .text          0x00485610        0x8 c:/mingw/bin/../lib/gcc/mingw32/3.4.2/../../../libmsvcrt.a(dwpds00633.o)
                0x00485610                memmove
 *fill*         0x00485618        0x8 00
 .text          0x00485620        0x8 c:/mingw/bin/../lib/gcc/mingw32/3.4.2/../../../libmsvcrt.a(dwpds00415.o)
                0x00485620                _strnicmp
 *fill*         0x00485628        0x8 00
 .text          0x00485630        0x8 c:/mingw/bin/../lib/gcc/mingw32/3.4.2/../../../libmsvcrt.a(dwpds00207.o)
                0x00485630                _getdcwd
 *fill*         0x00485638        0x8 00
 .text          0x00485640        0x8 c:/mingw/bin/../lib/gcc/mingw32/3.4.2/../../../libmsvcrt.a(dwpds00693.o)
                0x00485640                toupper
 *fill*         0x00485648        0x8 00
 .text          0x00485650        0x8 c:/mingw/bin/../lib/gcc/mingw32/3.4.2/../../../libmsvcrt.a(dwpds00581.o)
                0x00485650                ftell
 *fill*         0x00485658        0x8 00
 .text          0x00485660        0x8 c:/mingw/bin/../lib/gcc/mingw32/3.4.2/../../../libmsvcrt.a(dwpds00579.o)
                0x00485660                fseek
 *fill*         0x00485668        0x8 00
 .text          0x00485670        0x8 c:/mingw/bin/../lib/gcc/mingw32/3.4.2/../../../libmsvcrt.a(dwpds00280.o)
                0x00485670                _lrotl
 *fill*         0x00485678        0x8 00
 .text          0x00485680        0x8 c:/mingw/bin/../lib/gcc/mingw32/3.4.2/../../../libmsvcrt.a(dwpds00175.o)
                0x00485680                _findclose
 *fill*         0x00485688        0x8 00
 .text          0x00485690        0x8 c:/mingw/bin/../lib/gcc/mingw32/3.4.2/../../../libmsvcrt.a(dwpds00179.o)
                0x00485690                _findnext
 *fill*         0x00485698        0x8 00
 .text          0x004856a0        0x8 c:/mingw/bin/../lib/gcc/mingw32/3.4.2/../../../libmsvcrt.a(dwpds00176.o)
                0x004856a0                _findfirst
 *fill*         0x004856a8        0x8 00
 .text          0x004856b0        0x8 c:/mingw/bin/../lib/gcc/mingw32/3.4.2/../../../libmsvcrt.a(dwpds00198.o)
                0x004856b0                _fullpath
 *fill*         0x004856b8        0x8 00
 .text          0x004856c0        0x8 c:/mingw/bin/../lib/gcc/mingw32/3.4.2/../../../libmsvcrt.a(dwpds00533.o)
                0x004856c0                abort
 *fill*         0x004856c8        0x8 00
 .text          0x004856d0        0x8 c:/mingw/bin/../lib/gcc/mingw32/3.4.2/../../../libmsvcrt.a(dwpds00560.o)
                0x004856d0                fflush
 *fill*         0x004856d8        0x8 00
 .text          0x004856e0        0x8 c:/mingw/bin/../lib/gcc/mingw32/3.4.2/../../../libgdi32.a(deubs00145.o)
                0x004856e0                GetDeviceCaps@8
 *fill*         0x004856e8        0x8 00
 .text          0x004856f0        0x8 c:/mingw/bin/../lib/gcc/mingw32/3.4.2/../../../libgdi32.a(deubs00072.o)
                0x004856f0                DeleteObject@4
 *fill*         0x004856f8        0x8 00
 .text          0x00485700        0x8 c:/mingw/bin/../lib/gcc/mingw32/3.4.2/../../../libgdi32.a(deubs00012.o)
                0x00485700                BitBlt@36
 *fill*         0x00485708        0x8 00
 .text          0x00485710        0x8 c:/mingw/bin/../lib/gcc/mingw32/3.4.2/../../../libgdi32.a(deubs00294.o)
                0x00485710                SetDeviceGammaRamp@8
 *fill*         0x00485718        0x8 00
 .text          0x00485720        0x8 c:/mingw/bin/../lib/gcc/mingw32/3.4.2/../../../libgdi32.a(deubs00291.o)
                0x00485720                SetDIBColorTable@16
 *fill*         0x00485728        0x8 00
 .text          0x00485730        0x8 c:/mingw/bin/../lib/gcc/mingw32/3.4.2/../../../libgdi32.a(deubs00315.o)
                0x00485730                SetSystemPaletteUse@8
 *fill*         0x00485738        0x8 00
 .text          0x00485740        0x8 c:/mingw/bin/../lib/gcc/mingw32/3.4.2/../../../libgdi32.a(deubs00306.o)
                0x00485740                SetPaletteEntries@16
 *fill*         0x00485748        0x8 00
 .text          0x00485750        0x8 c:/mingw/bin/../lib/gcc/mingw32/3.4.2/../../../libgdi32.a(deubs00278.o)
                0x00485750                SelectPalette@12
 *fill*         0x00485758        0x8 00
 .text          0x00485760        0x8 c:/mingw/bin/../lib/gcc/mingw32/3.4.2/../../../libgdi32.a(deubs00256.o)
                0x00485760                RealizePalette@4
 *fill*         0x00485768        0x8 00
 .text          0x00485770        0x8 c:/mingw/bin/../lib/gcc/mingw32/3.4.2/../../../libgdi32.a(deubs00055.o)
                0x00485770                CreatePalette@4
 *fill*         0x00485778        0x8 00
 .text          0x00485780        0x8 c:/mingw/bin/../lib/gcc/mingw32/3.4.2/../../../libgdi32.a(deubs00069.o)
                0x00485780                DeleteDC@4
 *fill*         0x00485788        0x8 00
 .text          0x00485790        0x8 c:/mingw/bin/../lib/gcc/mingw32/3.4.2/../../../libgdi32.a(deubs00015.o)
                0x00485790                ChoosePixelFormat@8
 *fill*         0x00485798        0x8 00
 .text          0x004857a0        0x8 c:/mingw/bin/../lib/gcc/mingw32/3.4.2/../../../libgdi32.a(deubs00308.o)
                0x004857a0                SetPixelFormat@12
 *fill*         0x004857a8        0x8 00
 .text          0x004857b0        0x8 c:/mingw/bin/../lib/gcc/mingw32/3.4.2/../../../libgdi32.a(deubs00038.o)
                0x004857b0                CreateDIBSection@24
 *fill*         0x004857b8        0x8 00
 .text          0x004857c0        0x8 c:/mingw/bin/../lib/gcc/mingw32/3.4.2/../../../libgdi32.a(deubs00033.o)
                0x004857c0                CreateCompatibleDC@4
 *fill*         0x004857c8        0x8 00
 .text          0x004857d0        0x8 c:/mingw/bin/../lib/gcc/mingw32/3.4.2/../../../libgdi32.a(deubs00277.o)
                0x004857d0                SelectObject@8
 *fill*         0x004857d8        0x8 00
 .text          0x004857e0        0x8 c:/mingw/bin/../lib/gcc/mingw32/3.4.2/../../../libgdi32.a(deubs00146.o)
                0x004857e0                GetDeviceGammaRamp@8
 *fill*         0x004857e8        0x8 00
 .text          0x004857f0        0x8 c:/mingw/bin/../lib/gcc/mingw32/3.4.2/../../../libuser32.a(dgdfs00502.o)
                0x004857f0                SendMessageA@16
 *fill*         0x004857f8        0x8 00
 .text          0x00485800        0x8 c:/mingw/bin/../lib/gcc/mingw32/3.4.2/../../../libuser32.a(dgdfs00143.o)
                0x00485800                DestroyWindow@4
 *fill*         0x00485808        0x8 00
 .text          0x00485810        0x8 c:/mingw/bin/../lib/gcc/mingw32/3.4.2/../../../libuser32.a(dgdfs00252.o)
                0x00485810                GetDlgItem@8
 *fill*         0x00485818        0x8 00
 .text          0x00485820        0x8 c:/mingw/bin/../lib/gcc/mingw32/3.4.2/../../../libuser32.a(dgdfs00579.o)
                0x00485820                ShowWindow@8
 *fill*         0x00485828        0x8 00
 .text          0x00485830        0x8 c:/mingw/bin/../lib/gcc/mingw32/3.4.2/../../../libuser32.a(dgdfs00346.o)
                0x00485830                GetWindowRect@8
 *fill*         0x00485838        0x8 00
 .text          0x00485840        0x8 c:/mingw/bin/../lib/gcc/mingw32/3.4.2/../../../libuser32.a(dgdfs00441.o)
                0x00485840                MoveWindow@24
 *fill*         0x00485848        0x8 00
 .text          0x00485850        0x8 c:/mingw/bin/../lib/gcc/mingw32/3.4.2/../../../libuser32.a(dgdfs00079.o)
                0x00485850                CreateDialogParamA@20
 *fill*         0x00485858        0x8 00
 .text          0x00485860        0x8 c:/mingw/bin/../lib/gcc/mingw32/3.4.2/../../../libuser32.a(dgdfs00179.o)
                0x00485860                EnableWindow@8
 *fill*         0x00485868        0x8 00
 .text          0x00485870        0x8 c:/mingw/bin/../lib/gcc/mingw32/3.4.2/../../../libuser32.a(dgdfs00390.o)
                0x00485870                IsWindow@4
 *fill*         0x00485878        0x8 00
 .text          0x00485880        0x8 c:/mingw/bin/../lib/gcc/mingw32/3.4.2/../../../libuser32.a(dgdfs00483.o)
                0x00485880                RegisterHotKey@16
 *fill*         0x00485888        0x8 00
 .text          0x00485890        0x8 c:/mingw/bin/../lib/gcc/mingw32/3.4.2/../../../libuser32.a(dgdfs00612.o)
                0x00485890                UnregisterHotKey@8
 *fill*         0x00485898        0x8 00
 .text          0x004858a0        0x8 c:/mingw/bin/../lib/gcc/mingw32/3.4.2/../../../libuser32.a(dgdfs00430.o)
                0x004858a0                MessageBoxA@16
 *fill*         0x004858a8        0x8 00
 .text          0x004858b0        0x8 c:/mingw/bin/../lib/gcc/mingw32/3.4.2/../../../libuser32.a(dgdfs00568.o)
                0x004858b0                SetWindowTextA@8
 *fill*         0x004858b8        0x8 00
 .text          0x004858c0        0x8 c:/mingw/bin/../lib/gcc/mingw32/3.4.2/../../../libuser32.a(dgdfs00251.o)
                0x004858c0                GetDlgCtrlID@4
 *fill*         0x004858c8        0x8 00
 .text          0x004858d0        0x8 c:/mingw/bin/../lib/gcc/mingw32/3.4.2/../../../libuser32.a(dgdfs00323.o)
                0x004858d0                GetSysColorBrush@4
 *fill*         0x004858d8        0x8 00
 .text          0x004858e0        0x8 c:/mingw/bin/../lib/gcc/mingw32/3.4.2/../../../libuser32.a(dgdfs00399.o)
                0x004858e0                LoadBitmapA@8
 *fill*         0x004858e8        0x8 00
 .text          0x004858f0        0x8 c:/mingw/bin/../lib/gcc/mingw32/3.4.2/../../../libuser32.a(dgdfs00499.o)
                0x004858f0                SendDlgItemMessageA@20
 *fill*         0x004858f8        0x8 00
 .text          0x00485900        0x8 c:/mingw/bin/../lib/gcc/mingw32/3.4.2/../../../libuser32.a(dgdfs00235.o)
                0x00485900                GetClientRect@8
 *fill*         0x00485908        0x8 00
 .text          0x00485910        0x8 c:/mingw/bin/../lib/gcc/mingw32/3.4.2/../../../libuser32.a(dgdfs00325.o)
                0x00485910                GetSystemMetrics@4
 *fill*         0x00485918        0x8 00
 .text          0x00485920        0x8 c:/mingw/bin/../lib/gcc/mingw32/3.4.2/../../../libuser32.a(dgdfs00340.o)
                0x00485920                GetWindowLongA@8
 *fill*         0x00485928        0x8 00
 .text          0x00485930        0x8 c:/mingw/bin/../lib/gcc/mingw32/3.4.2/../../../libuser32.a(dgdfs00001.o)
                0x00485930                AdjustWindowRect@12
 *fill*         0x00485938        0x8 00
 .text          0x00485940        0x8 c:/mingw/bin/../lib/gcc/mingw32/3.4.2/../../../libuser32.a(dgdfs00247.o)
                0x00485940                GetDC@4
 *fill*         0x00485948        0x8 00
 .text          0x00485950        0x8 c:/mingw/bin/../lib/gcc/mingw32/3.4.2/../../../libuser32.a(dgdfs00488.o)
                0x00485950                ReleaseDC@8
 *fill*         0x00485958        0x8 00
 .text          0x00485960        0x8 c:/mingw/bin/../lib/gcc/mingw32/3.4.2/../../../libuser32.a(dgdfs00566.o)
                0x00485960                SetWindowPos@28
 *fill*         0x00485968        0x8 00
 .text          0x00485970        0x8 c:/mingw/bin/../lib/gcc/mingw32/3.4.2/../../../libuser32.a(dgdfs00460.o)
                0x00485970                PeekMessageA@20
 *fill*         0x00485978        0x8 00
 .text          0x00485980        0x8 c:/mingw/bin/../lib/gcc/mingw32/3.4.2/../../../libuser32.a(dgdfs00381.o)
                0x00485980                IsDialogMessageA@8
 *fill*         0x00485988        0x8 00
 .text          0x00485990        0x8 c:/mingw/bin/../lib/gcc/mingw32/3.4.2/../../../libuser32.a(dgdfs00602.o)
                0x00485990                TranslateMessage@4
 *fill*         0x00485998        0x8 00
 .text          0x004859a0        0x8 c:/mingw/bin/../lib/gcc/mingw32/3.4.2/../../../libuser32.a(dgdfs00148.o)
                0x004859a0                DispatchMessageA@4
 *fill*         0x004859a8        0x8 00
 .text          0x004859b0        0x8 c:/mingw/bin/../lib/gcc/mingw32/3.4.2/../../../libuser32.a(dgdfs00442.o)
                0x004859b0                MsgWaitForMultipleObjects@20
 *fill*         0x004859b8        0x8 00
 .text          0x004859c0        0x8 c:/mingw/bin/../lib/gcc/mingw32/3.4.2/../../../libuser32.a(dgdfs00267.o)
                0x004859c0                GetKeyState@4
 *fill*         0x004859c8        0x8 00
 .text          0x004859d0        0x8 c:/mingw/bin/../lib/gcc/mingw32/3.4.2/../../../libuser32.a(dgdfs00193.o)
                0x004859d0                EnumDisplaySettingsA@12
 *fill*         0x004859d8        0x8 00
 .text          0x004859e0        0x8 c:/mingw/bin/../lib/gcc/mingw32/3.4.2/../../../libuser32.a(dgdfs00029.o)
                0x004859e0                ChangeDisplaySettingsA@8
 *fill*         0x004859e8        0x8 00
 .text          0x004859f0        0x8 c:/mingw/bin/../lib/gcc/mingw32/3.4.2/../../../libuser32.a(dgdfs00552.o)
                0x004859f0                SetSysColors@12
 *fill*         0x004859f8        0x8 00
 .text          0x00485a00        0x8 c:/mingw/bin/../lib/gcc/mingw32/3.4.2/../../../libuser32.a(dgdfs00133.o)
                0x00485a00                DefWindowProcA@16
 *fill*         0x00485a08        0x8 00
 .text          0x00485a10        0x8 c:/mingw/bin/../lib/gcc/mingw32/3.4.2/../../../libuser32.a(dgdfs00089.o)
                0x00485a10                CreateWindowExA@48
 *fill*         0x00485a18        0x8 00
 .text          0x00485a20        0x8 c:/mingw/bin/../lib/gcc/mingw32/3.4.2/../../../libuser32.a(dgdfs00528.o)
                0x00485a20                SetForegroundWindow@4
 *fill*         0x00485a28        0x8 00
 .text          0x00485a30        0x8 c:/mingw/bin/../lib/gcc/mingw32/3.4.2/../../../libuser32.a(dgdfs00527.o)
                0x00485a30                SetFocus@4
 *fill*         0x00485a38        0x8 00
 .text          0x00485a40        0x8 c:/mingw/bin/../lib/gcc/mingw32/3.4.2/../../../libuser32.a(dgdfs00563.o)
                0x00485a40                SetWindowLongA@12
 *fill*         0x00485a48        0x8 00
 .text          0x00485a50        0x8 c:/mingw/bin/../lib/gcc/mingw32/3.4.2/../../../libuser32.a(dgdfs00614.o)
                0x00485a50                UpdateWindow@4
 *fill*         0x00485a58        0x8 00
 .text          0x00485a60        0x8 c:/mingw/bin/../lib/gcc/mingw32/3.4.2/../../../libuser32.a(dgdfs00045.o)
                0x00485a60                CharToOemA@8
 *fill*         0x00485a68        0x8 00
 .text          0x00485a70        0x8 c:/mingw/bin/../lib/gcc/mingw32/3.4.2/../../../libuser32.a(dgdfs00322.o)
                0x00485a70                GetSysColor@4
 *fill*         0x00485a78        0x8 00
 .text          0x00485a80        0x8 c:/mingw/bin/../lib/gcc/mingw32/3.4.2/../../../libuser32.a(dgdfs00407.o)
                0x00485a80                LoadImageA@24
 *fill*         0x00485a88        0x8 00
 .text          0x00485a90        0x8 c:/mingw/bin/../lib/gcc/mingw32/3.4.2/../../../libuser32.a(dgdfs00401.o)
                0x00485a90                LoadCursorA@8
 *fill*         0x00485a98        0x8 00
 .text          0x00485aa0        0x8 c:/mingw/bin/../lib/gcc/mingw32/3.4.2/../../../libuser32.a(dgdfs00476.o)
                0x00485aa0                RegisterClassExA@4
 *fill*         0x00485aa8        0x8 00
 .text          0x00485ab0        0x8 c:/mingw/bin/../lib/gcc/mingw32/3.4.2/../../../libuser32.a(dgdfs00633.o)
                0x00485ab0                wsprintfA
 *fill*         0x00485ab8        0x8 00
 .text          0x00485ac0        0x8 c:/mingw/bin/../lib/gcc/mingw32/3.4.2/../../../libkernel32.a(dqifs00736.o)
                0x00485ac0                SetUnhandledExceptionFilter@4
 *fill*         0x00485ac8        0x8 00
 .text          0x00485ad0        0x8 c:/mingw/bin/../lib/gcc/mingw32/3.4.2/../../../libkernel32.a(dqifs00155.o)
                0x00485ad0                ExitProcess@4
 *fill*         0x00485ad8        0x8 00
 .text          0x00485ae0        0x8 c:/mingw/bin/../lib/gcc/mingw32/3.4.2/../../../libkernel32.a(dqifs00806.o)
                0x00485ae0                WaitForSingleObject@8
 *fill*         0x00485ae8        0x8 00
 .text          0x00485af0        0x8 c:/mingw/bin/../lib/gcc/mingw32/3.4.2/../../../libkernel32.a(dqifs00595.o)
                0x00485af0                QueryPerformanceCounter@4
 *fill*         0x00485af8        0x8 00
 .text          0x00485b00        0x8 c:/mingw/bin/../lib/gcc/mingw32/3.4.2/../../../libkernel32.a(dqifs00038.o)
                0x00485b00                CloseHandle@4
 *fill*         0x00485b08        0x8 00
 .text          0x00485b10        0x8 c:/mingw/bin/../lib/gcc/mingw32/3.4.2/../../../libkernel32.a(dqifs00213.o)
                0x00485b10                FreeLibrary@4
 *fill*         0x00485b18        0x8 00
 .text          0x00485b20        0x8 c:/mingw/bin/../lib/gcc/mingw32/3.4.2/../../../libkernel32.a(dqifs00281.o)
                0x00485b20                GetCurrentProcess@0
 *fill*         0x00485b28        0x8 00
 .text          0x00485b30        0x8 c:/mingw/bin/../lib/gcc/mingw32/3.4.2/../../../libkernel32.a(dqifs00716.o)
                0x00485b30                SetPriorityClass@8
 *fill*         0x00485b38        0x8 00
 .text          0x00485b40        0x8 c:/mingw/bin/../lib/gcc/mingw32/3.4.2/../../../libkernel32.a(dqifs00323.o)
                0x00485b40                GetLastError@0
 *fill*         0x00485b48        0x8 00
 .text          0x00485b50        0x8 c:/mingw/bin/../lib/gcc/mingw32/3.4.2/../../../libkernel32.a(dqifs00208.o)
                0x00485b50                FormatMessageA@28
 *fill*         0x00485b58        0x8 00
 .text          0x00485b60        0x8 c:/mingw/bin/../lib/gcc/mingw32/3.4.2/../../../libkernel32.a(dqifs00596.o)
                0x00485b60                QueryPerformanceFrequency@4
 *fill*         0x00485b68        0x8 00
 .text          0x00485b70        0x8 c:/mingw/bin/../lib/gcc/mingw32/3.4.2/../../../libkernel32.a(dqifs00362.o)
                0x00485b70                GetProcAddress@8
 *fill*         0x00485b78        0x8 00
 .text          0x00485b80        0x8 c:/mingw/bin/../lib/gcc/mingw32/3.4.2/../../../libkernel32.a(dqifs00064.o)
                0x00485b80                CreateEventA@16
 *fill*         0x00485b88        0x8 00
 .text          0x00485b90        0x8 c:/mingw/bin/../lib/gcc/mingw32/3.4.2/../../../libkernel32.a(dqifs00522.o)
                0x00485b90                LoadLibraryA@4
 *fill*         0x00485b98        0x8 00
 .text          0x00485ba0        0x8 c:/mingw/bin/../lib/gcc/mingw32/3.4.2/../../../libkernel32.a(dqifs00431.o)
                0x00485ba0                GetVersionExA@4
 *fill*         0x00485ba8        0x8 00
 .text          0x00485bb0        0x8 c:/mingw/bin/../lib/gcc/mingw32/3.4.2/../../../libkernel32.a(dqifs00236.o)
                0x00485bb0                GetCommandLineA@0
 *fill*         0x00485bb8        0x8 00
 .text          0x00485bc0        0x8 c:/mingw/bin/../lib/gcc/mingw32/3.4.2/../../../libkernel32.a(dqifs00087.o)
                0x00485bc0                CreateSemaphoreA@16
 *fill*         0x00485bc8        0x8 00
 .text          0x00485bd0        0x8 c:/mingw/bin/../lib/gcc/mingw32/3.4.2/../../../libkernel32.a(dqifs00329.o)
                0x00485bd0                GetLogicalDrives@0
 *fill*         0x00485bd8        0x8 00
 .text          0x00485be0        0x8 c:/mingw/bin/../lib/gcc/mingw32/3.4.2/../../../libkernel32.a(dqifs00458.o)
                0x00485be0                GlobalMemoryStatus@4
 *fill*         0x00485be8        0x8 00
 .text          0x00485bf0        0x8 c:/mingw/bin/../lib/gcc/mingw32/3.4.2/../../../libkernel32.a(dqifs00177.o)
                0x00485bf0                FindClose@4
 *fill*         0x00485bf8        0x8 00
 .text          0x00485c00        0x8 c:/mingw/bin/../lib/gcc/mingw32/3.4.2/../../../libkernel32.a(dqifs00190.o)
                0x00485c00                FindNextFileA@8
 *fill*         0x00485c08        0x8 00
 .text          0x00485c10        0x8 c:/mingw/bin/../lib/gcc/mingw32/3.4.2/../../../libkernel32.a(dqifs00181.o)
                0x00485c10                FindFirstFileA@8
 *fill*         0x00485c18        0x8 00
 .text          0x00485c20        0x8 c:/mingw/bin/../lib/gcc/mingw32/3.4.2/../../../libkernel32.a(dqifs00306.o)
                0x00485c20                GetFileAttributesA@4
 *fill*         0x00485c28        0x8 00
 .text          0x00485c30        0x8 c:/mingw/bin/../lib/gcc/mingw32/3.4.2/../../../libkernel32.a(dqifs00384.o)
                0x00485c30                GetStartupInfoA@4
 *fill*         0x00485c38        0x8 00
 .text          0x00485c40        0x8 c:/mingw/bin/../lib/gcc/mingw32/3.4.2/../../../libkernel32.a(dqifs00335.o)
                0x00485c40                GetModuleHandleA@4
 *fill*         0x00485c48        0x8 00
 .text          0x00485c50        0x8 c:/mingw/bin/../lib/gcc/mingw32/3.4.2/../../../libkernel32.a(dqifs00220.o)
                0x00485c50                GetAtomNameA@12
 *fill*         0x00485c58        0x8 00
 .text          0x00485c60        0x8 c:/mingw/bin/../lib/gcc/mingw32/3.4.2/../../../libkernel32.a(dqifs00175.o)
                0x00485c60                FindAtomA@4
 *fill*         0x00485c68        0x8 00
 .text          0x00485c70        0x8 c:/mingw/bin/../lib/gcc/mingw32/3.4.2/../../../libkernel32.a(dqifs00001.o)
                0x00485c70                AddAtomA@4
 *fill*         0x00485c78        0x8 00
 .text          0x00485c80        0x8 c:/mingw/bin/../lib/gcc/mingw32/3.4.2/../../../libshell32.a(dsjes00104.o)
                0x00485c80                SHGetSpecialFolderPathA@16
 *fill*         0x00485c88        0x8 00
 .text          0x00485c90       0x10 c:/mingw/bin/../lib/gcc/mingw32/3.4.2/crtend.o
 *(SORT(.text$*))
 *(.glue_7t)
 *(.glue_7)
                0x00485ca0                ___CTOR_LIST__ = .
                0x00485ca0                __CTOR_LIST__ = .
                0x00485ca0        0x4 LONG 0xffffffff
 *(EXCLUDE_FILE(*crtend.o) .ctors)
 *(.ctor)
 *(SORT(.ctors.*))
 *crtend.o(.ctors)
 .ctors         0x00485ca4        0x4 c:/mingw/bin/../lib/gcc/mingw32/3.4.2/crtend.o
                0x00485ca8        0x4 LONG 0x0
                0x00485cac                ___DTOR_LIST__ = .
                0x00485cac                __DTOR_LIST__ = .
                0x00485cac        0x4 LONG 0xffffffff
 *(EXCLUDE_FILE(*crtend.o) .dtors)
 *(.dtor)
 *(SORT(.dtors.*))
 *crtend.o(.dtors)
                0x00485cb0        0x4 LONG 0x0
 *(.fini)
 *(.gcc_exc)
                0x00485cb4                PROVIDE (etext, .)
 *(.gcc_except_table)

.data           0x00486000     0x5a00
                0x00486000                __data_start__ = .
 *(.data)
 .data          0x00486000      0x1a0 obj/astub.o
                0x00486100                Help3d
                0x004860c4                SKILLMODE
                0x00486028                skill
                0x0048600d                keys
                0x0048602b                autosave
                0x00486180                fofsizey
                0x004860a0                SpriteMode
                0x00486184                mouseadd
                0x00486030                startwin_labeltext
                0x00486024                MinD
                0x0048617c                fofsizex
                0x00486029                framerateon
                0x00486022                MinRate
                0x00486000                defsfilename
                0x0048602c                updownunits
                0x00486004                option
                0x0048602a                tabgraphic
                0x004860d8                SPRDSPMODE
                0x00486040                Help2d
 .data          0x004861a0       0x50 eobj/libbuild.a(build.o)
                0x004861a0                somethingintab
                0x004861d0                horiz
                0x004861b0                grid
                0x004861c4                xdimgame
                0x004861c0                ydimgame
                0x004861a2                highlightsectorcnt
                0x004861c8                ydim2d
                0x004861b4                kensplayerheight
                0x004861cc                xdim2d
                0x004861d4                buildkeys
                0x004861a8                zoom
                0x004861bc                bppgame
                0x004861ae                gridlock
                0x004861ac                showtags
                0x004861b8                zlock
                0x004861a4                gettilezoom
 .data          0x004861f0       0x80 eobj/libbuild.a(config.o)
 .data          0x00486270     0x16e0 eobj/libengine.a(engine.o)
                0x00487868                usevoxels
                0x00486270                drawlinepat
                0x00486284                glanisotropy
                0x00486fd0                textfont
                0x0048785c                beforedrawrooms
                0x004867d0                smalltextfont
                0x00487850                pow2char
                0x00487864                editorgridextent
                0x0048627c                gltexfiltermode
                0x00486280                glusetexcompr
                0x004867b4                hitscangoalx
                0x004867b0                hitscangoaly
                0x00486290                apptitle
                0x00486390                msens
                0x00487860                dommxoverlay
                0x00486398                searchx
                0x00487858                mapversion
                0x004867bc                engineerrstr
                0x004867b8                xdimen
                0x00486274                clipmoveboxtracenum
                0x004877d0                pow2long
                0x004863b0                vgapal16
                0x00486278                glusetexcachecompression
                0x00486288                usehightile
                0x0048628c                usemodels
 .data          0x00487950     0x1620 eobj/libengine.a(winlayer.o)
                0x00487a2c                xres
                0x00487a28                yres
                0x00487950                joyfeatures_C218046D
                0x00487a24                maxrefreshfreq
                0x004879f0                joyfeatures_C20A046D
                0x00487a20                modechange
                0x00487a18                appactive
                0x00487a30                backgroundidle
                0x00487a1c                glcolourdepth
 .data          0x00488f70      0x240 eobj/libengine.a(cache1d.o)
 .data          0x004891b0       0x50 eobj/libengine.a(osd.o)
 .data          0x00489200      0x3a0 eobj/libengine.a(defs.o)
 .data          0x004895a0       0x20 eobj/libengine.a(baselayer.o)
                0x004895a0                baselayer_onvideomodechange
                0x004895a4                glinfo
 .data          0x004895c0     0x203b eobj/libengine.a(a.o)
                0x0048b010                rmhlineasm4
                0x0048b110                qrhlineasm4
                0x00489b40                vlineasm1
                0x00489a10                setupvlineasm
                0x00489db0                vlineasm4
                0x0048b090                setupqrhlineasm4
                0x0048ae90                rhlineasm4
                0x00489be0                fixtransluscence
                0x00489d40                tvlineasm1
                0x0048a9c0                setuptvlineasm2
                0x00489760                setuphlineasm4
                0x0048a490                spritevline
                0x0048b240                drawslab
                0x0048a5f0                tspritevline
                0x00489720                setpalookupaddress
                0x0048a820                tsethlineshift
                0x00489680                prosethlinesizes
                0x0048a6a0                mhline
                0x0048abb0                slopevlin2
                0x0048a5a0                tsetupspritevline
                0x0048ac90                slopevlin
                0x00489a70                prosetupvlineasm
                0x004897a0                hlineasm4
                0x0048a1b0                mvlineasm4
                0x004895c0                sethlinesizes
                0x00489f90                provlineasm4
                0x00489b90                mvlineasm1
                0x0048b44f                stretchhline
                0x0048a540                mspritevline
                0x0048a710                mhlineskipmodify
                0x00489b00                prevlineasm1
                0x0048a4f0                msetupspritevline
                0x0048a850                thline
                0x0048ac30                setupslopevlin
                0x00489cb0                settransreverse
                0x00489ad0                setupmvlineasm
                0x0048ab40                setupslopevlin2
                0x0048a670                msethlineshift
                0x0048aa00                tvlineasm2
                0x0048b1da                setupdrawslab
                0x0048add0                setuprhlineasm4
                0x00489c20                settransnormal
                0x00489af0                setuptvlineasm
                0x0048a8c0                thlineskipmodify
                0x00489750                prosetpalookupaddress
                0x004896c0                setvlinebpl
                0x0048afd0                setuprmhlineasm4
                0x0048b4f0                mmxoverlay
                0x0048a440                setupspritevline
                0x004899b0                prohlineasm4
 *fill*         0x0048b5fb        0x5 00
 .data          0x0048b600       0x40 eobj/libengine.a(md4.o)
 .data          0x0048b640      0x1a0 eobj/libengine.a(kplib.o)
 .data          0x0048b7e0       0x10 c:/mingw/bin/../lib/gcc/mingw32/3.4.2/../../../libmingw32.a(CRTglob.o)
                0x0048b7e0                _CRT_glob
 .data          0x0048b7f0       0x10 c:/mingw/bin/../lib/gcc/mingw32/3.4.2/../../../libmingw32.a(txtmode.o)
                0x0048b7f0                _fmode
 .data          0x0048b800       0x10 c:/mingw/bin/../lib/gcc/mingw32/3.4.2/../../../libmingw32.a(gccmain.o)
 .data          0x0048b810       0x10 c:/mingw/bin/../lib/gcc/mingw32/3.4.2/libgcc.a(w32-shared-ptr.o)
 *(.data2)
 *(SORT(.data$*))
                0x0048b820                __data_end__ = .
 *(.data_cygwin_nocopy)

.rdata          0x0048c000     0x8a00
 *(.rdata)
 .rdata         0x0048c000     0x1fd0 obj/astub.o
 .rdata         0x0048dfd0      0xd10 eobj/libbuild.a(build.o)
 .rdata         0x0048ece0      0xe60 eobj/libbuild.a(config.o)
 .rdata         0x0048fb40       0x20 eobj/libbuild.a(buildstartwin.o)
 .rdata         0x0048fb60      0xed0 eobj/libengine.a(engine.o)
 .rdata         0x00490a30     0x1d70 eobj/libengine.a(winlayer.o)
                0x00490b0c                c_dfDIMouse
                0x00490af4                c_dfDIJoystick
                0x00490b24                c_dfDIKeyboard
 .rdata         0x004927a0      0x200 eobj/libengine.a(cache1d.o)
 .rdata         0x004929a0      0x380 eobj/libengine.a(osd.o)
 .rdata         0x00492d20       0x10 eobj/libengine.a(compat.o)
 .rdata         0x00492d30      0xc10 eobj/libengine.a(defs.o)
 .rdata         0x00493940      0x390 eobj/libengine.a(glbuild.o)
 .rdata         0x00493cd0      0x510 eobj/libengine.a(baselayer.o)
 .rdata         0x004941e0       0xf0 eobj/libengine.a(scriptfile.o)
 .rdata         0x004942d0      0x240 eobj/libengine.a(kplib.o)
 .rdata         0x00494510      0x240 eobj/libengine.a(engineinfo.o)
                0x00494610                _engine_cflags
                0x00494510                _engine_date
                0x00494525                _engine_compiler
                0x004945b0                _engine_libs
                0x00494550                _engine_uname
 .rdata         0x00494750       0xe0 c:/mingw/bin/../lib/gcc/mingw32/3.4.2/libgcc.a(w32-shared-ptr.o)
 *(SORT(.rdata$*))
 *(.eh_frame)
                0x00494830                ___RUNTIME_PSEUDO_RELOC_LIST__ = .
                0x00494830                __RUNTIME_PSEUDO_RELOC_LIST__ = .
 *(.rdata_runtime_pseudo_reloc)
                0x00494830                ___RUNTIME_PSEUDO_RELOC_LIST_END__ = .
                0x00494830                __RUNTIME_PSEUDO_RELOC_LIST_END__ = .

.pdata
 *(.pdata)

.bss            0x00495000   0x581760
                0x00495000                __bss_start__ = .
 *(.bss)
 .bss           0x00495000       0x10 c:/mingw/bin/../lib/gcc/mingw32/3.4.2/../../../crt2.o
                0x00495004                _argc
                0x00495000                _argv
 .bss           0x00495010    0x29580 obj/astub.o
                0x00495017                purpleon
                0x00495015                autosecthelp
                0x0049501c                intro
                0x00495018                shadepreview
                0x00495016                nosprites
                0x00495014                autospritehelp
                0x00495010                nextvoxid
 .bss           0x004be590    0x15240 eobj/libbuild.a(build.o)
                0x004be5a0                lockclock
                0x004be59c                brightness
                0x004be5a8                grponlymode
                0x004be5b0                mousexsurp
                0x004be5ac                mouseysurp
                0x004be590                mlook
                0x004be594                defaultspritecstat
                0x004be5b4                noclip
                0x004be5a4                synctics
                0x004be598                zmode
                0x004be592                asksave
 .bss           0x004d37d0   0x161a00 eobj/libengine.a(engine.o)
                0x004d3808                rendmode
                0x004d3828                pic
                0x004d3834                novoxmips
                0x004d37fc                zbufbpl
                0x004d37d8                vnum
                0x004d380c                palfadedelta
                0x004d3804                zbufmem
                0x004d3820                cachesize
                0x004d37e4                gltexmaxsize
                0x004d3824                artsize
                0x004d3818                transluc
                0x004d3812                editstatus
                0x004d37e0                gltexmiplevel
                0x004d37f8                zbufoff
                0x004d37d4                vmax
                0x004d381c                qsetmode
                0x004d37ec                glmultisample
                0x004d380d                palfadergb
                0x004d382c                gammabrightness
                0x004d37e8                glnvmultisamplehint
                0x004d37f4                glredbluemode
                0x004d3830                curbrightness
                0x004d37d0                cachedebug
                0x004d37f0                glusetexcache
                0x004d3814                paletteloaded
                0x004d3800                zbufysiz
                0x004d37dc                glpolygonmode
 .bss           0x006351d0     0x26b0 eobj/libengine.a(winlayer.o)
                0x006351f8                quitevent
                0x006351ec                mouseb
                0x0063520c                bytesperline
                0x006351f0                mousey
                0x00635218                nofog
                0x006351fc                repaintneeded
                0x00635204                frameplace
                0x006351e0                joyhat
                0x006351df                joyisgamepad
                0x00635200                lockcount
                0x006351d8                keypresscallback
                0x006351e8                joyaxis
                0x006351dd                joynumbuttons
                0x00635210                bpp
                0x006351dc                joynumhats
                0x006351f9                inputdevices
                0x00635208                imageSize
                0x006351d4                mousepresscallback
                0x00635220                _buildargc
                0x006351de                joynumaxes
                0x006351fb                offscreenrendering
                0x006351e4                joyb
                0x006351d0                joypresscallback
                0x0063521c                _buildargv
                0x00635214                fullscreen
                0x006351f4                mousex
                0x006351fa                videomodereset
 .bss           0x00637880     0x4660 eobj/libengine.a(cache1d.o)
                0x0063788c                cachestart
                0x00637884                agecount
                0x00637894                cachecount
                0x00637888                cacnum
                0x00637880                pathsearchmode
                0x00637890                zerochar
 .bss           0x0063bee0     0xc5d0 eobj/libengine.a(osd.o)
 .bss           0x006484b0       0x10 eobj/libengine.a(defs.o)
 .bss           0x006484c0       0x20 eobj/libengine.a(glbuild.o)
                0x006484c0                gldriver
 .bss           0x006484e0      0x400 eobj/libengine.a(crc32.o)
 .bss           0x006488e0       0x30 eobj/libengine.a(scriptfile.o)
 .bss           0x00648910    0x3e510 eobj/libengine.a(kplib.o)
 .bss           0x00686e20       0x10 c:/mingw/bin/../lib/gcc/mingw32/3.4.2/../../../libmingw32.a(CRTfmode.o)
                0x00686e20                _CRT_fmode
 .bss           0x00686e30       0x10 c:/mingw/bin/../lib/gcc/mingw32/3.4.2/../../../libmingw32.a(gccmain.o)
 .bss           0x00686e40       0x10 c:/mingw/bin/../lib/gcc/mingw32/3.4.2/../../../libmingw32.a(pseudo-reloc-list.o)
 .bss           0x00686e50       0x20 c:/mingw/bin/../lib/gcc/mingw32/3.4.2/libgcc.a(w32-shared-ptr.o)
 *(COMMON)
 COMMON         0x00686e70     0x14c0 obj/astub.o
                0x00686e70                mousecol
                0x00686e80                getmessagetimeoff
                0x00686e90                getmessageleng
                0x00686ea0                ppointhighlight
                0x00686eb0                xoldtimerhandler
                0x00686ec0                WATERpalette
                0x006871c0                floor_over_floor
                0x006871d0                timoff
                0x006871e0                TITLEpalette
                0x006874e0                num_tables
                0x006874f0                getmessage
                0x006875a0                GAMEpalette
                0x006878a0                levelname
                0x006879a0                autosavetimer
                0x006879b0                lastmessagetime
                0x006879c0                yvel
                0x006879d0                xvel
                0x006879e0                mousyplc
                0x006879f0                charsperline
                0x00687a00                lastupdate
                0x00687a10                mousxplc
                0x00687a20                REALMSpalette
                0x00687d20                bstatus
                0x00687d30                SLIMEpalette
                0x00688030                BOSS1palette
 COMMON         0x00688330    0x68da0 eobj/libbuild.a(build.o)
                0x00688330                temppal
                0x00688340                tempxrepeat
                0x00688350                osearchx
                0x00688360                templotag
                0x00688370                mousx
                0x00688380                tempshade
                0x00688390                whitecol
                0x006883a0                vel
                0x006883b0                posy
                0x006883c0                temppicnum
                0x006883d0                highlight
                0x006903d0                names
                0x006edfd0                ang
                0x006edfe0                tempcstat
                0x006edff0                numsprites
                0x006ee000                highlightsector
                0x006f0000                posz
                0x006f0010                angvel
                0x006f0020                tempvis
                0x006f0030                tempyrepeat
                0x006f0040                hvel
                0x006f0050                tempbuf
                0x006f1050                lastpm16time
                0x006f1060                temphitag
                0x006f1070                cursectnum
                0x006f1080                svel
                0x006f1090                tempextra
                0x006f10a0                osearchy
                0x006f10b0                mousy
                0x006f10c0                posx
 COMMON         0x006f10d0   0x309c40 eobj/libengine.a(engine.o)
                0x006f10d0                gvx
                0x006f10e0                nextspritestat
                0x006f90e0                ydim
                0x006f90f0                searchit
                0x006f9100                vplce
                0x006f9110                ebpbak
                0x006f9120                globalcursectnum
                0x006f9130                walock
                0x006fcd30                globalx2
                0x006fcd40                windowx1
                0x006fcd50                guniqhudid
                0x006fcd60                searchstat
                0x006fcd70                visibility
                0x006fcd80                tsprite
                0x00712d80                searchy
                0x00712d90                frameoffset
                0x00712da0                startdmost
                0x00713a20                lastageclock
                0x00713a30                britable
                0x00714a30                midydim16
                0x00714a40                startposx
                0x00714a50                gdy
                0x00714a60                sprite
                0x007c4a60                randomseed
                0x007c4a70                wy2
                0x007c4a80                parallaxvisibility
                0x007c4a90                globalyshift
                0x007c4aa0                parallaxyoffs
                0x007c4ab0                globalxshift
                0x007c4ac0                dplc
                0x007c5740                pskyoff
                0x007c5940                globalpal
                0x007c5950                tilesizy
                0x007cd150                globalcisibility
                0x007cd160                vince
                0x007cd170                pskybits
                0x007cd180                pageoffset
                0x007cd190                sintable
                0x007ce190                show2dwall
                0x007ce990                fpuasm
                0x007ce9a0                gux
                0x007ce9b0                numwalls
                0x007ce9c0                globalang
                0x007ce9d0                globalpalwritten
                0x007ce9e0                globparaceilclip
                0x007ce9f0                sinviewingrangeglobalang
                0x007cea00                linehighlight
                0x007cea10                headspritestat
                0x007cf220                startposy
                0x007cf230                globalx
                0x007cf240                xdimscale
                0x007cf250                numpages
                0x007cf260                globalposz
                0x007cf270                globalypanning
                0x007cf280                asm2
                0x007cf290                captureformat
                0x007cf2a0                globalshade
                0x007cf2b0                wx1
                0x007cf2c0                picanm
                0x007de2c0                globalxpanning
                0x007de2d0                searchwall
                0x007de2e0                prevspritesect
                0x007e62e0                gvy
                0x007e62f0                tiletovox
                0x007f52f0                tilesizx
                0x007fcaf0                cosviewingrangeglobalang
                0x007fcb00                show2dsector
                0x007fcd00                voxoff
                0x00810d00                wx2
                0x00810d10                guy
                0x00810d20                windowy2
                0x00810d30                startsectnum
                0x00810d40                globaly2
                0x00810d50                numscans
                0x00810d60                gdo
                0x00810d70                voxlock
                0x00815d70                voxscale
                0x00819d70                palookupoffse
                0x00819d80                totalclock
                0x00819d90                globalhoriz
                0x00819da0                globalhisibility
                0x00819db0                ylookup
                0x0081b080                alphahackarray
                0x0082a080                gdx
                0x0082a090                ydim16
                0x0082a0a0                spritecol2d
                0x008318a0                globalorientation
                0x008318b0                asm3
                0x008318c0                halfxdimen
                0x008318d0                palette
                0x00831bd0                totalclocklock
                0x00831be0                highlightcnt
                0x00831bf0                tilefilenum
                0x008357f0                viewingrange
                0x00835800                xdimenscale
                0x00835810                windowy1
                0x00835820                globvis
                0x00835830                globaldclip
                0x00835840                globalzd
                0x00835850                globalz
                0x00835860                xdimenrecip
                0x00835870                spritesortcnt
                0x00835880                umost
                0x00836500                ydimen
                0x00836510                globalx3
                0x00836520                globparaflorclip
                0x00836530                slopalookup
                0x00846530                startang
                0x00846540                startposz
                0x00846550                globaly
                0x00846560                wall
                0x008c6560                parallaxyscale
                0x008c6570                searchsector
                0x008c6580                globalposy
                0x008c6590                validmodecnt
                0x008c65a0                prevspritestat
                0x008ce5a0                numbunches
                0x008ce5b0                asm4
                0x008ce5c0                globaly3
                0x008ce5d0                reciptable
                0x008d05d0                windowx2
                0x008d05e0                gotsector
                0x008d07e0                show2dsprite
                0x008d0fe0                viewingrangerecip
                0x008d0ff0                xyaspect
                0x008d1000                startumost
                0x008d1c80                tilefileoffs
                0x008e0c80                globalpisibility
                0x008e0c90                numframes
                0x008e0ca0                nextspritesect
                0x008e8ca0                bufplce
                0x008e8cb0                asm1
                0x008e8cc0                globalpicnum
                0x008e8cd0                espbak
                0x008e8ce0                picsiz
                0x008ec8e0                globalvisibility
                0x008ec8f0                hudmem
                0x009648f0                globalshiftval
                0x00964900                globaluclip
                0x00964910                sector
                0x0098c910                validmode
                0x0098d910                globalbufplc
                0x0098d920                gvo
                0x0098d930                halfxdim16
                0x0098d940                gotpic
                0x0098e0c0                wy1
                0x0098e0d0                numsectors
                0x0098e0e0                numpalookups
                0x0098e0f0                uplc
                0x0098ed70                guo
                0x0098ed80                globalx1
                0x0098ed90                xdim
                0x0098eda0                pointhighlight
                0x0098edb0                globaly1
                0x0098edc0                headspritesect
                0x00990dd0                globalposx
                0x00990de0                curpalette
                0x009911e0                yxaspect
                0x009911f0                dmost
                0x00991e70                singlobalang
                0x00991e80                numhits
                0x00991e90                spriteext
                0x009eb490                artversion
                0x009eb4a0                curpalettefaded
                0x009eb8a0                numtiles
                0x009eb8b0                waloff
                0x009fa8b0                globalyscale
                0x009fa8c0                automapping
                0x009fa8d0                cosglobalang
                0x009fa8e0                palookup
                0x009face0                showinvisibility
                0x009facf0                globalzx
                0x009fad00                parallaxtype
 COMMON         0x009fad10      0x1c0 eobj/libengine.a(winlayer.o)
                0x009fad10                keyfifoplc
                0x009fad20                keystatus
                0x009fae20                keyasciififoend
                0x009fae30                keyasciififo
                0x009fae70                keyasciififoplc
                0x009fae80                keyfifoend
                0x009fae90                keyfifo
 COMMON         0x009faed0    0x1b000 eobj/libengine.a(cache1d.o)
                0x009faed0                cac
 COMMON         0x00a15ed0      0x400 eobj/libengine.a(glbuild.o)
                0x00a15ed0                bglVertex3fv
                0x00a15ee0                bglTexParameterf
                0x00a15ef0                bglEnable
                0x00a15f00                bglGetCompressedTexImageARB
                0x00a15f10                bglOrtho
                0x00a15f20                bglCullFace
                0x00a15f30                bglViewport
                0x00a15f40                bglShadeModel
                0x00a15f50                bglLoadMatrixf
                0x00a15f60                bglDisable
                0x00a15f70                bglTexImage2D
                0x00a15f80                bglPushMatrix
                0x00a15f90                bglPopMatrix
                0x00a15fa0                bwglSetPixelFormat
                0x00a15fb0                bglVertex2f
                0x00a15fc0                bglGetTexLevelParameteriv
                0x00a15fd0                bglMatrixMode
                0x00a15fe0                bglVertex3d
                0x00a15ff0                bglEnd
                0x00a16000                bglBindTexture
                0x00a16010                bglGetError
                0x00a16020                bwglCreateContext
                0x00a16030                bglFrontFace
                0x00a16040                bglColor4f
                0x00a16050                bglTexCoord2d
                0x00a16060                bglVertex2i
                0x00a16070                bglGetIntegerv
                0x00a16080                bwglGetProcAddress
                0x00a16090                bglDepthRange
                0x00a160a0                bglAlphaFunc
                0x00a160b0                bglLoadIdentity
                0x00a160c0                bglBlendFunc
                0x00a160d0                bglDeleteTextures
                0x00a160e0                bwglGetPixelFormat
                0x00a160f0                bglColorMask
                0x00a16100                bglPolygonMode
                0x00a16110                bglPolygonOffset
                0x00a16120                bglTexCoord2f
                0x00a16130                bwglSwapBuffers
                0x00a16140                bglFogf
                0x00a16150                bglFogi
                0x00a16160                bglReadPixels
                0x00a16170                bglClear
                0x00a16180                bwglChoosePixelFormat
                0x00a16190                bglFrustum
                0x00a161a0                bwglMakeCurrent
                0x00a161b0                bglGetFloatv
                0x00a161c0                bglGenTextures
                0x00a161d0                bglClearColor
                0x00a161e0                bglDepthMask
                0x00a161f0                bglColor4ub
                0x00a16200                bwglDescribePixelFormat
                0x00a16210                bglCompressedTexImage2DARB
                0x00a16220                bglFogfv
                0x00a16230                bglTexSubImage2D
                0x00a16240                bglDepthFunc
                0x00a16250                bglTexParameteri
                0x00a16260                bglTexEnvf
                0x00a16270                bglHint
                0x00a16280                bglGetString
                0x00a16290                bglPushAttrib
                0x00a162a0                bglBegin
                0x00a162b0                bwglDeleteContext
                0x00a162c0                bglPopAttrib
 COMMON         0x00a162d0       0x10 eobj/libengine.a(pragmas.o)
                0x00a162d0                dmval
 COMMON         0x00a162e0      0x430 eobj/libengine.a(kplib.o)
                0x00a162e0                palcol
                0x00a166e0                coltype
                0x00a166f0                paleng
                0x00a16700                bitdepth
 COMMON         0x00a16710       0x30 c:/mingw/bin/../lib/gcc/mingw32/3.4.2/libgcc.a(w32-shared-ptr.o)
                0x00a16710                __w32_sharedptr_terminate
                0x00a16720                __w32_sharedptr
                0x00a16730                __w32_sharedptr_unexpected
 COMMON         0x00a16740       0x20 c:/mingw/bin/../lib/gcc/mingw32/3.4.2/libgcc.a(_ctors.o)
                0x00a16760                __bss_end__ = .

.edata
 *(.edata)

/DISCARD/
 *(.debug$S)
 *(.debug$T)
 *(.debug$F)
 *(.drectve)

.idata          0x00a17000     0x1400
 SORT(*)(.idata$2)
 .idata$2       0x00a17000       0x14 c:/mingw/bin/../lib/gcc/mingw32/3.4.2/../../../libgdi32.a(deubh.o)
                0x00a17000                _head_libgdi32_a
 .idata$2       0x00a17014       0x14 c:/mingw/bin/../lib/gcc/mingw32/3.4.2/../../../libkernel32.a(dqifh.o)
                0x00a17014                _head_libkernel32_a
 .idata$2       0x00a17028       0x14 c:/mingw/bin/../lib/gcc/mingw32/3.4.2/../../../libmoldname.a(duudh.o)
                0x00a17028                _head_libmoldname_a
 .idata$2       0x00a1703c       0x14 c:/mingw/bin/../lib/gcc/mingw32/3.4.2/../../../libmsvcrt.a(dwpdh.o)
                0x00a1703c                _head_libmsvcrt_a
 .idata$2       0x00a17050       0x14 c:/mingw/bin/../lib/gcc/mingw32/3.4.2/../../../libshell32.a(dsjeh.o)
                0x00a17050                _head_libshell32_a
 .idata$2       0x00a17064       0x14 c:/mingw/bin/../lib/gcc/mingw32/3.4.2/../../../libuser32.a(dgdfh.o)
                0x00a17064                _head_libuser32_a
 SORT(*)(.idata$3)
                0x00a17078        0x4 LONG 0x0
                0x00a1707c        0x4 LONG 0x0
                0x00a17080        0x4 LONG 0x0
                0x00a17084        0x4 LONG 0x0
                0x00a17088        0x4 LONG 0x0
 SORT(*)(.idata$4)
 .idata$4       0x00a1708c        0x4 c:/mingw/bin/../lib/gcc/mingw32/3.4.2/../../../libgdi32.a(deubh.o)
 .idata$4       0x00a17090        0x4 c:/mingw/bin/../lib/gcc/mingw32/3.4.2/../../../libgdi32.a(deubs00012.o)
 .idata$4       0x00a17094        0x4 c:/mingw/bin/../lib/gcc/mingw32/3.4.2/../../../libgdi32.a(deubs00015.o)
 .idata$4       0x00a17098        0x4 c:/mingw/bin/../lib/gcc/mingw32/3.4.2/../../../libgdi32.a(deubs00033.o)
 .idata$4       0x00a1709c        0x4 c:/mingw/bin/../lib/gcc/mingw32/3.4.2/../../../libgdi32.a(deubs00038.o)
 .idata$4       0x00a170a0        0x4 c:/mingw/bin/../lib/gcc/mingw32/3.4.2/../../../libgdi32.a(deubs00055.o)
 .idata$4       0x00a170a4        0x4 c:/mingw/bin/../lib/gcc/mingw32/3.4.2/../../../libgdi32.a(deubs00069.o)
 .idata$4       0x00a170a8        0x4 c:/mingw/bin/../lib/gcc/mingw32/3.4.2/../../../libgdi32.a(deubs00072.o)
 .idata$4       0x00a170ac        0x4 c:/mingw/bin/../lib/gcc/mingw32/3.4.2/../../../libgdi32.a(deubs00145.o)
 .idata$4       0x00a170b0        0x4 c:/mingw/bin/../lib/gcc/mingw32/3.4.2/../../../libgdi32.a(deubs00146.o)
 .idata$4       0x00a170b4        0x4 c:/mingw/bin/../lib/gcc/mingw32/3.4.2/../../../libgdi32.a(deubs00256.o)
 .idata$4       0x00a170b8        0x4 c:/mingw/bin/../lib/gcc/mingw32/3.4.2/../../../libgdi32.a(deubs00277.o)
 .idata$4       0x00a170bc        0x4 c:/mingw/bin/../lib/gcc/mingw32/3.4.2/../../../libgdi32.a(deubs00278.o)
 .idata$4       0x00a170c0        0x4 c:/mingw/bin/../lib/gcc/mingw32/3.4.2/../../../libgdi32.a(deubs00291.o)
 .idata$4       0x00a170c4        0x4 c:/mingw/bin/../lib/gcc/mingw32/3.4.2/../../../libgdi32.a(deubs00294.o)
 .idata$4       0x00a170c8        0x4 c:/mingw/bin/../lib/gcc/mingw32/3.4.2/../../../libgdi32.a(deubs00306.o)
 .idata$4       0x00a170cc        0x4 c:/mingw/bin/../lib/gcc/mingw32/3.4.2/../../../libgdi32.a(deubs00308.o)
 .idata$4       0x00a170d0        0x4 c:/mingw/bin/../lib/gcc/mingw32/3.4.2/../../../libgdi32.a(deubs00315.o)
 .idata$4       0x00a170d4        0x4 c:/mingw/bin/../lib/gcc/mingw32/3.4.2/../../../libgdi32.a(deubt.o)
 .idata$4       0x00a170d8        0x4 c:/mingw/bin/../lib/gcc/mingw32/3.4.2/../../../libkernel32.a(dqifh.o)
 .idata$4       0x00a170dc        0x4 c:/mingw/bin/../lib/gcc/mingw32/3.4.2/../../../libkernel32.a(dqifs00001.o)
 .idata$4       0x00a170e0        0x4 c:/mingw/bin/../lib/gcc/mingw32/3.4.2/../../../libkernel32.a(dqifs00038.o)
 .idata$4       0x00a170e4        0x4 c:/mingw/bin/../lib/gcc/mingw32/3.4.2/../../../libkernel32.a(dqifs00064.o)
 .idata$4       0x00a170e8        0x4 c:/mingw/bin/../lib/gcc/mingw32/3.4.2/../../../libkernel32.a(dqifs00087.o)
 .idata$4       0x00a170ec        0x4 c:/mingw/bin/../lib/gcc/mingw32/3.4.2/../../../libkernel32.a(dqifs00155.o)
 .idata$4       0x00a170f0        0x4 c:/mingw/bin/../lib/gcc/mingw32/3.4.2/../../../libkernel32.a(dqifs00175.o)
 .idata$4       0x00a170f4        0x4 c:/mingw/bin/../lib/gcc/mingw32/3.4.2/../../../libkernel32.a(dqifs00177.o)
 .idata$4       0x00a170f8        0x4 c:/mingw/bin/../lib/gcc/mingw32/3.4.2/../../../libkernel32.a(dqifs00181.o)
 .idata$4       0x00a170fc        0x4 c:/mingw/bin/../lib/gcc/mingw32/3.4.2/../../../libkernel32.a(dqifs00190.o)
 .idata$4       0x00a17100        0x4 c:/mingw/bin/../lib/gcc/mingw32/3.4.2/../../../libkernel32.a(dqifs00208.o)
 .idata$4       0x00a17104        0x4 c:/mingw/bin/../lib/gcc/mingw32/3.4.2/../../../libkernel32.a(dqifs00213.o)
 .idata$4       0x00a17108        0x4 c:/mingw/bin/../lib/gcc/mingw32/3.4.2/../../../libkernel32.a(dqifs00220.o)
 .idata$4       0x00a1710c        0x4 c:/mingw/bin/../lib/gcc/mingw32/3.4.2/../../../libkernel32.a(dqifs00236.o)
 .idata$4       0x00a17110        0x4 c:/mingw/bin/../lib/gcc/mingw32/3.4.2/../../../libkernel32.a(dqifs00281.o)
 .idata$4       0x00a17114        0x4 c:/mingw/bin/../lib/gcc/mingw32/3.4.2/../../../libkernel32.a(dqifs00306.o)
 .idata$4       0x00a17118        0x4 c:/mingw/bin/../lib/gcc/mingw32/3.4.2/../../../libkernel32.a(dqifs00323.o)
 .idata$4       0x00a1711c        0x4 c:/mingw/bin/../lib/gcc/mingw32/3.4.2/../../../libkernel32.a(dqifs00329.o)
 .idata$4       0x00a17120        0x4 c:/mingw/bin/../lib/gcc/mingw32/3.4.2/../../../libkernel32.a(dqifs00335.o)
 .idata$4       0x00a17124        0x4 c:/mingw/bin/../lib/gcc/mingw32/3.4.2/../../../libkernel32.a(dqifs00362.o)
 .idata$4       0x00a17128        0x4 c:/mingw/bin/../lib/gcc/mingw32/3.4.2/../../../libkernel32.a(dqifs00384.o)
 .idata$4       0x00a1712c        0x4 c:/mingw/bin/../lib/gcc/mingw32/3.4.2/../../../libkernel32.a(dqifs00431.o)
 .idata$4       0x00a17130        0x4 c:/mingw/bin/../lib/gcc/mingw32/3.4.2/../../../libkernel32.a(dqifs00458.o)
 .idata$4       0x00a17134        0x4 c:/mingw/bin/../lib/gcc/mingw32/3.4.2/../../../libkernel32.a(dqifs00522.o)
 .idata$4       0x00a17138        0x4 c:/mingw/bin/../lib/gcc/mingw32/3.4.2/../../../libkernel32.a(dqifs00595.o)
 .idata$4       0x00a1713c        0x4 c:/mingw/bin/../lib/gcc/mingw32/3.4.2/../../../libkernel32.a(dqifs00596.o)
 .idata$4       0x00a17140        0x4 c:/mingw/bin/../lib/gcc/mingw32/3.4.2/../../../libkernel32.a(dqifs00716.o)
 .idata$4       0x00a17144        0x4 c:/mingw/bin/../lib/gcc/mingw32/3.4.2/../../../libkernel32.a(dqifs00736.o)
 .idata$4       0x00a17148        0x4 c:/mingw/bin/../lib/gcc/mingw32/3.4.2/../../../libkernel32.a(dqifs00806.o)
 .idata$4       0x00a1714c        0x4 c:/mingw/bin/../lib/gcc/mingw32/3.4.2/../../../libkernel32.a(dqift.o)
 .idata$4       0x00a17150        0x4 c:/mingw/bin/../lib/gcc/mingw32/3.4.2/../../../libmoldname.a(duudh.o)
 .idata$4       0x00a17154        0x4 c:/mingw/bin/../lib/gcc/mingw32/3.4.2/../../../libmoldname.a(duuds00000.o)
 .idata$4       0x00a17158        0x4 c:/mingw/bin/../lib/gcc/mingw32/3.4.2/../../../libmoldname.a(duuds00002.o)
 .idata$4       0x00a1715c        0x4 c:/mingw/bin/../lib/gcc/mingw32/3.4.2/../../../libmoldname.a(duuds00006.o)
 .idata$4       0x00a17160        0x4 c:/mingw/bin/../lib/gcc/mingw32/3.4.2/../../../libmoldname.a(duuds00023.o)
 .idata$4       0x00a17164        0x4 c:/mingw/bin/../lib/gcc/mingw32/3.4.2/../../../libmoldname.a(duuds00026.o)
 .idata$4       0x00a17168        0x4 c:/mingw/bin/../lib/gcc/mingw32/3.4.2/../../../libmoldname.a(duuds00032.o)
 .idata$4       0x00a1716c        0x4 c:/mingw/bin/../lib/gcc/mingw32/3.4.2/../../../libmoldname.a(duuds00037.o)
 .idata$4       0x00a17170        0x4 c:/mingw/bin/../lib/gcc/mingw32/3.4.2/../../../libmoldname.a(duuds00051.o)
 .idata$4       0x00a17174        0x4 c:/mingw/bin/../lib/gcc/mingw32/3.4.2/../../../libmoldname.a(duuds00055.o)
 .idata$4       0x00a17178        0x4 c:/mingw/bin/../lib/gcc/mingw32/3.4.2/../../../libmoldname.a(duuds00058.o)
 .idata$4       0x00a1717c        0x4 c:/mingw/bin/../lib/gcc/mingw32/3.4.2/../../../libmoldname.a(duuds00064.o)
 .idata$4       0x00a17180        0x4 c:/mingw/bin/../lib/gcc/mingw32/3.4.2/../../../libmoldname.a(duuds00079.o)
 .idata$4       0x00a17184        0x4 c:/mingw/bin/../lib/gcc/mingw32/3.4.2/../../../libmoldname.a(duuds00081.o)
 .idata$4       0x00a17188        0x4 c:/mingw/bin/../lib/gcc/mingw32/3.4.2/../../../libmoldname.a(duuds00089.o)
 .idata$4       0x00a1718c        0x4 c:/mingw/bin/../lib/gcc/mingw32/3.4.2/../../../libmoldname.a(duuds00110.o)
 .idata$4       0x00a17190        0x4 c:/mingw/bin/../lib/gcc/mingw32/3.4.2/../../../libmoldname.a(duudt.o)
 .idata$4       0x00a17194        0x4 c:/mingw/bin/../lib/gcc/mingw32/3.4.2/../../../libmsvcrt.a(dwpdh.o)
 .idata$4       0x00a17198        0x4 c:/mingw/bin/../lib/gcc/mingw32/3.4.2/../../../libmsvcrt.a(dwpds00039.o)
 .idata$4       0x00a1719c        0x4 c:/mingw/bin/../lib/gcc/mingw32/3.4.2/../../../libmsvcrt.a(dwpds00060.o)
 .idata$4       0x00a171a0        0x4 c:/mingw/bin/../lib/gcc/mingw32/3.4.2/../../../libmsvcrt.a(dwpds00062.o)
 .idata$4       0x00a171a4        0x4 c:/mingw/bin/../lib/gcc/mingw32/3.4.2/../../../libmsvcrt.a(dwpds00080.o)
 .idata$4       0x00a171a8        0x4 c:/mingw/bin/../lib/gcc/mingw32/3.4.2/../../../libmsvcrt.a(dwpds00121.o)
 .idata$4       0x00a171ac        0x4 c:/mingw/bin/../lib/gcc/mingw32/3.4.2/../../../libmsvcrt.a(dwpds00152.o)
 .idata$4       0x00a171b0        0x4 c:/mingw/bin/../lib/gcc/mingw32/3.4.2/../../../libmsvcrt.a(dwpds00175.o)
 .idata$4       0x00a171b4        0x4 c:/mingw/bin/../lib/gcc/mingw32/3.4.2/../../../libmsvcrt.a(dwpds00176.o)
 .idata$4       0x00a171b8        0x4 c:/mingw/bin/../lib/gcc/mingw32/3.4.2/../../../libmsvcrt.a(dwpds00179.o)
 .idata$4       0x00a171bc        0x4 c:/mingw/bin/../lib/gcc/mingw32/3.4.2/../../../libmsvcrt.a(dwpds00198.o)
 .idata$4       0x00a171c0        0x4 c:/mingw/bin/../lib/gcc/mingw32/3.4.2/../../../libmsvcrt.a(dwpds00207.o)
 .idata$4       0x00a171c4        0x4 c:/mingw/bin/../lib/gcc/mingw32/3.4.2/../../../libmsvcrt.a(dwpds00233.o)
 .idata$4       0x00a171c8        0x4 c:/mingw/bin/../lib/gcc/mingw32/3.4.2/../../../libmsvcrt.a(dwpds00280.o)
 .idata$4       0x00a171cc        0x4 c:/mingw/bin/../lib/gcc/mingw32/3.4.2/../../../libmsvcrt.a(dwpds00350.o)
 .idata$4       0x00a171d0        0x4 c:/mingw/bin/../lib/gcc/mingw32/3.4.2/../../../libmsvcrt.a(dwpds00388.o)
 .idata$4       0x00a171d4        0x4 c:/mingw/bin/../lib/gcc/mingw32/3.4.2/../../../libmsvcrt.a(dwpds00411.o)
 .idata$4       0x00a171d8        0x4 c:/mingw/bin/../lib/gcc/mingw32/3.4.2/../../../libmsvcrt.a(dwpds00415.o)
 .idata$4       0x00a171dc        0x4 c:/mingw/bin/../lib/gcc/mingw32/3.4.2/../../../libmsvcrt.a(dwpds00445.o)
 .idata$4       0x00a171e0        0x4 c:/mingw/bin/../lib/gcc/mingw32/3.4.2/../../../libmsvcrt.a(dwpds00533.o)
 .idata$4       0x00a171e4        0x4 c:/mingw/bin/../lib/gcc/mingw32/3.4.2/../../../libmsvcrt.a(dwpds00540.o)
 .idata$4       0x00a171e8        0x4 c:/mingw/bin/../lib/gcc/mingw32/3.4.2/../../../libmsvcrt.a(dwpds00542.o)
 .idata$4       0x00a171ec        0x4 c:/mingw/bin/../lib/gcc/mingw32/3.4.2/../../../libmsvcrt.a(dwpds00543.o)
 .idata$4       0x00a171f0        0x4 c:/mingw/bin/../lib/gcc/mingw32/3.4.2/../../../libmsvcrt.a(dwpds00545.o)
 .idata$4       0x00a171f4        0x4 c:/mingw/bin/../lib/gcc/mingw32/3.4.2/../../../libmsvcrt.a(dwpds00549.o)
 .idata$4       0x00a171f8        0x4 c:/mingw/bin/../lib/gcc/mingw32/3.4.2/../../../libmsvcrt.a(dwpds00554.o)
 .idata$4       0x00a171fc        0x4 c:/mingw/bin/../lib/gcc/mingw32/3.4.2/../../../libmsvcrt.a(dwpds00557.o)
 .idata$4       0x00a17200        0x4 c:/mingw/bin/../lib/gcc/mingw32/3.4.2/../../../libmsvcrt.a(dwpds00560.o)
 .idata$4       0x00a17204        0x4 c:/mingw/bin/../lib/gcc/mingw32/3.4.2/../../../libmsvcrt.a(dwpds00563.o)
 .idata$4       0x00a17208        0x4 c:/mingw/bin/../lib/gcc/mingw32/3.4.2/../../../libmsvcrt.a(dwpds00566.o)
 .idata$4       0x00a1720c        0x4 c:/mingw/bin/../lib/gcc/mingw32/3.4.2/../../../libmsvcrt.a(dwpds00568.o)
 .idata$4       0x00a17210        0x4 c:/mingw/bin/../lib/gcc/mingw32/3.4.2/../../../libmsvcrt.a(dwpds00569.o)
 .idata$4       0x00a17214        0x4 c:/mingw/bin/../lib/gcc/mingw32/3.4.2/../../../libmsvcrt.a(dwpds00570.o)
 .idata$4       0x00a17218        0x4 c:/mingw/bin/../lib/gcc/mingw32/3.4.2/../../../libmsvcrt.a(dwpds00571.o)
 .idata$4       0x00a1721c        0x4 c:/mingw/bin/../lib/gcc/mingw32/3.4.2/../../../libmsvcrt.a(dwpds00574.o)
 .idata$4       0x00a17220        0x4 c:/mingw/bin/../lib/gcc/mingw32/3.4.2/../../../libmsvcrt.a(dwpds00575.o)
 .idata$4       0x00a17224        0x4 c:/mingw/bin/../lib/gcc/mingw32/3.4.2/../../../libmsvcrt.a(dwpds00576.o)
 .idata$4       0x00a17228        0x4 c:/mingw/bin/../lib/gcc/mingw32/3.4.2/../../../libmsvcrt.a(dwpds00579.o)
 .idata$4       0x00a1722c        0x4 c:/mingw/bin/../lib/gcc/mingw32/3.4.2/../../../libmsvcrt.a(dwpds00581.o)
 .idata$4       0x00a17230        0x4 c:/mingw/bin/../lib/gcc/mingw32/3.4.2/../../../libmsvcrt.a(dwpds00583.o)
 .idata$4       0x00a17234        0x4 c:/mingw/bin/../lib/gcc/mingw32/3.4.2/../../../libmsvcrt.a(dwpds00587.o)
 .idata$4       0x00a17238        0x4 c:/mingw/bin/../lib/gcc/mingw32/3.4.2/../../../libmsvcrt.a(dwpds00620.o)
 .idata$4       0x00a1723c        0x4 c:/mingw/bin/../lib/gcc/mingw32/3.4.2/../../../libmsvcrt.a(dwpds00626.o)
 .idata$4       0x00a17240        0x4 c:/mingw/bin/../lib/gcc/mingw32/3.4.2/../../../libmsvcrt.a(dwpds00632.o)
 .idata$4       0x00a17244        0x4 c:/mingw/bin/../lib/gcc/mingw32/3.4.2/../../../libmsvcrt.a(dwpds00633.o)
 .idata$4       0x00a17248        0x4 c:/mingw/bin/../lib/gcc/mingw32/3.4.2/../../../libmsvcrt.a(dwpds00634.o)
 .idata$4       0x00a1724c        0x4 c:/mingw/bin/../lib/gcc/mingw32/3.4.2/../../../libmsvcrt.a(dwpds00638.o)
 .idata$4       0x00a17250        0x4 c:/mingw/bin/../lib/gcc/mingw32/3.4.2/../../../libmsvcrt.a(dwpds00639.o)
 .idata$4       0x00a17254        0x4 c:/mingw/bin/../lib/gcc/mingw32/3.4.2/../../../libmsvcrt.a(dwpds00642.o)
 .idata$4       0x00a17258        0x4 c:/mingw/bin/../lib/gcc/mingw32/3.4.2/../../../libmsvcrt.a(dwpds00645.o)
 .idata$4       0x00a1725c        0x4 c:/mingw/bin/../lib/gcc/mingw32/3.4.2/../../../libmsvcrt.a(dwpds00647.o)
 .idata$4       0x00a17260        0x4 c:/mingw/bin/../lib/gcc/mingw32/3.4.2/../../../libmsvcrt.a(dwpds00648.o)
 .idata$4       0x00a17264        0x4 c:/mingw/bin/../lib/gcc/mingw32/3.4.2/../../../libmsvcrt.a(dwpds00651.o)
 .idata$4       0x00a17268        0x4 c:/mingw/bin/../lib/gcc/mingw32/3.4.2/../../../libmsvcrt.a(dwpds00655.o)
 .idata$4       0x00a1726c        0x4 c:/mingw/bin/../lib/gcc/mingw32/3.4.2/../../../libmsvcrt.a(dwpds00656.o)
 .idata$4       0x00a17270        0x4 c:/mingw/bin/../lib/gcc/mingw32/3.4.2/../../../libmsvcrt.a(dwpds00657.o)
 .idata$4       0x00a17274        0x4 c:/mingw/bin/../lib/gcc/mingw32/3.4.2/../../../libmsvcrt.a(dwpds00659.o)
 .idata$4       0x00a17278        0x4 c:/mingw/bin/../lib/gcc/mingw32/3.4.2/../../../libmsvcrt.a(dwpds00660.o)
 .idata$4       0x00a1727c        0x4 c:/mingw/bin/../lib/gcc/mingw32/3.4.2/../../../libmsvcrt.a(dwpds00663.o)
 .idata$4       0x00a17280        0x4 c:/mingw/bin/../lib/gcc/mingw32/3.4.2/../../../libmsvcrt.a(dwpds00664.o)
 .idata$4       0x00a17284        0x4 c:/mingw/bin/../lib/gcc/mingw32/3.4.2/../../../libmsvcrt.a(dwpds00665.o)
 .idata$4       0x00a17288        0x4 c:/mingw/bin/../lib/gcc/mingw32/3.4.2/../../../libmsvcrt.a(dwpds00667.o)
 .idata$4       0x00a1728c        0x4 c:/mingw/bin/../lib/gcc/mingw32/3.4.2/../../../libmsvcrt.a(dwpds00671.o)
 .idata$4       0x00a17290        0x4 c:/mingw/bin/../lib/gcc/mingw32/3.4.2/../../../libmsvcrt.a(dwpds00674.o)
 .idata$4       0x00a17294        0x4 c:/mingw/bin/../lib/gcc/mingw32/3.4.2/../../../libmsvcrt.a(dwpds00676.o)
 .idata$4       0x00a17298        0x4 c:/mingw/bin/../lib/gcc/mingw32/3.4.2/../../../libmsvcrt.a(dwpds00679.o)
 .idata$4       0x00a1729c        0x4 c:/mingw/bin/../lib/gcc/mingw32/3.4.2/../../../libmsvcrt.a(dwpds00681.o)
 .idata$4       0x00a172a0        0x4 c:/mingw/bin/../lib/gcc/mingw32/3.4.2/../../../libmsvcrt.a(dwpds00682.o)
 .idata$4       0x00a172a4        0x4 c:/mingw/bin/../lib/gcc/mingw32/3.4.2/../../../libmsvcrt.a(dwpds00693.o)
 .idata$4       0x00a172a8        0x4 c:/mingw/bin/../lib/gcc/mingw32/3.4.2/../../../libmsvcrt.a(dwpds00701.o)
 .idata$4       0x00a172ac        0x4 c:/mingw/bin/../lib/gcc/mingw32/3.4.2/../../../libmsvcrt.a(dwpdt.o)
 .idata$4       0x00a172b0        0x4 c:/mingw/bin/../lib/gcc/mingw32/3.4.2/../../../libshell32.a(dsjeh.o)
 .idata$4       0x00a172b4        0x4 c:/mingw/bin/../lib/gcc/mingw32/3.4.2/../../../libshell32.a(dsjes00104.o)
 .idata$4       0x00a172b8        0x4 c:/mingw/bin/../lib/gcc/mingw32/3.4.2/../../../libshell32.a(dsjet.o)
 .idata$4       0x00a172bc        0x4 c:/mingw/bin/../lib/gcc/mingw32/3.4.2/../../../libuser32.a(dgdfh.o)
 .idata$4       0x00a172c0        0x4 c:/mingw/bin/../lib/gcc/mingw32/3.4.2/../../../libuser32.a(dgdfs00001.o)
 .idata$4       0x00a172c4        0x4 c:/mingw/bin/../lib/gcc/mingw32/3.4.2/../../../libuser32.a(dgdfs00029.o)
 .idata$4       0x00a172c8        0x4 c:/mingw/bin/../lib/gcc/mingw32/3.4.2/../../../libuser32.a(dgdfs00045.o)
 .idata$4       0x00a172cc        0x4 c:/mingw/bin/../lib/gcc/mingw32/3.4.2/../../../libuser32.a(dgdfs00079.o)
 .idata$4       0x00a172d0        0x4 c:/mingw/bin/../lib/gcc/mingw32/3.4.2/../../../libuser32.a(dgdfs00089.o)
 .idata$4       0x00a172d4        0x4 c:/mingw/bin/../lib/gcc/mingw32/3.4.2/../../../libuser32.a(dgdfs00133.o)
 .idata$4       0x00a172d8        0x4 c:/mingw/bin/../lib/gcc/mingw32/3.4.2/../../../libuser32.a(dgdfs00143.o)
 .idata$4       0x00a172dc        0x4 c:/mingw/bin/../lib/gcc/mingw32/3.4.2/../../../libuser32.a(dgdfs00148.o)
 .idata$4       0x00a172e0        0x4 c:/mingw/bin/../lib/gcc/mingw32/3.4.2/../../../libuser32.a(dgdfs00179.o)
 .idata$4       0x00a172e4        0x4 c:/mingw/bin/../lib/gcc/mingw32/3.4.2/../../../libuser32.a(dgdfs00193.o)
 .idata$4       0x00a172e8        0x4 c:/mingw/bin/../lib/gcc/mingw32/3.4.2/../../../libuser32.a(dgdfs00235.o)
 .idata$4       0x00a172ec        0x4 c:/mingw/bin/../lib/gcc/mingw32/3.4.2/../../../libuser32.a(dgdfs00247.o)
 .idata$4       0x00a172f0        0x4 c:/mingw/bin/../lib/gcc/mingw32/3.4.2/../../../libuser32.a(dgdfs00251.o)
 .idata$4       0x00a172f4        0x4 c:/mingw/bin/../lib/gcc/mingw32/3.4.2/../../../libuser32.a(dgdfs00252.o)
 .idata$4       0x00a172f8        0x4 c:/mingw/bin/../lib/gcc/mingw32/3.4.2/../../../libuser32.a(dgdfs00267.o)
 .idata$4       0x00a172fc        0x4 c:/mingw/bin/../lib/gcc/mingw32/3.4.2/../../../libuser32.a(dgdfs00322.o)
 .idata$4       0x00a17300        0x4 c:/mingw/bin/../lib/gcc/mingw32/3.4.2/../../../libuser32.a(dgdfs00323.o)
 .idata$4       0x00a17304        0x4 c:/mingw/bin/../lib/gcc/mingw32/3.4.2/../../../libuser32.a(dgdfs00325.o)
 .idata$4       0x00a17308        0x4 c:/mingw/bin/../lib/gcc/mingw32/3.4.2/../../../libuser32.a(dgdfs00340.o)
 .idata$4       0x00a1730c        0x4 c:/mingw/bin/../lib/gcc/mingw32/3.4.2/../../../libuser32.a(dgdfs00346.o)
 .idata$4       0x00a17310        0x4 c:/mingw/bin/../lib/gcc/mingw32/3.4.2/../../../libuser32.a(dgdfs00381.o)
 .idata$4       0x00a17314        0x4 c:/mingw/bin/../lib/gcc/mingw32/3.4.2/../../../libuser32.a(dgdfs00390.o)
 .idata$4       0x00a17318        0x4 c:/mingw/bin/../lib/gcc/mingw32/3.4.2/../../../libuser32.a(dgdfs00399.o)
 .idata$4       0x00a1731c        0x4 c:/mingw/bin/../lib/gcc/mingw32/3.4.2/../../../libuser32.a(dgdfs00401.o)
 .idata$4       0x00a17320        0x4 c:/mingw/bin/../lib/gcc/mingw32/3.4.2/../../../libuser32.a(dgdfs00407.o)
 .idata$4       0x00a17324        0x4 c:/mingw/bin/../lib/gcc/mingw32/3.4.2/../../../libuser32.a(dgdfs00430.o)
 .idata$4       0x00a17328        0x4 c:/mingw/bin/../lib/gcc/mingw32/3.4.2/../../../libuser32.a(dgdfs00441.o)
 .idata$4       0x00a1732c        0x4 c:/mingw/bin/../lib/gcc/mingw32/3.4.2/../../../libuser32.a(dgdfs00442.o)
 .idata$4       0x00a17330        0x4 c:/mingw/bin/../lib/gcc/mingw32/3.4.2/../../../libuser32.a(dgdfs00460.o)
 .idata$4       0x00a17334        0x4 c:/mingw/bin/../lib/gcc/mingw32/3.4.2/../../../libuser32.a(dgdfs00476.o)
 .idata$4       0x00a17338        0x4 c:/mingw/bin/../lib/gcc/mingw32/3.4.2/../../../libuser32.a(dgdfs00483.o)
 .idata$4       0x00a1733c        0x4 c:/mingw/bin/../lib/gcc/mingw32/3.4.2/../../../libuser32.a(dgdfs00488.o)
 .idata$4       0x00a17340        0x4 c:/mingw/bin/../lib/gcc/mingw32/3.4.2/../../../libuser32.a(dgdfs00499.o)
 .idata$4       0x00a17344        0x4 c:/mingw/bin/../lib/gcc/mingw32/3.4.2/../../../libuser32.a(dgdfs00502.o)
 .idata$4       0x00a17348        0x4 c:/mingw/bin/../lib/gcc/mingw32/3.4.2/../../../libuser32.a(dgdfs00527.o)
 .idata$4       0x00a1734c        0x4 c:/mingw/bin/../lib/gcc/mingw32/3.4.2/../../../libuser32.a(dgdfs00528.o)
 .idata$4       0x00a17350        0x4 c:/mingw/bin/../lib/gcc/mingw32/3.4.2/../../../libuser32.a(dgdfs00552.o)
 .idata$4       0x00a17354        0x4 c:/mingw/bin/../lib/gcc/mingw32/3.4.2/../../../libuser32.a(dgdfs00563.o)
 .idata$4       0x00a17358        0x4 c:/mingw/bin/../lib/gcc/mingw32/3.4.2/../../../libuser32.a(dgdfs00566.o)
 .idata$4       0x00a1735c        0x4 c:/mingw/bin/../lib/gcc/mingw32/3.4.2/../../../libuser32.a(dgdfs00568.o)
 .idata$4       0x00a17360        0x4 c:/mingw/bin/../lib/gcc/mingw32/3.4.2/../../../libuser32.a(dgdfs00579.o)
 .idata$4       0x00a17364        0x4 c:/mingw/bin/../lib/gcc/mingw32/3.4.2/../../../libuser32.a(dgdfs00602.o)
 .idata$4       0x00a17368        0x4 c:/mingw/bin/../lib/gcc/mingw32/3.4.2/../../../libuser32.a(dgdfs00612.o)
 .idata$4       0x00a1736c        0x4 c:/mingw/bin/../lib/gcc/mingw32/3.4.2/../../../libuser32.a(dgdfs00614.o)
 .idata$4       0x00a17370        0x4 c:/mingw/bin/../lib/gcc/mingw32/3.4.2/../../../libuser32.a(dgdfs00633.o)
 .idata$4       0x00a17374        0x4 c:/mingw/bin/../lib/gcc/mingw32/3.4.2/../../../libuser32.a(dgdft.o)
 SORT(*)(.idata$5)
 .idata$5       0x00a17378        0x4 c:/mingw/bin/../lib/gcc/mingw32/3.4.2/../../../libgdi32.a(deubh.o)
 .idata$5       0x00a1737c        0x4 c:/mingw/bin/../lib/gcc/mingw32/3.4.2/../../../libgdi32.a(deubs00012.o)
                0x00a1737c                _imp__BitBlt@36
 .idata$5       0x00a17380        0x4 c:/mingw/bin/../lib/gcc/mingw32/3.4.2/../../../libgdi32.a(deubs00015.o)
                0x00a17380                _imp__ChoosePixelFormat@8
 .idata$5       0x00a17384        0x4 c:/mingw/bin/../lib/gcc/mingw32/3.4.2/../../../libgdi32.a(deubs00033.o)
                0x00a17384                _imp__CreateCompatibleDC@4
 .idata$5       0x00a17388        0x4 c:/mingw/bin/../lib/gcc/mingw32/3.4.2/../../../libgdi32.a(deubs00038.o)
                0x00a17388                _imp__CreateDIBSection@24
 .idata$5       0x00a1738c        0x4 c:/mingw/bin/../lib/gcc/mingw32/3.4.2/../../../libgdi32.a(deubs00055.o)
                0x00a1738c                _imp__CreatePalette@4
 .idata$5       0x00a17390        0x4 c:/mingw/bin/../lib/gcc/mingw32/3.4.2/../../../libgdi32.a(deubs00069.o)
                0x00a17390                _imp__DeleteDC@4
 .idata$5       0x00a17394        0x4 c:/mingw/bin/../lib/gcc/mingw32/3.4.2/../../../libgdi32.a(deubs00072.o)
                0x00a17394                _imp__DeleteObject@4
 .idata$5       0x00a17398        0x4 c:/mingw/bin/../lib/gcc/mingw32/3.4.2/../../../libgdi32.a(deubs00145.o)
                0x00a17398                _imp__GetDeviceCaps@8
 .idata$5       0x00a1739c        0x4 c:/mingw/bin/../lib/gcc/mingw32/3.4.2/../../../libgdi32.a(deubs00146.o)
                0x00a1739c                _imp__GetDeviceGammaRamp@8
 .idata$5       0x00a173a0        0x4 c:/mingw/bin/../lib/gcc/mingw32/3.4.2/../../../libgdi32.a(deubs00256.o)
                0x00a173a0                _imp__RealizePalette@4
 .idata$5       0x00a173a4        0x4 c:/mingw/bin/../lib/gcc/mingw32/3.4.2/../../../libgdi32.a(deubs00277.o)
                0x00a173a4                _imp__SelectObject@8
 .idata$5       0x00a173a8        0x4 c:/mingw/bin/../lib/gcc/mingw32/3.4.2/../../../libgdi32.a(deubs00278.o)
                0x00a173a8                _imp__SelectPalette@12
 .idata$5       0x00a173ac        0x4 c:/mingw/bin/../lib/gcc/mingw32/3.4.2/../../../libgdi32.a(deubs00291.o)
                0x00a173ac                _imp__SetDIBColorTable@16
 .idata$5       0x00a173b0        0x4 c:/mingw/bin/../lib/gcc/mingw32/3.4.2/../../../libgdi32.a(deubs00294.o)
                0x00a173b0                _imp__SetDeviceGammaRamp@8
 .idata$5       0x00a173b4        0x4 c:/mingw/bin/../lib/gcc/mingw32/3.4.2/../../../libgdi32.a(deubs00306.o)
                0x00a173b4                _imp__SetPaletteEntries@16
 .idata$5       0x00a173b8        0x4 c:/mingw/bin/../lib/gcc/mingw32/3.4.2/../../../libgdi32.a(deubs00308.o)
                0x00a173b8                _imp__SetPixelFormat@12
 .idata$5       0x00a173bc        0x4 c:/mingw/bin/../lib/gcc/mingw32/3.4.2/../../../libgdi32.a(deubs00315.o)
                0x00a173bc                _imp__SetSystemPaletteUse@8
 .idata$5       0x00a173c0        0x4 c:/mingw/bin/../lib/gcc/mingw32/3.4.2/../../../libgdi32.a(deubt.o)
 .idata$5       0x00a173c4        0x4 c:/mingw/bin/../lib/gcc/mingw32/3.4.2/../../../libkernel32.a(dqifh.o)
 .idata$5       0x00a173c8        0x4 c:/mingw/bin/../lib/gcc/mingw32/3.4.2/../../../libkernel32.a(dqifs00001.o)
                0x00a173c8                _imp__AddAtomA@4
 .idata$5       0x00a173cc        0x4 c:/mingw/bin/../lib/gcc/mingw32/3.4.2/../../../libkernel32.a(dqifs00038.o)
                0x00a173cc                _imp__CloseHandle@4
 .idata$5       0x00a173d0        0x4 c:/mingw/bin/../lib/gcc/mingw32/3.4.2/../../../libkernel32.a(dqifs00064.o)
                0x00a173d0                _imp__CreateEventA@16
 .idata$5       0x00a173d4        0x4 c:/mingw/bin/../lib/gcc/mingw32/3.4.2/../../../libkernel32.a(dqifs00087.o)
                0x00a173d4                _imp__CreateSemaphoreA@16
 .idata$5       0x00a173d8        0x4 c:/mingw/bin/../lib/gcc/mingw32/3.4.2/../../../libkernel32.a(dqifs00155.o)
                0x00a173d8                _imp__ExitProcess@4
 .idata$5       0x00a173dc        0x4 c:/mingw/bin/../lib/gcc/mingw32/3.4.2/../../../libkernel32.a(dqifs00175.o)
                0x00a173dc                _imp__FindAtomA@4
 .idata$5       0x00a173e0        0x4 c:/mingw/bin/../lib/gcc/mingw32/3.4.2/../../../libkernel32.a(dqifs00177.o)
                0x00a173e0                _imp__FindClose@4
 .idata$5       0x00a173e4        0x4 c:/mingw/bin/../lib/gcc/mingw32/3.4.2/../../../libkernel32.a(dqifs00181.o)
                0x00a173e4                _imp__FindFirstFileA@8
 .idata$5       0x00a173e8        0x4 c:/mingw/bin/../lib/gcc/mingw32/3.4.2/../../../libkernel32.a(dqifs00190.o)
                0x00a173e8                _imp__FindNextFileA@8
 .idata$5       0x00a173ec        0x4 c:/mingw/bin/../lib/gcc/mingw32/3.4.2/../../../libkernel32.a(dqifs00208.o)
                0x00a173ec                _imp__FormatMessageA@28
 .idata$5       0x00a173f0        0x4 c:/mingw/bin/../lib/gcc/mingw32/3.4.2/../../../libkernel32.a(dqifs00213.o)
                0x00a173f0                _imp__FreeLibrary@4
 .idata$5       0x00a173f4        0x4 c:/mingw/bin/../lib/gcc/mingw32/3.4.2/../../../libkernel32.a(dqifs00220.o)
                0x00a173f4                _imp__GetAtomNameA@12
 .idata$5       0x00a173f8        0x4 c:/mingw/bin/../lib/gcc/mingw32/3.4.2/../../../libkernel32.a(dqifs00236.o)
                0x00a173f8                _imp__GetCommandLineA@0
 .idata$5       0x00a173fc        0x4 c:/mingw/bin/../lib/gcc/mingw32/3.4.2/../../../libkernel32.a(dqifs00281.o)
                0x00a173fc                _imp__GetCurrentProcess@0
 .idata$5       0x00a17400        0x4 c:/mingw/bin/../lib/gcc/mingw32/3.4.2/../../../libkernel32.a(dqifs00306.o)
                0x00a17400                _imp__GetFileAttributesA@4
 .idata$5       0x00a17404        0x4 c:/mingw/bin/../lib/gcc/mingw32/3.4.2/../../../libkernel32.a(dqifs00323.o)
                0x00a17404                _imp__GetLastError@0
 .idata$5       0x00a17408        0x4 c:/mingw/bin/../lib/gcc/mingw32/3.4.2/../../../libkernel32.a(dqifs00329.o)
                0x00a17408                _imp__GetLogicalDrives@0
 .idata$5       0x00a1740c        0x4 c:/mingw/bin/../lib/gcc/mingw32/3.4.2/../../../libkernel32.a(dqifs00335.o)
                0x00a1740c                _imp__GetModuleHandleA@4
 .idata$5       0x00a17410        0x4 c:/mingw/bin/../lib/gcc/mingw32/3.4.2/../../../libkernel32.a(dqifs00362.o)
                0x00a17410                _imp__GetProcAddress@8
 .idata$5       0x00a17414        0x4 c:/mingw/bin/../lib/gcc/mingw32/3.4.2/../../../libkernel32.a(dqifs00384.o)
                0x00a17414                _imp__GetStartupInfoA@4
 .idata$5       0x00a17418        0x4 c:/mingw/bin/../lib/gcc/mingw32/3.4.2/../../../libkernel32.a(dqifs00431.o)
                0x00a17418                _imp__GetVersionExA@4
 .idata$5       0x00a1741c        0x4 c:/mingw/bin/../lib/gcc/mingw32/3.4.2/../../../libkernel32.a(dqifs00458.o)
                0x00a1741c                _imp__GlobalMemoryStatus@4
 .idata$5       0x00a17420        0x4 c:/mingw/bin/../lib/gcc/mingw32/3.4.2/../../../libkernel32.a(dqifs00522.o)
                0x00a17420                _imp__LoadLibraryA@4
 .idata$5       0x00a17424        0x4 c:/mingw/bin/../lib/gcc/mingw32/3.4.2/../../../libkernel32.a(dqifs00595.o)
                0x00a17424                _imp__QueryPerformanceCounter@4
 .idata$5       0x00a17428        0x4 c:/mingw/bin/../lib/gcc/mingw32/3.4.2/../../../libkernel32.a(dqifs00596.o)
                0x00a17428                _imp__QueryPerformanceFrequency@4
 .idata$5       0x00a1742c        0x4 c:/mingw/bin/../lib/gcc/mingw32/3.4.2/../../../libkernel32.a(dqifs00716.o)
                0x00a1742c                _imp__SetPriorityClass@8
 .idata$5       0x00a17430        0x4 c:/mingw/bin/../lib/gcc/mingw32/3.4.2/../../../libkernel32.a(dqifs00736.o)
                0x00a17430                _imp__SetUnhandledExceptionFilter@4
 .idata$5       0x00a17434        0x4 c:/mingw/bin/../lib/gcc/mingw32/3.4.2/../../../libkernel32.a(dqifs00806.o)
                0x00a17434                _imp__WaitForSingleObject@8
 .idata$5       0x00a17438        0x4 c:/mingw/bin/../lib/gcc/mingw32/3.4.2/../../../libkernel32.a(dqift.o)
 .idata$5       0x00a1743c        0x4 c:/mingw/bin/../lib/gcc/mingw32/3.4.2/../../../libmoldname.a(duudh.o)
 .idata$5       0x00a17440        0x4 c:/mingw/bin/../lib/gcc/mingw32/3.4.2/../../../libmoldname.a(duuds00000.o)
                0x00a17440                _imp__access
 .idata$5       0x00a17444        0x4 c:/mingw/bin/../lib/gcc/mingw32/3.4.2/../../../libmoldname.a(duuds00002.o)
                0x00a17444                _imp__chdir
 .idata$5       0x00a17448        0x4 c:/mingw/bin/../lib/gcc/mingw32/3.4.2/../../../libmoldname.a(duuds00006.o)
                0x00a17448                _imp__close
 .idata$5       0x00a1744c        0x4 c:/mingw/bin/../lib/gcc/mingw32/3.4.2/../../../libmoldname.a(duuds00023.o)
                0x00a1744c                _imp__fdopen
 .idata$5       0x00a17450        0x4 c:/mingw/bin/../lib/gcc/mingw32/3.4.2/../../../libmoldname.a(duuds00026.o)
                0x00a17450                _imp__filelength
 .idata$5       0x00a17454        0x4 c:/mingw/bin/../lib/gcc/mingw32/3.4.2/../../../libmoldname.a(duuds00032.o)
                0x00a17454                _imp__fstat
 .idata$5       0x00a17458        0x4 c:/mingw/bin/../lib/gcc/mingw32/3.4.2/../../../libmoldname.a(duuds00037.o)
                0x00a17458                _imp__getcwd
 .idata$5       0x00a1745c        0x4 c:/mingw/bin/../lib/gcc/mingw32/3.4.2/../../../libmoldname.a(duuds00051.o)
                0x00a1745c                _imp__lseek
 .idata$5       0x00a17460        0x4 c:/mingw/bin/../lib/gcc/mingw32/3.4.2/../../../libmoldname.a(duuds00055.o)
                0x00a17460                _imp__mkdir
 .idata$5       0x00a17464        0x4 c:/mingw/bin/../lib/gcc/mingw32/3.4.2/../../../libmoldname.a(duuds00058.o)
                0x00a17464                _imp__open
 .idata$5       0x00a17468        0x4 c:/mingw/bin/../lib/gcc/mingw32/3.4.2/../../../libmoldname.a(duuds00064.o)
                0x00a17468                _imp__read
 .idata$5       0x00a1746c        0x4 c:/mingw/bin/../lib/gcc/mingw32/3.4.2/../../../libmoldname.a(duuds00079.o)
                0x00a1746c                _imp__stat
 .idata$5       0x00a17470        0x4 c:/mingw/bin/../lib/gcc/mingw32/3.4.2/../../../libmoldname.a(duuds00081.o)
                0x00a17470                _imp__strdup
 .idata$5       0x00a17474        0x4 c:/mingw/bin/../lib/gcc/mingw32/3.4.2/../../../libmoldname.a(duuds00089.o)
                0x00a17474                _imp__strupr
 .idata$5       0x00a17478        0x4 c:/mingw/bin/../lib/gcc/mingw32/3.4.2/../../../libmoldname.a(duuds00110.o)
                0x00a17478                _imp__write
 .idata$5       0x00a1747c        0x4 c:/mingw/bin/../lib/gcc/mingw32/3.4.2/../../../libmoldname.a(duudt.o)
 .idata$5       0x00a17480        0x4 c:/mingw/bin/../lib/gcc/mingw32/3.4.2/../../../libmsvcrt.a(dwpdh.o)
 .idata$5       0x00a17484        0x4 c:/mingw/bin/../lib/gcc/mingw32/3.4.2/../../../libmsvcrt.a(dwpds00039.o)
                0x00a17484                _imp____getmainargs
 .idata$5       0x00a17488        0x4 c:/mingw/bin/../lib/gcc/mingw32/3.4.2/../../../libmsvcrt.a(dwpds00060.o)
                0x00a17488                _imp____p__environ
 .idata$5       0x00a1748c        0x4 c:/mingw/bin/../lib/gcc/mingw32/3.4.2/../../../libmsvcrt.a(dwpds00062.o)
                0x00a1748c                _imp____p__fmode
 .idata$5       0x00a17490        0x4 c:/mingw/bin/../lib/gcc/mingw32/3.4.2/../../../libmsvcrt.a(dwpds00080.o)
                0x00a17490                _imp____set_app_type
 .idata$5       0x00a17494        0x4 c:/mingw/bin/../lib/gcc/mingw32/3.4.2/../../../libmsvcrt.a(dwpds00121.o)
                0x00a17494                _imp___cexit
 .idata$5       0x00a17498        0x4 c:/mingw/bin/../lib/gcc/mingw32/3.4.2/../../../libmsvcrt.a(dwpds00152.o)
                0x00a17498                _imp___errno
 .idata$5       0x00a1749c        0x4 c:/mingw/bin/../lib/gcc/mingw32/3.4.2/../../../libmsvcrt.a(dwpds00175.o)
                0x00a1749c                _imp___findclose
 .idata$5       0x00a174a0        0x4 c:/mingw/bin/../lib/gcc/mingw32/3.4.2/../../../libmsvcrt.a(dwpds00176.o)
                0x00a174a0                _imp___findfirst
 .idata$5       0x00a174a4        0x4 c:/mingw/bin/../lib/gcc/mingw32/3.4.2/../../../libmsvcrt.a(dwpds00179.o)
                0x00a174a4                _imp___findnext
 .idata$5       0x00a174a8        0x4 c:/mingw/bin/../lib/gcc/mingw32/3.4.2/../../../libmsvcrt.a(dwpds00198.o)
                0x00a174a8                _imp___fullpath
 .idata$5       0x00a174ac        0x4 c:/mingw/bin/../lib/gcc/mingw32/3.4.2/../../../libmsvcrt.a(dwpds00207.o)
                0x00a174ac                _imp___getdcwd
 .idata$5       0x00a174b0        0x4 c:/mingw/bin/../lib/gcc/mingw32/3.4.2/../../../libmsvcrt.a(dwpds00233.o)
                0x00a174b0                _imp___iob
 .idata$5       0x00a174b4        0x4 c:/mingw/bin/../lib/gcc/mingw32/3.4.2/../../../libmsvcrt.a(dwpds00280.o)
                0x00a174b4                _imp___lrotl
 .idata$5       0x00a174b8        0x4 c:/mingw/bin/../lib/gcc/mingw32/3.4.2/../../../libmsvcrt.a(dwpds00350.o)
                0x00a174b8                _imp___onexit
 .idata$5       0x00a174bc        0x4 c:/mingw/bin/../lib/gcc/mingw32/3.4.2/../../../libmsvcrt.a(dwpds00388.o)
                0x00a174bc                _imp___setmode
 .idata$5       0x00a174c0        0x4 c:/mingw/bin/../lib/gcc/mingw32/3.4.2/../../../libmsvcrt.a(dwpds00411.o)
                0x00a174c0                _imp___stricmp
 .idata$5       0x00a174c4        0x4 c:/mingw/bin/../lib/gcc/mingw32/3.4.2/../../../libmsvcrt.a(dwpds00415.o)
                0x00a174c4                _imp___strnicmp
 .idata$5       0x00a174c8        0x4 c:/mingw/bin/../lib/gcc/mingw32/3.4.2/../../../libmsvcrt.a(dwpds00445.o)
                0x00a174c8                _imp___vsnprintf
 .idata$5       0x00a174cc        0x4 c:/mingw/bin/../lib/gcc/mingw32/3.4.2/../../../libmsvcrt.a(dwpds00533.o)
                0x00a174cc                _imp__abort
 .idata$5       0x00a174d0        0x4 c:/mingw/bin/../lib/gcc/mingw32/3.4.2/../../../libmsvcrt.a(dwpds00540.o)
                0x00a174d0                _imp__atexit
 .idata$5       0x00a174d4        0x4 c:/mingw/bin/../lib/gcc/mingw32/3.4.2/../../../libmsvcrt.a(dwpds00542.o)
                0x00a174d4                _imp__atoi
 .idata$5       0x00a174d8        0x4 c:/mingw/bin/../lib/gcc/mingw32/3.4.2/../../../libmsvcrt.a(dwpds00543.o)
                0x00a174d8                _imp__atol
 .idata$5       0x00a174dc        0x4 c:/mingw/bin/../lib/gcc/mingw32/3.4.2/../../../libmsvcrt.a(dwpds00545.o)
                0x00a174dc                _imp__calloc
 .idata$5       0x00a174e0        0x4 c:/mingw/bin/../lib/gcc/mingw32/3.4.2/../../../libmsvcrt.a(dwpds00549.o)
                0x00a174e0                _imp__cos
 .idata$5       0x00a174e4        0x4 c:/mingw/bin/../lib/gcc/mingw32/3.4.2/../../../libmsvcrt.a(dwpds00554.o)
                0x00a174e4                _imp__exit
 .idata$5       0x00a174e8        0x4 c:/mingw/bin/../lib/gcc/mingw32/3.4.2/../../../libmsvcrt.a(dwpds00557.o)
                0x00a174e8                _imp__fclose
 .idata$5       0x00a174ec        0x4 c:/mingw/bin/../lib/gcc/mingw32/3.4.2/../../../libmsvcrt.a(dwpds00560.o)
                0x00a174ec                _imp__fflush
 .idata$5       0x00a174f0        0x4 c:/mingw/bin/../lib/gcc/mingw32/3.4.2/../../../libmsvcrt.a(dwpds00563.o)
                0x00a174f0                _imp__fgets
 .idata$5       0x00a174f4        0x4 c:/mingw/bin/../lib/gcc/mingw32/3.4.2/../../../libmsvcrt.a(dwpds00566.o)
                0x00a174f4                _imp__floor
 .idata$5       0x00a174f8        0x4 c:/mingw/bin/../lib/gcc/mingw32/3.4.2/../../../libmsvcrt.a(dwpds00568.o)
                0x00a174f8                _imp__fopen
 .idata$5       0x00a174fc        0x4 c:/mingw/bin/../lib/gcc/mingw32/3.4.2/../../../libmsvcrt.a(dwpds00569.o)
                0x00a174fc                _imp__fprintf
 .idata$5       0x00a17500        0x4 c:/mingw/bin/../lib/gcc/mingw32/3.4.2/../../../libmsvcrt.a(dwpds00570.o)
                0x00a17500                _imp__fputc
 .idata$5       0x00a17504        0x4 c:/mingw/bin/../lib/gcc/mingw32/3.4.2/../../../libmsvcrt.a(dwpds00571.o)
                0x00a17504                _imp__fputs
 .idata$5       0x00a17508        0x4 c:/mingw/bin/../lib/gcc/mingw32/3.4.2/../../../libmsvcrt.a(dwpds00574.o)
                0x00a17508                _imp__fread
 .idata$5       0x00a1750c        0x4 c:/mingw/bin/../lib/gcc/mingw32/3.4.2/../../../libmsvcrt.a(dwpds00575.o)
                0x00a1750c                _imp__free
 .idata$5       0x00a17510        0x4 c:/mingw/bin/../lib/gcc/mingw32/3.4.2/../../../libmsvcrt.a(dwpds00576.o)
                0x00a17510                _imp__freopen
 .idata$5       0x00a17514        0x4 c:/mingw/bin/../lib/gcc/mingw32/3.4.2/../../../libmsvcrt.a(dwpds00579.o)
                0x00a17514                _imp__fseek
 .idata$5       0x00a17518        0x4 c:/mingw/bin/../lib/gcc/mingw32/3.4.2/../../../libmsvcrt.a(dwpds00581.o)
                0x00a17518                _imp__ftell
 .idata$5       0x00a1751c        0x4 c:/mingw/bin/../lib/gcc/mingw32/3.4.2/../../../libmsvcrt.a(dwpds00583.o)
                0x00a1751c                _imp__fwrite
 .idata$5       0x00a17520        0x4 c:/mingw/bin/../lib/gcc/mingw32/3.4.2/../../../libmsvcrt.a(dwpds00587.o)
                0x00a17520                _imp__getenv
 .idata$5       0x00a17524        0x4 c:/mingw/bin/../lib/gcc/mingw32/3.4.2/../../../libmsvcrt.a(dwpds00620.o)
                0x00a17524                _imp__ldiv
 .idata$5       0x00a17528        0x4 c:/mingw/bin/../lib/gcc/mingw32/3.4.2/../../../libmsvcrt.a(dwpds00626.o)
                0x00a17528                _imp__malloc
 .idata$5       0x00a1752c        0x4 c:/mingw/bin/../lib/gcc/mingw32/3.4.2/../../../libmsvcrt.a(dwpds00632.o)
                0x00a1752c                _imp__memcpy
 .idata$5       0x00a17530        0x4 c:/mingw/bin/../lib/gcc/mingw32/3.4.2/../../../libmsvcrt.a(dwpds00633.o)
                0x00a17530                _imp__memmove
 .idata$5       0x00a17534        0x4 c:/mingw/bin/../lib/gcc/mingw32/3.4.2/../../../libmsvcrt.a(dwpds00634.o)
                0x00a17534                _imp__memset
 .idata$5       0x00a17538        0x4 c:/mingw/bin/../lib/gcc/mingw32/3.4.2/../../../libmsvcrt.a(dwpds00638.o)
                0x00a17538                _imp__pow
 .idata$5       0x00a1753c        0x4 c:/mingw/bin/../lib/gcc/mingw32/3.4.2/../../../libmsvcrt.a(dwpds00639.o)
                0x00a1753c                _imp__printf
 .idata$5       0x00a17540        0x4 c:/mingw/bin/../lib/gcc/mingw32/3.4.2/../../../libmsvcrt.a(dwpds00642.o)
                0x00a17540                _imp__puts
 .idata$5       0x00a17544        0x4 c:/mingw/bin/../lib/gcc/mingw32/3.4.2/../../../libmsvcrt.a(dwpds00645.o)
                0x00a17544                _imp__qsort
 .idata$5       0x00a17548        0x4 c:/mingw/bin/../lib/gcc/mingw32/3.4.2/../../../libmsvcrt.a(dwpds00647.o)
                0x00a17548                _imp__rand
 .idata$5       0x00a1754c        0x4 c:/mingw/bin/../lib/gcc/mingw32/3.4.2/../../../libmsvcrt.a(dwpds00648.o)
                0x00a1754c                _imp__realloc
 .idata$5       0x00a17550        0x4 c:/mingw/bin/../lib/gcc/mingw32/3.4.2/../../../libmsvcrt.a(dwpds00651.o)
                0x00a17550                _imp__rewind
 .idata$5       0x00a17554        0x4 c:/mingw/bin/../lib/gcc/mingw32/3.4.2/../../../libmsvcrt.a(dwpds00655.o)
                0x00a17554                _imp__setvbuf
 .idata$5       0x00a17558        0x4 c:/mingw/bin/../lib/gcc/mingw32/3.4.2/../../../libmsvcrt.a(dwpds00656.o)
                0x00a17558                _imp__signal
 .idata$5       0x00a1755c        0x4 c:/mingw/bin/../lib/gcc/mingw32/3.4.2/../../../libmsvcrt.a(dwpds00657.o)
                0x00a1755c                _imp__sin
 .idata$5       0x00a17560        0x4 c:/mingw/bin/../lib/gcc/mingw32/3.4.2/../../../libmsvcrt.a(dwpds00659.o)
                0x00a17560                _imp__sprintf
 .idata$5       0x00a17564        0x4 c:/mingw/bin/../lib/gcc/mingw32/3.4.2/../../../libmsvcrt.a(dwpds00660.o)
                0x00a17564                _imp__sqrt
 .idata$5       0x00a17568        0x4 c:/mingw/bin/../lib/gcc/mingw32/3.4.2/../../../libmsvcrt.a(dwpds00663.o)
                0x00a17568                _imp__strcat
 .idata$5       0x00a1756c        0x4 c:/mingw/bin/../lib/gcc/mingw32/3.4.2/../../../libmsvcrt.a(dwpds00664.o)
                0x00a1756c                _imp__strchr
 .idata$5       0x00a17570        0x4 c:/mingw/bin/../lib/gcc/mingw32/3.4.2/../../../libmsvcrt.a(dwpds00665.o)
                0x00a17570                _imp__strcmp
 .idata$5       0x00a17574        0x4 c:/mingw/bin/../lib/gcc/mingw32/3.4.2/../../../libmsvcrt.a(dwpds00667.o)
                0x00a17574                _imp__strcpy
 .idata$5       0x00a17578        0x4 c:/mingw/bin/../lib/gcc/mingw32/3.4.2/../../../libmsvcrt.a(dwpds00671.o)
                0x00a17578                _imp__strlen
 .idata$5       0x00a1757c        0x4 c:/mingw/bin/../lib/gcc/mingw32/3.4.2/../../../libmsvcrt.a(dwpds00674.o)
                0x00a1757c                _imp__strncpy
 .idata$5       0x00a17580        0x4 c:/mingw/bin/../lib/gcc/mingw32/3.4.2/../../../libmsvcrt.a(dwpds00676.o)
                0x00a17580                _imp__strrchr
 .idata$5       0x00a17584        0x4 c:/mingw/bin/../lib/gcc/mingw32/3.4.2/../../../libmsvcrt.a(dwpds00679.o)
                0x00a17584                _imp__strtod
 .idata$5       0x00a17588        0x4 c:/mingw/bin/../lib/gcc/mingw32/3.4.2/../../../libmsvcrt.a(dwpds00681.o)
                0x00a17588                _imp__strtol
 .idata$5       0x00a1758c        0x4 c:/mingw/bin/../lib/gcc/mingw32/3.4.2/../../../libmsvcrt.a(dwpds00682.o)
                0x00a1758c                _imp__strtoul
 .idata$5       0x00a17590        0x4 c:/mingw/bin/../lib/gcc/mingw32/3.4.2/../../../libmsvcrt.a(dwpds00693.o)
                0x00a17590                _imp__toupper
 .idata$5       0x00a17594        0x4 c:/mingw/bin/../lib/gcc/mingw32/3.4.2/../../../libmsvcrt.a(dwpds00701.o)
                0x00a17594                _imp__vsprintf
 .idata$5       0x00a17598        0x4 c:/mingw/bin/../lib/gcc/mingw32/3.4.2/../../../libmsvcrt.a(dwpdt.o)
 .idata$5       0x00a1759c        0x4 c:/mingw/bin/../lib/gcc/mingw32/3.4.2/../../../libshell32.a(dsjeh.o)
 .idata$5       0x00a175a0        0x4 c:/mingw/bin/../lib/gcc/mingw32/3.4.2/../../../libshell32.a(dsjes00104.o)
                0x00a175a0                _imp__SHGetSpecialFolderPathA@16
 .idata$5       0x00a175a4        0x4 c:/mingw/bin/../lib/gcc/mingw32/3.4.2/../../../libshell32.a(dsjet.o)
 .idata$5       0x00a175a8        0x4 c:/mingw/bin/../lib/gcc/mingw32/3.4.2/../../../libuser32.a(dgdfh.o)
 .idata$5       0x00a175ac        0x4 c:/mingw/bin/../lib/gcc/mingw32/3.4.2/../../../libuser32.a(dgdfs00001.o)
                0x00a175ac                _imp__AdjustWindowRect@12
 .idata$5       0x00a175b0        0x4 c:/mingw/bin/../lib/gcc/mingw32/3.4.2/../../../libuser32.a(dgdfs00029.o)
                0x00a175b0                _imp__ChangeDisplaySettingsA@8
 .idata$5       0x00a175b4        0x4 c:/mingw/bin/../lib/gcc/mingw32/3.4.2/../../../libuser32.a(dgdfs00045.o)
                0x00a175b4                _imp__CharToOemA@8
 .idata$5       0x00a175b8        0x4 c:/mingw/bin/../lib/gcc/mingw32/3.4.2/../../../libuser32.a(dgdfs00079.o)
                0x00a175b8                _imp__CreateDialogParamA@20
 .idata$5       0x00a175bc        0x4 c:/mingw/bin/../lib/gcc/mingw32/3.4.2/../../../libuser32.a(dgdfs00089.o)
                0x00a175bc                _imp__CreateWindowExA@48
 .idata$5       0x00a175c0        0x4 c:/mingw/bin/../lib/gcc/mingw32/3.4.2/../../../libuser32.a(dgdfs00133.o)
                0x00a175c0                _imp__DefWindowProcA@16
 .idata$5       0x00a175c4        0x4 c:/mingw/bin/../lib/gcc/mingw32/3.4.2/../../../libuser32.a(dgdfs00143.o)
                0x00a175c4                _imp__DestroyWindow@4
 .idata$5       0x00a175c8        0x4 c:/mingw/bin/../lib/gcc/mingw32/3.4.2/../../../libuser32.a(dgdfs00148.o)
                0x00a175c8                _imp__DispatchMessageA@4
 .idata$5       0x00a175cc        0x4 c:/mingw/bin/../lib/gcc/mingw32/3.4.2/../../../libuser32.a(dgdfs00179.o)
                0x00a175cc                _imp__EnableWindow@8
 .idata$5       0x00a175d0        0x4 c:/mingw/bin/../lib/gcc/mingw32/3.4.2/../../../libuser32.a(dgdfs00193.o)
                0x00a175d0                _imp__EnumDisplaySettingsA@12
 .idata$5       0x00a175d4        0x4 c:/mingw/bin/../lib/gcc/mingw32/3.4.2/../../../libuser32.a(dgdfs00235.o)
                0x00a175d4                _imp__GetClientRect@8
 .idata$5       0x00a175d8        0x4 c:/mingw/bin/../lib/gcc/mingw32/3.4.2/../../../libuser32.a(dgdfs00247.o)
                0x00a175d8                _imp__GetDC@4
 .idata$5       0x00a175dc        0x4 c:/mingw/bin/../lib/gcc/mingw32/3.4.2/../../../libuser32.a(dgdfs00251.o)
                0x00a175dc                _imp__GetDlgCtrlID@4
 .idata$5       0x00a175e0        0x4 c:/mingw/bin/../lib/gcc/mingw32/3.4.2/../../../libuser32.a(dgdfs00252.o)
                0x00a175e0                _imp__GetDlgItem@8
 .idata$5       0x00a175e4        0x4 c:/mingw/bin/../lib/gcc/mingw32/3.4.2/../../../libuser32.a(dgdfs00267.o)
                0x00a175e4                _imp__GetKeyState@4
 .idata$5       0x00a175e8        0x4 c:/mingw/bin/../lib/gcc/mingw32/3.4.2/../../../libuser32.a(dgdfs00322.o)
                0x00a175e8                _imp__GetSysColor@4
 .idata$5       0x00a175ec        0x4 c:/mingw/bin/../lib/gcc/mingw32/3.4.2/../../../libuser32.a(dgdfs00323.o)
                0x00a175ec                _imp__GetSysColorBrush@4
 .idata$5       0x00a175f0        0x4 c:/mingw/bin/../lib/gcc/mingw32/3.4.2/../../../libuser32.a(dgdfs00325.o)
                0x00a175f0                _imp__GetSystemMetrics@4
 .idata$5       0x00a175f4        0x4 c:/mingw/bin/../lib/gcc/mingw32/3.4.2/../../../libuser32.a(dgdfs00340.o)
                0x00a175f4                _imp__GetWindowLongA@8
 .idata$5       0x00a175f8        0x4 c:/mingw/bin/../lib/gcc/mingw32/3.4.2/../../../libuser32.a(dgdfs00346.o)
                0x00a175f8                _imp__GetWindowRect@8
 .idata$5       0x00a175fc        0x4 c:/mingw/bin/../lib/gcc/mingw32/3.4.2/../../../libuser32.a(dgdfs00381.o)
                0x00a175fc                _imp__IsDialogMessageA@8
 .idata$5       0x00a17600        0x4 c:/mingw/bin/../lib/gcc/mingw32/3.4.2/../../../libuser32.a(dgdfs00390.o)
                0x00a17600                _imp__IsWindow@4
 .idata$5       0x00a17604        0x4 c:/mingw/bin/../lib/gcc/mingw32/3.4.2/../../../libuser32.a(dgdfs00399.o)
                0x00a17604                _imp__LoadBitmapA@8
 .idata$5       0x00a17608        0x4 c:/mingw/bin/../lib/gcc/mingw32/3.4.2/../../../libuser32.a(dgdfs00401.o)
                0x00a17608                _imp__LoadCursorA@8
 .idata$5       0x00a1760c        0x4 c:/mingw/bin/../lib/gcc/mingw32/3.4.2/../../../libuser32.a(dgdfs00407.o)
                0x00a1760c                _imp__LoadImageA@24
 .idata$5       0x00a17610        0x4 c:/mingw/bin/../lib/gcc/mingw32/3.4.2/../../../libuser32.a(dgdfs00430.o)
                0x00a17610                _imp__MessageBoxA@16
 .idata$5       0x00a17614        0x4 c:/mingw/bin/../lib/gcc/mingw32/3.4.2/../../../libuser32.a(dgdfs00441.o)
                0x00a17614                _imp__MoveWindow@24
 .idata$5       0x00a17618        0x4 c:/mingw/bin/../lib/gcc/mingw32/3.4.2/../../../libuser32.a(dgdfs00442.o)
                0x00a17618                _imp__MsgWaitForMultipleObjects@20
 .idata$5       0x00a1761c        0x4 c:/mingw/bin/../lib/gcc/mingw32/3.4.2/../../../libuser32.a(dgdfs00460.o)
                0x00a1761c                _imp__PeekMessageA@20
 .idata$5       0x00a17620        0x4 c:/mingw/bin/../lib/gcc/mingw32/3.4.2/../../../libuser32.a(dgdfs00476.o)
                0x00a17620                _imp__RegisterClassExA@4
 .idata$5       0x00a17624        0x4 c:/mingw/bin/../lib/gcc/mingw32/3.4.2/../../../libuser32.a(dgdfs00483.o)
                0x00a17624                _imp__RegisterHotKey@16
 .idata$5       0x00a17628        0x4 c:/mingw/bin/../lib/gcc/mingw32/3.4.2/../../../libuser32.a(dgdfs00488.o)
                0x00a17628                _imp__ReleaseDC@8
 .idata$5       0x00a1762c        0x4 c:/mingw/bin/../lib/gcc/mingw32/3.4.2/../../../libuser32.a(dgdfs00499.o)
                0x00a1762c                _imp__SendDlgItemMessageA@20
 .idata$5       0x00a17630        0x4 c:/mingw/bin/../lib/gcc/mingw32/3.4.2/../../../libuser32.a(dgdfs00502.o)
                0x00a17630                _imp__SendMessageA@16
 .idata$5       0x00a17634        0x4 c:/mingw/bin/../lib/gcc/mingw32/3.4.2/../../../libuser32.a(dgdfs00527.o)
                0x00a17634                _imp__SetFocus@4
 .idata$5       0x00a17638        0x4 c:/mingw/bin/../lib/gcc/mingw32/3.4.2/../../../libuser32.a(dgdfs00528.o)
                0x00a17638                _imp__SetForegroundWindow@4
 .idata$5       0x00a1763c        0x4 c:/mingw/bin/../lib/gcc/mingw32/3.4.2/../../../libuser32.a(dgdfs00552.o)
                0x00a1763c                _imp__SetSysColors@12
 .idata$5       0x00a17640        0x4 c:/mingw/bin/../lib/gcc/mingw32/3.4.2/../../../libuser32.a(dgdfs00563.o)
                0x00a17640                _imp__SetWindowLongA@12
 .idata$5       0x00a17644        0x4 c:/mingw/bin/../lib/gcc/mingw32/3.4.2/../../../libuser32.a(dgdfs00566.o)
                0x00a17644                _imp__SetWindowPos@28
 .idata$5       0x00a17648        0x4 c:/mingw/bin/../lib/gcc/mingw32/3.4.2/../../../libuser32.a(dgdfs00568.o)
                0x00a17648                _imp__SetWindowTextA@8
 .idata$5       0x00a1764c        0x4 c:/mingw/bin/../lib/gcc/mingw32/3.4.2/../../../libuser32.a(dgdfs00579.o)
                0x00a1764c                _imp__ShowWindow@8
 .idata$5       0x00a17650        0x4 c:/mingw/bin/../lib/gcc/mingw32/3.4.2/../../../libuser32.a(dgdfs00602.o)
                0x00a17650                _imp__TranslateMessage@4
 .idata$5       0x00a17654        0x4 c:/mingw/bin/../lib/gcc/mingw32/3.4.2/../../../libuser32.a(dgdfs00612.o)
                0x00a17654                _imp__UnregisterHotKey@8
 .idata$5       0x00a17658        0x4 c:/mingw/bin/../lib/gcc/mingw32/3.4.2/../../../libuser32.a(dgdfs00614.o)
                0x00a17658                _imp__UpdateWindow@4
 .idata$5       0x00a1765c        0x4 c:/mingw/bin/../lib/gcc/mingw32/3.4.2/../../../libuser32.a(dgdfs00633.o)
                0x00a1765c                _imp__wsprintfA
 .idata$5       0x00a17660        0x4 c:/mingw/bin/../lib/gcc/mingw32/3.4.2/../../../libuser32.a(dgdft.o)
 SORT(*)(.idata$6)
 .idata$6       0x00a17664        0xa c:/mingw/bin/../lib/gcc/mingw32/3.4.2/../../../libgdi32.a(deubs00012.o)
 *fill*         0x00a1766e        0x2 00
 .idata$6       0x00a17670       0x14 c:/mingw/bin/../lib/gcc/mingw32/3.4.2/../../../libgdi32.a(deubs00015.o)
 .idata$6       0x00a17684       0x16 c:/mingw/bin/../lib/gcc/mingw32/3.4.2/../../../libgdi32.a(deubs00033.o)
 *fill*         0x00a1769a        0x2 00
 .idata$6       0x00a1769c       0x14 c:/mingw/bin/../lib/gcc/mingw32/3.4.2/../../../libgdi32.a(deubs00038.o)
 .idata$6       0x00a176b0       0x10 c:/mingw/bin/../lib/gcc/mingw32/3.4.2/../../../libgdi32.a(deubs00055.o)
 .idata$6       0x00a176c0        0xc c:/mingw/bin/../lib/gcc/mingw32/3.4.2/../../../libgdi32.a(deubs00069.o)
 .idata$6       0x00a176cc       0x10 c:/mingw/bin/../lib/gcc/mingw32/3.4.2/../../../libgdi32.a(deubs00072.o)
 .idata$6       0x00a176dc       0x10 c:/mingw/bin/../lib/gcc/mingw32/3.4.2/../../../libgdi32.a(deubs00145.o)
 .idata$6       0x00a176ec       0x16 c:/mingw/bin/../lib/gcc/mingw32/3.4.2/../../../libgdi32.a(deubs00146.o)
 *fill*         0x00a17702        0x2 00
 .idata$6       0x00a17704       0x12 c:/mingw/bin/../lib/gcc/mingw32/3.4.2/../../../libgdi32.a(deubs00256.o)
 *fill*         0x00a17716        0x2 00
 .idata$6       0x00a17718       0x10 c:/mingw/bin/../lib/gcc/mingw32/3.4.2/../../../libgdi32.a(deubs00277.o)
 .idata$6       0x00a17728       0x10 c:/mingw/bin/../lib/gcc/mingw32/3.4.2/../../../libgdi32.a(deubs00278.o)
 .idata$6       0x00a17738       0x14 c:/mingw/bin/../lib/gcc/mingw32/3.4.2/../../../libgdi32.a(deubs00291.o)
 .idata$6       0x00a1774c       0x16 c:/mingw/bin/../lib/gcc/mingw32/3.4.2/../../../libgdi32.a(deubs00294.o)
 *fill*         0x00a17762        0x2 00
 .idata$6       0x00a17764       0x14 c:/mingw/bin/../lib/gcc/mingw32/3.4.2/../../../libgdi32.a(deubs00306.o)
 .idata$6       0x00a17778       0x12 c:/mingw/bin/../lib/gcc/mingw32/3.4.2/../../../libgdi32.a(deubs00308.o)
 *fill*         0x00a1778a        0x2 00
 .idata$6       0x00a1778c       0x16 c:/mingw/bin/../lib/gcc/mingw32/3.4.2/../../../libgdi32.a(deubs00315.o)
 *fill*         0x00a177a2        0x2 00
 .idata$6       0x00a177a4        0xc c:/mingw/bin/../lib/gcc/mingw32/3.4.2/../../../libkernel32.a(dqifs00001.o)
 .idata$6       0x00a177b0        0xe c:/mingw/bin/../lib/gcc/mingw32/3.4.2/../../../libkernel32.a(dqifs00038.o)
 *fill*         0x00a177be        0x2 00
 .idata$6       0x00a177c0       0x10 c:/mingw/bin/../lib/gcc/mingw32/3.4.2/../../../libkernel32.a(dqifs00064.o)
 .idata$6       0x00a177d0       0x14 c:/mingw/bin/../lib/gcc/mingw32/3.4.2/../../../libkernel32.a(dqifs00087.o)
 .idata$6       0x00a177e4        0xe c:/mingw/bin/../lib/gcc/mingw32/3.4.2/../../../libkernel32.a(dqifs00155.o)
 *fill*         0x00a177f2        0x2 00
 .idata$6       0x00a177f4        0xc c:/mingw/bin/../lib/gcc/mingw32/3.4.2/../../../libkernel32.a(dqifs00175.o)
 .idata$6       0x00a17800        0xc c:/mingw/bin/../lib/gcc/mingw32/3.4.2/../../../libkernel32.a(dqifs00177.o)
 .idata$6       0x00a1780c       0x12 c:/mingw/bin/../lib/gcc/mingw32/3.4.2/../../../libkernel32.a(dqifs00181.o)
 *fill*         0x00a1781e        0x2 00
 .idata$6       0x00a17820       0x10 c:/mingw/bin/../lib/gcc/mingw32/3.4.2/../../../libkernel32.a(dqifs00190.o)
 .idata$6       0x00a17830       0x12 c:/mingw/bin/../lib/gcc/mingw32/3.4.2/../../../libkernel32.a(dqifs00208.o)
 *fill*         0x00a17842        0x2 00
 .idata$6       0x00a17844        0xe c:/mingw/bin/../lib/gcc/mingw32/3.4.2/../../../libkernel32.a(dqifs00213.o)
 *fill*         0x00a17852        0x2 00
 .idata$6       0x00a17854       0x10 c:/mingw/bin/../lib/gcc/mingw32/3.4.2/../../../libkernel32.a(dqifs00220.o)
 .idata$6       0x00a17864       0x12 c:/mingw/bin/../lib/gcc/mingw32/3.4.2/../../../libkernel32.a(dqifs00236.o)
 *fill*         0x00a17876        0x2 00
 .idata$6       0x00a17878       0x14 c:/mingw/bin/../lib/gcc/mingw32/3.4.2/../../../libkernel32.a(dqifs00281.o)
 .idata$6       0x00a1788c       0x16 c:/mingw/bin/../lib/gcc/mingw32/3.4.2/../../../libkernel32.a(dqifs00306.o)
 *fill*         0x00a178a2        0x2 00
 .idata$6       0x00a178a4       0x10 c:/mingw/bin/../lib/gcc/mingw32/3.4.2/../../../libkernel32.a(dqifs00323.o)
 .idata$6       0x00a178b4       0x14 c:/mingw/bin/../lib/gcc/mingw32/3.4.2/../../../libkernel32.a(dqifs00329.o)
 .idata$6       0x00a178c8       0x14 c:/mingw/bin/../lib/gcc/mingw32/3.4.2/../../../libkernel32.a(dqifs00335.o)
 .idata$6       0x00a178dc       0x12 c:/mingw/bin/../lib/gcc/mingw32/3.4.2/../../../libkernel32.a(dqifs00362.o)
 *fill*         0x00a178ee        0x2 00
 .idata$6       0x00a178f0       0x12 c:/mingw/bin/../lib/gcc/mingw32/3.4.2/../../../libkernel32.a(dqifs00384.o)
 *fill*         0x00a17902        0x2 00
 .idata$6       0x00a17904       0x10 c:/mingw/bin/../lib/gcc/mingw32/3.4.2/../../../libkernel32.a(dqifs00431.o)
 .idata$6       0x00a17914       0x16 c:/mingw/bin/../lib/gcc/mingw32/3.4.2/../../../libkernel32.a(dqifs00458.o)
 *fill*         0x00a1792a        0x2 00
 .idata$6       0x00a1792c       0x10 c:/mingw/bin/../lib/gcc/mingw32/3.4.2/../../../libkernel32.a(dqifs00522.o)
 .idata$6       0x00a1793c       0x1a c:/mingw/bin/../lib/gcc/mingw32/3.4.2/../../../libkernel32.a(dqifs00595.o)
 *fill*         0x00a17956        0x2 00
 .idata$6       0x00a17958       0x1c c:/mingw/bin/../lib/gcc/mingw32/3.4.2/../../../libkernel32.a(dqifs00596.o)
 .idata$6       0x00a17974       0x14 c:/mingw/bin/../lib/gcc/mingw32/3.4.2/../../../libkernel32.a(dqifs00716.o)
 .idata$6       0x00a17988       0x1e c:/mingw/bin/../lib/gcc/mingw32/3.4.2/../../../libkernel32.a(dqifs00736.o)
 *fill*         0x00a179a6        0x2 00
 .idata$6       0x00a179a8       0x16 c:/mingw/bin/../lib/gcc/mingw32/3.4.2/../../../libkernel32.a(dqifs00806.o)
 *fill*         0x00a179be        0x2 00
 .idata$6       0x00a179c0        0xa c:/mingw/bin/../lib/gcc/mingw32/3.4.2/../../../libmoldname.a(duuds00000.o)
 *fill*         0x00a179ca        0x2 00
 .idata$6       0x00a179cc        0xa c:/mingw/bin/../lib/gcc/mingw32/3.4.2/../../../libmoldname.a(duuds00002.o)
 *fill*         0x00a179d6        0x2 00
 .idata$6       0x00a179d8        0xa c:/mingw/bin/../lib/gcc/mingw32/3.4.2/../../../libmoldname.a(duuds00006.o)
 *fill*         0x00a179e2        0x2 00
 .idata$6       0x00a179e4        0xa c:/mingw/bin/../lib/gcc/mingw32/3.4.2/../../../libmoldname.a(duuds00023.o)
 *fill*         0x00a179ee        0x2 00
 .idata$6       0x00a179f0        0xe c:/mingw/bin/../lib/gcc/mingw32/3.4.2/../../../libmoldname.a(duuds00026.o)
 *fill*         0x00a179fe        0x2 00
 .idata$6       0x00a17a00        0xa c:/mingw/bin/../lib/gcc/mingw32/3.4.2/../../../libmoldname.a(duuds00032.o)
 *fill*         0x00a17a0a        0x2 00
 .idata$6       0x00a17a0c        0xa c:/mingw/bin/../lib/gcc/mingw32/3.4.2/../../../libmoldname.a(duuds00037.o)
 *fill*         0x00a17a16        0x2 00
 .idata$6       0x00a17a18        0xa c:/mingw/bin/../lib/gcc/mingw32/3.4.2/../../../libmoldname.a(duuds00051.o)
 *fill*         0x00a17a22        0x2 00
 .idata$6       0x00a17a24        0xa c:/mingw/bin/../lib/gcc/mingw32/3.4.2/../../../libmoldname.a(duuds00055.o)
 *fill*         0x00a17a2e        0x2 00
 .idata$6       0x00a17a30        0x8 c:/mingw/bin/../lib/gcc/mingw32/3.4.2/../../../libmoldname.a(duuds00058.o)
 .idata$6       0x00a17a38        0x8 c:/mingw/bin/../lib/gcc/mingw32/3.4.2/../../../libmoldname.a(duuds00064.o)
 .idata$6       0x00a17a40        0x8 c:/mingw/bin/../lib/gcc/mingw32/3.4.2/../../../libmoldname.a(duuds00079.o)
 .idata$6       0x00a17a48        0xa c:/mingw/bin/../lib/gcc/mingw32/3.4.2/../../../libmoldname.a(duuds00081.o)
 *fill*         0x00a17a52        0x2 00
 .idata$6       0x00a17a54        0xa c:/mingw/bin/../lib/gcc/mingw32/3.4.2/../../../libmoldname.a(duuds00089.o)
 *fill*         0x00a17a5e        0x2 00
 .idata$6       0x00a17a60        0xa c:/mingw/bin/../lib/gcc/mingw32/3.4.2/../../../libmoldname.a(duuds00110.o)
 *fill*         0x00a17a6a        0x2 00
 .idata$6       0x00a17a6c       0x10 c:/mingw/bin/../lib/gcc/mingw32/3.4.2/../../../libmsvcrt.a(dwpds00039.o)
 .idata$6       0x00a17a7c       0x10 c:/mingw/bin/../lib/gcc/mingw32/3.4.2/../../../libmsvcrt.a(dwpds00060.o)
 .idata$6       0x00a17a8c        0xe c:/mingw/bin/../lib/gcc/mingw32/3.4.2/../../../libmsvcrt.a(dwpds00062.o)
 *fill*         0x00a17a9a        0x2 00
 .idata$6       0x00a17a9c       0x12 c:/mingw/bin/../lib/gcc/mingw32/3.4.2/../../../libmsvcrt.a(dwpds00080.o)
 *fill*         0x00a17aae        0x2 00
 .idata$6       0x00a17ab0        0xa c:/mingw/bin/../lib/gcc/mingw32/3.4.2/../../../libmsvcrt.a(dwpds00121.o)
 *fill*         0x00a17aba        0x2 00
 .idata$6       0x00a17abc        0xa c:/mingw/bin/../lib/gcc/mingw32/3.4.2/../../../libmsvcrt.a(dwpds00152.o)
 *fill*         0x00a17ac6        0x2 00
 .idata$6       0x00a17ac8        0xe c:/mingw/bin/../lib/gcc/mingw32/3.4.2/../../../libmsvcrt.a(dwpds00175.o)
 *fill*         0x00a17ad6        0x2 00
 .idata$6       0x00a17ad8        0xe c:/mingw/bin/../lib/gcc/mingw32/3.4.2/../../../libmsvcrt.a(dwpds00176.o)
 *fill*         0x00a17ae6        0x2 00
 .idata$6       0x00a17ae8        0xc c:/mingw/bin/../lib/gcc/mingw32/3.4.2/../../../libmsvcrt.a(dwpds00179.o)
 .idata$6       0x00a17af4        0xc c:/mingw/bin/../lib/gcc/mingw32/3.4.2/../../../libmsvcrt.a(dwpds00198.o)
 .idata$6       0x00a17b00        0xc c:/mingw/bin/../lib/gcc/mingw32/3.4.2/../../../libmsvcrt.a(dwpds00207.o)
 .idata$6       0x00a17b0c        0x8 c:/mingw/bin/../lib/gcc/mingw32/3.4.2/../../../libmsvcrt.a(dwpds00233.o)
 .idata$6       0x00a17b14        0xa c:/mingw/bin/../lib/gcc/mingw32/3.4.2/../../../libmsvcrt.a(dwpds00280.o)
 *fill*         0x00a17b1e        0x2 00
 .idata$6       0x00a17b20        0xa c:/mingw/bin/../lib/gcc/mingw32/3.4.2/../../../libmsvcrt.a(dwpds00350.o)
 *fill*         0x00a17b2a        0x2 00
 .idata$6       0x00a17b2c        0xc c:/mingw/bin/../lib/gcc/mingw32/3.4.2/../../../libmsvcrt.a(dwpds00388.o)
 .idata$6       0x00a17b38        0xc c:/mingw/bin/../lib/gcc/mingw32/3.4.2/../../../libmsvcrt.a(dwpds00411.o)
 .idata$6       0x00a17b44        0xc c:/mingw/bin/../lib/gcc/mingw32/3.4.2/../../../libmsvcrt.a(dwpds00415.o)
 .idata$6       0x00a17b50        0xe c:/mingw/bin/../lib/gcc/mingw32/3.4.2/../../../libmsvcrt.a(dwpds00445.o)
 *fill*         0x00a17b5e        0x2 00
 .idata$6       0x00a17b60        0x8 c:/mingw/bin/../lib/gcc/mingw32/3.4.2/../../../libmsvcrt.a(dwpds00533.o)
 .idata$6       0x00a17b68        0xa c:/mingw/bin/../lib/gcc/mingw32/3.4.2/../../../libmsvcrt.a(dwpds00540.o)
 *fill*         0x00a17b72        0x2 00
 .idata$6       0x00a17b74        0x8 c:/mingw/bin/../lib/gcc/mingw32/3.4.2/../../../libmsvcrt.a(dwpds00542.o)
 .idata$6       0x00a17b7c        0x8 c:/mingw/bin/../lib/gcc/mingw32/3.4.2/../../../libmsvcrt.a(dwpds00543.o)
 .idata$6       0x00a17b84        0xa c:/mingw/bin/../lib/gcc/mingw32/3.4.2/../../../libmsvcrt.a(dwpds00545.o)
 *fill*         0x00a17b8e        0x2 00
 .idata$6       0x00a17b90        0x6 c:/mingw/bin/../lib/gcc/mingw32/3.4.2/../../../libmsvcrt.a(dwpds00549.o)
 *fill*         0x00a17b96        0x2 00
 .idata$6       0x00a17b98        0x8 c:/mingw/bin/../lib/gcc/mingw32/3.4.2/../../../libmsvcrt.a(dwpds00554.o)
 .idata$6       0x00a17ba0        0xa c:/mingw/bin/../lib/gcc/mingw32/3.4.2/../../../libmsvcrt.a(dwpds00557.o)
 *fill*         0x00a17baa        0x2 00
 .idata$6       0x00a17bac        0xa c:/mingw/bin/../lib/gcc/mingw32/3.4.2/../../../libmsvcrt.a(dwpds00560.o)
 *fill*         0x00a17bb6        0x2 00
 .idata$6       0x00a17bb8        0x8 c:/mingw/bin/../lib/gcc/mingw32/3.4.2/../../../libmsvcrt.a(dwpds00563.o)
 .idata$6       0x00a17bc0        0x8 c:/mingw/bin/../lib/gcc/mingw32/3.4.2/../../../libmsvcrt.a(dwpds00566.o)
 .idata$6       0x00a17bc8        0x8 c:/mingw/bin/../lib/gcc/mingw32/3.4.2/../../../libmsvcrt.a(dwpds00568.o)
 .idata$6       0x00a17bd0        0xa c:/mingw/bin/../lib/gcc/mingw32/3.4.2/../../../libmsvcrt.a(dwpds00569.o)
 *fill*         0x00a17bda        0x2 00
 .idata$6       0x00a17bdc        0x8 c:/mingw/bin/../lib/gcc/mingw32/3.4.2/../../../libmsvcrt.a(dwpds00570.o)
 .idata$6       0x00a17be4        0x8 c:/mingw/bin/../lib/gcc/mingw32/3.4.2/../../../libmsvcrt.a(dwpds00571.o)
 .idata$6       0x00a17bec        0x8 c:/mingw/bin/../lib/gcc/mingw32/3.4.2/../../../libmsvcrt.a(dwpds00574.o)
 .idata$6       0x00a17bf4        0x8 c:/mingw/bin/../lib/gcc/mingw32/3.4.2/../../../libmsvcrt.a(dwpds00575.o)
 .idata$6       0x00a17bfc        0xa c:/mingw/bin/../lib/gcc/mingw32/3.4.2/../../../libmsvcrt.a(dwpds00576.o)
 *fill*         0x00a17c06        0x2 00
 .idata$6       0x00a17c08        0x8 c:/mingw/bin/../lib/gcc/mingw32/3.4.2/../../../libmsvcrt.a(dwpds00579.o)
 .idata$6       0x00a17c10        0x8 c:/mingw/bin/../lib/gcc/mingw32/3.4.2/../../../libmsvcrt.a(dwpds00581.o)
 .idata$6       0x00a17c18        0xa c:/mingw/bin/../lib/gcc/mingw32/3.4.2/../../../libmsvcrt.a(dwpds00583.o)
 *fill*         0x00a17c22        0x2 00
 .idata$6       0x00a17c24        0xa c:/mingw/bin/../lib/gcc/mingw32/3.4.2/../../../libmsvcrt.a(dwpds00587.o)
 *fill*         0x00a17c2e        0x2 00
 .idata$6       0x00a17c30        0x8 c:/mingw/bin/../lib/gcc/mingw32/3.4.2/../../../libmsvcrt.a(dwpds00620.o)
 .idata$6       0x00a17c38        0xa c:/mingw/bin/../lib/gcc/mingw32/3.4.2/../../../libmsvcrt.a(dwpds00626.o)
 *fill*         0x00a17c42        0x2 00
 .idata$6       0x00a17c44        0xa c:/mingw/bin/../lib/gcc/mingw32/3.4.2/../../../libmsvcrt.a(dwpds00632.o)
 *fill*         0x00a17c4e        0x2 00
 .idata$6       0x00a17c50        0xa c:/mingw/bin/../lib/gcc/mingw32/3.4.2/../../../libmsvcrt.a(dwpds00633.o)
 *fill*         0x00a17c5a        0x2 00
 .idata$6       0x00a17c5c        0xa c:/mingw/bin/../lib/gcc/mingw32/3.4.2/../../../libmsvcrt.a(dwpds00634.o)
 *fill*         0x00a17c66        0x2 00
 .idata$6       0x00a17c68        0x6 c:/mingw/bin/../lib/gcc/mingw32/3.4.2/../../../libmsvcrt.a(dwpds00638.o)
 *fill*         0x00a17c6e        0x2 00
 .idata$6       0x00a17c70        0xa c:/mingw/bin/../lib/gcc/mingw32/3.4.2/../../../libmsvcrt.a(dwpds00639.o)
 *fill*         0x00a17c7a        0x2 00
 .idata$6       0x00a17c7c        0x8 c:/mingw/bin/../lib/gcc/mingw32/3.4.2/../../../libmsvcrt.a(dwpds00642.o)
 .idata$6       0x00a17c84        0x8 c:/mingw/bin/../lib/gcc/mingw32/3.4.2/../../../libmsvcrt.a(dwpds00645.o)
 .idata$6       0x00a17c8c        0x8 c:/mingw/bin/../lib/gcc/mingw32/3.4.2/../../../libmsvcrt.a(dwpds00647.o)
 .idata$6       0x00a17c94        0xa c:/mingw/bin/../lib/gcc/mingw32/3.4.2/../../../libmsvcrt.a(dwpds00648.o)
 *fill*         0x00a17c9e        0x2 00
 .idata$6       0x00a17ca0        0xa c:/mingw/bin/../lib/gcc/mingw32/3.4.2/../../../libmsvcrt.a(dwpds00651.o)
 *fill*         0x00a17caa        0x2 00
 .idata$6       0x00a17cac        0xa c:/mingw/bin/../lib/gcc/mingw32/3.4.2/../../../libmsvcrt.a(dwpds00655.o)
 *fill*         0x00a17cb6        0x2 00
 .idata$6       0x00a17cb8        0xa c:/mingw/bin/../lib/gcc/mingw32/3.4.2/../../../libmsvcrt.a(dwpds00656.o)
 *fill*         0x00a17cc2        0x2 00
 .idata$6       0x00a17cc4        0x6 c:/mingw/bin/../lib/gcc/mingw32/3.4.2/../../../libmsvcrt.a(dwpds00657.o)
 *fill*         0x00a17cca        0x2 00
 .idata$6       0x00a17ccc        0xa c:/mingw/bin/../lib/gcc/mingw32/3.4.2/../../../libmsvcrt.a(dwpds00659.o)
 *fill*         0x00a17cd6        0x2 00
 .idata$6       0x00a17cd8        0x8 c:/mingw/bin/../lib/gcc/mingw32/3.4.2/../../../libmsvcrt.a(dwpds00660.o)
 .idata$6       0x00a17ce0        0xa c:/mingw/bin/../lib/gcc/mingw32/3.4.2/../../../libmsvcrt.a(dwpds00663.o)
 *fill*         0x00a17cea        0x2 00
 .idata$6       0x00a17cec        0xa c:/mingw/bin/../lib/gcc/mingw32/3.4.2/../../../libmsvcrt.a(dwpds00664.o)
 *fill*         0x00a17cf6        0x2 00
 .idata$6       0x00a17cf8        0xa c:/mingw/bin/../lib/gcc/mingw32/3.4.2/../../../libmsvcrt.a(dwpds00665.o)
 *fill*         0x00a17d02        0x2 00
 .idata$6       0x00a17d04        0xa c:/mingw/bin/../lib/gcc/mingw32/3.4.2/../../../libmsvcrt.a(dwpds00667.o)
 *fill*         0x00a17d0e        0x2 00
 .idata$6       0x00a17d10        0xa c:/mingw/bin/../lib/gcc/mingw32/3.4.2/../../../libmsvcrt.a(dwpds00671.o)
 *fill*         0x00a17d1a        0x2 00
 .idata$6       0x00a17d1c        0xa c:/mingw/bin/../lib/gcc/mingw32/3.4.2/../../../libmsvcrt.a(dwpds00674.o)
 *fill*         0x00a17d26        0x2 00
 .idata$6       0x00a17d28        0xa c:/mingw/bin/../lib/gcc/mingw32/3.4.2/../../../libmsvcrt.a(dwpds00676.o)
 *fill*         0x00a17d32        0x2 00
 .idata$6       0x00a17d34        0xa c:/mingw/bin/../lib/gcc/mingw32/3.4.2/../../../libmsvcrt.a(dwpds00679.o)
 *fill*         0x00a17d3e        0x2 00
 .idata$6       0x00a17d40        0xa c:/mingw/bin/../lib/gcc/mingw32/3.4.2/../../../libmsvcrt.a(dwpds00681.o)
 *fill*         0x00a17d4a        0x2 00
 .idata$6       0x00a17d4c        0xa c:/mingw/bin/../lib/gcc/mingw32/3.4.2/../../../libmsvcrt.a(dwpds00682.o)
 *fill*         0x00a17d56        0x2 00
 .idata$6       0x00a17d58        0xa c:/mingw/bin/../lib/gcc/mingw32/3.4.2/../../../libmsvcrt.a(dwpds00693.o)
 *fill*         0x00a17d62        0x2 00
 .idata$6       0x00a17d64        0xc c:/mingw/bin/../lib/gcc/mingw32/3.4.2/../../../libmsvcrt.a(dwpds00701.o)
 .idata$6       0x00a17d70       0x1a c:/mingw/bin/../lib/gcc/mingw32/3.4.2/../../../libshell32.a(dsjes00104.o)
 *fill*         0x00a17d8a        0x2 00
 .idata$6       0x00a17d8c       0x14 c:/mingw/bin/../lib/gcc/mingw32/3.4.2/../../../libuser32.a(dgdfs00001.o)
 .idata$6       0x00a17da0       0x1a c:/mingw/bin/../lib/gcc/mingw32/3.4.2/../../../libuser32.a(dgdfs00029.o)
 *fill*         0x00a17dba        0x2 00
 .idata$6       0x00a17dbc        0xe c:/mingw/bin/../lib/gcc/mingw32/3.4.2/../../../libuser32.a(dgdfs00045.o)
 *fill*         0x00a17dca        0x2 00
 .idata$6       0x00a17dcc       0x16 c:/mingw/bin/../lib/gcc/mingw32/3.4.2/../../../libuser32.a(dgdfs00079.o)
 *fill*         0x00a17de2        0x2 00
 .idata$6       0x00a17de4       0x12 c:/mingw/bin/../lib/gcc/mingw32/3.4.2/../../../libuser32.a(dgdfs00089.o)
 *fill*         0x00a17df6        0x2 00
 .idata$6       0x00a17df8       0x12 c:/mingw/bin/../lib/gcc/mingw32/3.4.2/../../../libuser32.a(dgdfs00133.o)
 *fill*         0x00a17e0a        0x2 00
 .idata$6       0x00a17e0c       0x10 c:/mingw/bin/../lib/gcc/mingw32/3.4.2/../../../libuser32.a(dgdfs00143.o)
 .idata$6       0x00a17e1c       0x14 c:/mingw/bin/../lib/gcc/mingw32/3.4.2/../../../libuser32.a(dgdfs00148.o)
 .idata$6       0x00a17e30       0x10 c:/mingw/bin/../lib/gcc/mingw32/3.4.2/../../../libuser32.a(dgdfs00179.o)
 .idata$6       0x00a17e40       0x18 c:/mingw/bin/../lib/gcc/mingw32/3.4.2/../../../libuser32.a(dgdfs00193.o)
 .idata$6       0x00a17e58       0x10 c:/mingw/bin/../lib/gcc/mingw32/3.4.2/../../../libuser32.a(dgdfs00235.o)
 .idata$6       0x00a17e68        0x8 c:/mingw/bin/../lib/gcc/mingw32/3.4.2/../../../libuser32.a(dgdfs00247.o)
 .idata$6       0x00a17e70       0x10 c:/mingw/bin/../lib/gcc/mingw32/3.4.2/../../../libuser32.a(dgdfs00251.o)
 .idata$6       0x00a17e80        0xe c:/mingw/bin/../lib/gcc/mingw32/3.4.2/../../../libuser32.a(dgdfs00252.o)
 *fill*         0x00a17e8e        0x2 00
 .idata$6       0x00a17e90        0xe c:/mingw/bin/../lib/gcc/mingw32/3.4.2/../../../libuser32.a(dgdfs00267.o)
 *fill*         0x00a17e9e        0x2 00
 .idata$6       0x00a17ea0        0xe c:/mingw/bin/../lib/gcc/mingw32/3.4.2/../../../libuser32.a(dgdfs00322.o)
 *fill*         0x00a17eae        0x2 00
 .idata$6       0x00a17eb0       0x14 c:/mingw/bin/../lib/gcc/mingw32/3.4.2/../../../libuser32.a(dgdfs00323.o)
 .idata$6       0x00a17ec4       0x14 c:/mingw/bin/../lib/gcc/mingw32/3.4.2/../../../libuser32.a(dgdfs00325.o)
 .idata$6       0x00a17ed8       0x12 c:/mingw/bin/../lib/gcc/mingw32/3.4.2/../../../libuser32.a(dgdfs00340.o)
 *fill*         0x00a17eea        0x2 00
 .idata$6       0x00a17eec       0x10 c:/mingw/bin/../lib/gcc/mingw32/3.4.2/../../../libuser32.a(dgdfs00346.o)
 .idata$6       0x00a17efc       0x14 c:/mingw/bin/../lib/gcc/mingw32/3.4.2/../../../libuser32.a(dgdfs00381.o)
 .idata$6       0x00a17f10        0xc c:/mingw/bin/../lib/gcc/mingw32/3.4.2/../../../libuser32.a(dgdfs00390.o)
 .idata$6       0x00a17f1c        0xe c:/mingw/bin/../lib/gcc/mingw32/3.4.2/../../../libuser32.a(dgdfs00399.o)
 *fill*         0x00a17f2a        0x2 00
 .idata$6       0x00a17f2c        0xe c:/mingw/bin/../lib/gcc/mingw32/3.4.2/../../../libuser32.a(dgdfs00401.o)
 *fill*         0x00a17f3a        0x2 00
 .idata$6       0x00a17f3c        0xe c:/mingw/bin/../lib/gcc/mingw32/3.4.2/../../../libuser32.a(dgdfs00407.o)
 *fill*         0x00a17f4a        0x2 00
 .idata$6       0x00a17f4c        0xe c:/mingw/bin/../lib/gcc/mingw32/3.4.2/../../../libuser32.a(dgdfs00430.o)
 *fill*         0x00a17f5a        0x2 00
 .idata$6       0x00a17f5c        0xe c:/mingw/bin/../lib/gcc/mingw32/3.4.2/../../../libuser32.a(dgdfs00441.o)
 *fill*         0x00a17f6a        0x2 00
 .idata$6       0x00a17f6c       0x1c c:/mingw/bin/../lib/gcc/mingw32/3.4.2/../../../libuser32.a(dgdfs00442.o)
 .idata$6       0x00a17f88       0x10 c:/mingw/bin/../lib/gcc/mingw32/3.4.2/../../../libuser32.a(dgdfs00460.o)
 .idata$6       0x00a17f98       0x14 c:/mingw/bin/../lib/gcc/mingw32/3.4.2/../../../libuser32.a(dgdfs00476.o)
 .idata$6       0x00a17fac       0x12 c:/mingw/bin/../lib/gcc/mingw32/3.4.2/../../../libuser32.a(dgdfs00483.o)
 *fill*         0x00a17fbe        0x2 00
 .idata$6       0x00a17fc0        0xc c:/mingw/bin/../lib/gcc/mingw32/3.4.2/../../../libuser32.a(dgdfs00488.o)
 .idata$6       0x00a17fcc       0x16 c:/mingw/bin/../lib/gcc/mingw32/3.4.2/../../../libuser32.a(dgdfs00499.o)
 *fill*         0x00a17fe2        0x2 00
 .idata$6       0x00a17fe4       0x10 c:/mingw/bin/../lib/gcc/mingw32/3.4.2/../../../libuser32.a(dgdfs00502.o)
 .idata$6       0x00a17ff4        0xc c:/mingw/bin/../lib/gcc/mingw32/3.4.2/../../../libuser32.a(dgdfs00527.o)
 .idata$6       0x00a18000       0x16 c:/mingw/bin/../lib/gcc/mingw32/3.4.2/../../../libuser32.a(dgdfs00528.o)
 *fill*         0x00a18016        0x2 00
 .idata$6       0x00a18018       0x10 c:/mingw/bin/../lib/gcc/mingw32/3.4.2/../../../libuser32.a(dgdfs00552.o)
 .idata$6       0x00a18028       0x12 c:/mingw/bin/../lib/gcc/mingw32/3.4.2/../../../libuser32.a(dgdfs00563.o)
 *fill*         0x00a1803a        0x2 00
 .idata$6       0x00a1803c       0x10 c:/mingw/bin/../lib/gcc/mingw32/3.4.2/../../../libuser32.a(dgdfs00566.o)
 .idata$6       0x00a1804c       0x12 c:/mingw/bin/../lib/gcc/mingw32/3.4.2/../../../libuser32.a(dgdfs00568.o)
 *fill*         0x00a1805e        0x2 00
 .idata$6       0x00a18060        0xe c:/mingw/bin/../lib/gcc/mingw32/3.4.2/../../../libuser32.a(dgdfs00579.o)
 *fill*         0x00a1806e        0x2 00
 .idata$6       0x00a18070       0x14 c:/mingw/bin/../lib/gcc/mingw32/3.4.2/../../../libuser32.a(dgdfs00602.o)
 .idata$6       0x00a18084       0x14 c:/mingw/bin/../lib/gcc/mingw32/3.4.2/../../../libuser32.a(dgdfs00612.o)
 .idata$6       0x00a18098       0x10 c:/mingw/bin/../lib/gcc/mingw32/3.4.2/../../../libuser32.a(dgdfs00614.o)
 .idata$6       0x00a180a8        0xc c:/mingw/bin/../lib/gcc/mingw32/3.4.2/../../../libuser32.a(dgdfs00633.o)
 SORT(*)(.idata$7)
 .idata$7       0x00a180b4        0x4 c:/mingw/bin/../lib/gcc/mingw32/3.4.2/../../../libgdi32.a(deubs00012.o)
 .idata$7       0x00a180b8        0x4 c:/mingw/bin/../lib/gcc/mingw32/3.4.2/../../../libgdi32.a(deubs00015.o)
 .idata$7       0x00a180bc        0x4 c:/mingw/bin/../lib/gcc/mingw32/3.4.2/../../../libgdi32.a(deubs00033.o)
 .idata$7       0x00a180c0        0x4 c:/mingw/bin/../lib/gcc/mingw32/3.4.2/../../../libgdi32.a(deubs00038.o)
 .idata$7       0x00a180c4        0x4 c:/mingw/bin/../lib/gcc/mingw32/3.4.2/../../../libgdi32.a(deubs00055.o)
 .idata$7       0x00a180c8        0x4 c:/mingw/bin/../lib/gcc/mingw32/3.4.2/../../../libgdi32.a(deubs00069.o)
 .idata$7       0x00a180cc        0x4 c:/mingw/bin/../lib/gcc/mingw32/3.4.2/../../../libgdi32.a(deubs00072.o)
 .idata$7       0x00a180d0        0x4 c:/mingw/bin/../lib/gcc/mingw32/3.4.2/../../../libgdi32.a(deubs00145.o)
 .idata$7       0x00a180d4        0x4 c:/mingw/bin/../lib/gcc/mingw32/3.4.2/../../../libgdi32.a(deubs00146.o)
 .idata$7       0x00a180d8        0x4 c:/mingw/bin/../lib/gcc/mingw32/3.4.2/../../../libgdi32.a(deubs00256.o)
 .idata$7       0x00a180dc        0x4 c:/mingw/bin/../lib/gcc/mingw32/3.4.2/../../../libgdi32.a(deubs00277.o)
 .idata$7       0x00a180e0        0x4 c:/mingw/bin/../lib/gcc/mingw32/3.4.2/../../../libgdi32.a(deubs00278.o)
 .idata$7       0x00a180e4        0x4 c:/mingw/bin/../lib/gcc/mingw32/3.4.2/../../../libgdi32.a(deubs00291.o)
 .idata$7       0x00a180e8        0x4 c:/mingw/bin/../lib/gcc/mingw32/3.4.2/../../../libgdi32.a(deubs00294.o)
 .idata$7       0x00a180ec        0x4 c:/mingw/bin/../lib/gcc/mingw32/3.4.2/../../../libgdi32.a(deubs00306.o)
 .idata$7       0x00a180f0        0x4 c:/mingw/bin/../lib/gcc/mingw32/3.4.2/../../../libgdi32.a(deubs00308.o)
 .idata$7       0x00a180f4        0x4 c:/mingw/bin/../lib/gcc/mingw32/3.4.2/../../../libgdi32.a(deubs00315.o)
 .idata$7       0x00a180f8        0xc c:/mingw/bin/../lib/gcc/mingw32/3.4.2/../../../libgdi32.a(deubt.o)
                0x00a180f8                _libgdi32_a_iname
 .idata$7       0x00a18104        0x4 c:/mingw/bin/../lib/gcc/mingw32/3.4.2/../../../libkernel32.a(dqifs00001.o)
 .idata$7       0x00a18108        0x4 c:/mingw/bin/../lib/gcc/mingw32/3.4.2/../../../libkernel32.a(dqifs00038.o)
 .idata$7       0x00a1810c        0x4 c:/mingw/bin/../lib/gcc/mingw32/3.4.2/../../../libkernel32.a(dqifs00064.o)
 .idata$7       0x00a18110        0x4 c:/mingw/bin/../lib/gcc/mingw32/3.4.2/../../../libkernel32.a(dqifs00087.o)
 .idata$7       0x00a18114        0x4 c:/mingw/bin/../lib/gcc/mingw32/3.4.2/../../../libkernel32.a(dqifs00155.o)
 .idata$7       0x00a18118        0x4 c:/mingw/bin/../lib/gcc/mingw32/3.4.2/../../../libkernel32.a(dqifs00175.o)
 .idata$7       0x00a1811c        0x4 c:/mingw/bin/../lib/gcc/mingw32/3.4.2/../../../libkernel32.a(dqifs00177.o)
 .idata$7       0x00a18120        0x4 c:/mingw/bin/../lib/gcc/mingw32/3.4.2/../../../libkernel32.a(dqifs00181.o)
 .idata$7       0x00a18124        0x4 c:/mingw/bin/../lib/gcc/mingw32/3.4.2/../../../libkernel32.a(dqifs00190.o)
 .idata$7       0x00a18128        0x4 c:/mingw/bin/../lib/gcc/mingw32/3.4.2/../../../libkernel32.a(dqifs00208.o)
 .idata$7       0x00a1812c        0x4 c:/mingw/bin/../lib/gcc/mingw32/3.4.2/../../../libkernel32.a(dqifs00213.o)
 .idata$7       0x00a18130        0x4 c:/mingw/bin/../lib/gcc/mingw32/3.4.2/../../../libkernel32.a(dqifs00220.o)
 .idata$7       0x00a18134        0x4 c:/mingw/bin/../lib/gcc/mingw32/3.4.2/../../../libkernel32.a(dqifs00236.o)
 .idata$7       0x00a18138        0x4 c:/mingw/bin/../lib/gcc/mingw32/3.4.2/../../../libkernel32.a(dqifs00281.o)
 .idata$7       0x00a1813c        0x4 c:/mingw/bin/../lib/gcc/mingw32/3.4.2/../../../libkernel32.a(dqifs00306.o)
 .idata$7       0x00a18140        0x4 c:/mingw/bin/../lib/gcc/mingw32/3.4.2/../../../libkernel32.a(dqifs00323.o)
 .idata$7       0x00a18144        0x4 c:/mingw/bin/../lib/gcc/mingw32/3.4.2/../../../libkernel32.a(dqifs00329.o)
 .idata$7       0x00a18148        0x4 c:/mingw/bin/../lib/gcc/mingw32/3.4.2/../../../libkernel32.a(dqifs00335.o)
 .idata$7       0x00a1814c        0x4 c:/mingw/bin/../lib/gcc/mingw32/3.4.2/../../../libkernel32.a(dqifs00362.o)
 .idata$7       0x00a18150        0x4 c:/mingw/bin/../lib/gcc/mingw32/3.4.2/../../../libkernel32.a(dqifs00384.o)
 .idata$7       0x00a18154        0x4 c:/mingw/bin/../lib/gcc/mingw32/3.4.2/../../../libkernel32.a(dqifs00431.o)
 .idata$7       0x00a18158        0x4 c:/mingw/bin/../lib/gcc/mingw32/3.4.2/../../../libkernel32.a(dqifs00458.o)
 .idata$7       0x00a1815c        0x4 c:/mingw/bin/../lib/gcc/mingw32/3.4.2/../../../libkernel32.a(dqifs00522.o)
 .idata$7       0x00a18160        0x4 c:/mingw/bin/../lib/gcc/mingw32/3.4.2/../../../libkernel32.a(dqifs00595.o)
 .idata$7       0x00a18164        0x4 c:/mingw/bin/../lib/gcc/mingw32/3.4.2/../../../libkernel32.a(dqifs00596.o)
 .idata$7       0x00a18168        0x4 c:/mingw/bin/../lib/gcc/mingw32/3.4.2/../../../libkernel32.a(dqifs00716.o)
 .idata$7       0x00a1816c        0x4 c:/mingw/bin/../lib/gcc/mingw32/3.4.2/../../../libkernel32.a(dqifs00736.o)
 .idata$7       0x00a18170        0x4 c:/mingw/bin/../lib/gcc/mingw32/3.4.2/../../../libkernel32.a(dqifs00806.o)
 .idata$7       0x00a18174       0x10 c:/mingw/bin/../lib/gcc/mingw32/3.4.2/../../../libkernel32.a(dqift.o)
                0x00a18174                _libkernel32_a_iname
 .idata$7       0x00a18184        0x4 c:/mingw/bin/../lib/gcc/mingw32/3.4.2/../../../libmoldname.a(duuds00000.o)
 .idata$7       0x00a18188        0x4 c:/mingw/bin/../lib/gcc/mingw32/3.4.2/../../../libmoldname.a(duuds00002.o)
 .idata$7       0x00a1818c        0x4 c:/mingw/bin/../lib/gcc/mingw32/3.4.2/../../../libmoldname.a(duuds00006.o)
 .idata$7       0x00a18190        0x4 c:/mingw/bin/../lib/gcc/mingw32/3.4.2/../../../libmoldname.a(duuds00023.o)
 .idata$7       0x00a18194        0x4 c:/mingw/bin/../lib/gcc/mingw32/3.4.2/../../../libmoldname.a(duuds00026.o)
 .idata$7       0x00a18198        0x4 c:/mingw/bin/../lib/gcc/mingw32/3.4.2/../../../libmoldname.a(duuds00032.o)
 .idata$7       0x00a1819c        0x4 c:/mingw/bin/../lib/gcc/mingw32/3.4.2/../../../libmoldname.a(duuds00037.o)
 .idata$7       0x00a181a0        0x4 c:/mingw/bin/../lib/gcc/mingw32/3.4.2/../../../libmoldname.a(duuds00051.o)
 .idata$7       0x00a181a4        0x4 c:/mingw/bin/../lib/gcc/mingw32/3.4.2/../../../libmoldname.a(duuds00055.o)
 .idata$7       0x00a181a8        0x4 c:/mingw/bin/../lib/gcc/mingw32/3.4.2/../../../libmoldname.a(duuds00058.o)
 .idata$7       0x00a181ac        0x4 c:/mingw/bin/../lib/gcc/mingw32/3.4.2/../../../libmoldname.a(duuds00064.o)
 .idata$7       0x00a181b0        0x4 c:/mingw/bin/../lib/gcc/mingw32/3.4.2/../../../libmoldname.a(duuds00079.o)
 .idata$7       0x00a181b4        0x4 c:/mingw/bin/../lib/gcc/mingw32/3.4.2/../../../libmoldname.a(duuds00081.o)
 .idata$7       0x00a181b8        0x4 c:/mingw/bin/../lib/gcc/mingw32/3.4.2/../../../libmoldname.a(duuds00089.o)
 .idata$7       0x00a181bc        0x4 c:/mingw/bin/../lib/gcc/mingw32/3.4.2/../../../libmoldname.a(duuds00110.o)
 .idata$7       0x00a181c0        0xc c:/mingw/bin/../lib/gcc/mingw32/3.4.2/../../../libmoldname.a(duudt.o)
                0x00a181c0                _libmoldname_a_iname
 .idata$7       0x00a181cc        0x4 c:/mingw/bin/../lib/gcc/mingw32/3.4.2/../../../libmsvcrt.a(dwpds00039.o)
 .idata$7       0x00a181d0        0x4 c:/mingw/bin/../lib/gcc/mingw32/3.4.2/../../../libmsvcrt.a(dwpds00060.o)
 .idata$7       0x00a181d4        0x4 c:/mingw/bin/../lib/gcc/mingw32/3.4.2/../../../libmsvcrt.a(dwpds00062.o)
 .idata$7       0x00a181d8        0x4 c:/mingw/bin/../lib/gcc/mingw32/3.4.2/../../../libmsvcrt.a(dwpds00080.o)
 .idata$7       0x00a181dc        0x4 c:/mingw/bin/../lib/gcc/mingw32/3.4.2/../../../libmsvcrt.a(dwpds00121.o)
 .idata$7       0x00a181e0        0x4 c:/mingw/bin/../lib/gcc/mingw32/3.4.2/../../../libmsvcrt.a(dwpds00152.o)
 .idata$7       0x00a181e4        0x4 c:/mingw/bin/../lib/gcc/mingw32/3.4.2/../../../libmsvcrt.a(dwpds00175.o)
 .idata$7       0x00a181e8        0x4 c:/mingw/bin/../lib/gcc/mingw32/3.4.2/../../../libmsvcrt.a(dwpds00176.o)
 .idata$7       0x00a181ec        0x4 c:/mingw/bin/../lib/gcc/mingw32/3.4.2/../../../libmsvcrt.a(dwpds00179.o)
 .idata$7       0x00a181f0        0x4 c:/mingw/bin/../lib/gcc/mingw32/3.4.2/../../../libmsvcrt.a(dwpds00198.o)
 .idata$7       0x00a181f4        0x4 c:/mingw/bin/../lib/gcc/mingw32/3.4.2/../../../libmsvcrt.a(dwpds00207.o)
 .idata$7       0x00a181f8        0x4 c:/mingw/bin/../lib/gcc/mingw32/3.4.2/../../../libmsvcrt.a(dwpds00233.o)
 .idata$7       0x00a181fc        0x4 c:/mingw/bin/../lib/gcc/mingw32/3.4.2/../../../libmsvcrt.a(dwpds00280.o)
 .idata$7       0x00a18200        0x4 c:/mingw/bin/../lib/gcc/mingw32/3.4.2/../../../libmsvcrt.a(dwpds00350.o)
 .idata$7       0x00a18204        0x4 c:/mingw/bin/../lib/gcc/mingw32/3.4.2/../../../libmsvcrt.a(dwpds00388.o)
 .idata$7       0x00a18208        0x4 c:/mingw/bin/../lib/gcc/mingw32/3.4.2/../../../libmsvcrt.a(dwpds00411.o)
 .idata$7       0x00a1820c        0x4 c:/mingw/bin/../lib/gcc/mingw32/3.4.2/../../../libmsvcrt.a(dwpds00415.o)
 .idata$7       0x00a18210        0x4 c:/mingw/bin/../lib/gcc/mingw32/3.4.2/../../../libmsvcrt.a(dwpds00445.o)
 .idata$7       0x00a18214        0x4 c:/mingw/bin/../lib/gcc/mingw32/3.4.2/../../../libmsvcrt.a(dwpds00533.o)
 .idata$7       0x00a18218        0x4 c:/mingw/bin/../lib/gcc/mingw32/3.4.2/../../../libmsvcrt.a(dwpds00540.o)
 .idata$7       0x00a1821c        0x4 c:/mingw/bin/../lib/gcc/mingw32/3.4.2/../../../libmsvcrt.a(dwpds00542.o)
 .idata$7       0x00a18220        0x4 c:/mingw/bin/../lib/gcc/mingw32/3.4.2/../../../libmsvcrt.a(dwpds00543.o)
 .idata$7       0x00a18224        0x4 c:/mingw/bin/../lib/gcc/mingw32/3.4.2/../../../libmsvcrt.a(dwpds00545.o)
 .idata$7       0x00a18228        0x4 c:/mingw/bin/../lib/gcc/mingw32/3.4.2/../../../libmsvcrt.a(dwpds00549.o)
 .idata$7       0x00a1822c        0x4 c:/mingw/bin/../lib/gcc/mingw32/3.4.2/../../../libmsvcrt.a(dwpds00554.o)
 .idata$7       0x00a18230        0x4 c:/mingw/bin/../lib/gcc/mingw32/3.4.2/../../../libmsvcrt.a(dwpds00557.o)
 .idata$7       0x00a18234        0x4 c:/mingw/bin/../lib/gcc/mingw32/3.4.2/../../../libmsvcrt.a(dwpds00560.o)
 .idata$7       0x00a18238        0x4 c:/mingw/bin/../lib/gcc/mingw32/3.4.2/../../../libmsvcrt.a(dwpds00563.o)
 .idata$7       0x00a1823c        0x4 c:/mingw/bin/../lib/gcc/mingw32/3.4.2/../../../libmsvcrt.a(dwpds00566.o)
 .idata$7       0x00a18240        0x4 c:/mingw/bin/../lib/gcc/mingw32/3.4.2/../../../libmsvcrt.a(dwpds00568.o)
 .idata$7       0x00a18244        0x4 c:/mingw/bin/../lib/gcc/mingw32/3.4.2/../../../libmsvcrt.a(dwpds00569.o)
 .idata$7       0x00a18248        0x4 c:/mingw/bin/../lib/gcc/mingw32/3.4.2/../../../libmsvcrt.a(dwpds00570.o)
 .idata$7       0x00a1824c        0x4 c:/mingw/bin/../lib/gcc/mingw32/3.4.2/../../../libmsvcrt.a(dwpds00571.o)
 .idata$7       0x00a18250        0x4 c:/mingw/bin/../lib/gcc/mingw32/3.4.2/../../../libmsvcrt.a(dwpds00574.o)
 .idata$7       0x00a18254        0x4 c:/mingw/bin/../lib/gcc/mingw32/3.4.2/../../../libmsvcrt.a(dwpds00575.o)
 .idata$7       0x00a18258        0x4 c:/mingw/bin/../lib/gcc/mingw32/3.4.2/../../../libmsvcrt.a(dwpds00576.o)
 .idata$7       0x00a1825c        0x4 c:/mingw/bin/../lib/gcc/mingw32/3.4.2/../../../libmsvcrt.a(dwpds00579.o)
 .idata$7       0x00a18260        0x4 c:/mingw/bin/../lib/gcc/mingw32/3.4.2/../../../libmsvcrt.a(dwpds00581.o)
 .idata$7       0x00a18264        0x4 c:/mingw/bin/../lib/gcc/mingw32/3.4.2/../../../libmsvcrt.a(dwpds00583.o)
 .idata$7       0x00a18268        0x4 c:/mingw/bin/../lib/gcc/mingw32/3.4.2/../../../libmsvcrt.a(dwpds00587.o)
 .idata$7       0x00a1826c        0x4 c:/mingw/bin/../lib/gcc/mingw32/3.4.2/../../../libmsvcrt.a(dwpds00620.o)
 .idata$7       0x00a18270        0x4 c:/mingw/bin/../lib/gcc/mingw32/3.4.2/../../../libmsvcrt.a(dwpds00626.o)
 .idata$7       0x00a18274        0x4 c:/mingw/bin/../lib/gcc/mingw32/3.4.2/../../../libmsvcrt.a(dwpds00632.o)
 .idata$7       0x00a18278        0x4 c:/mingw/bin/../lib/gcc/mingw32/3.4.2/../../../libmsvcrt.a(dwpds00633.o)
 .idata$7       0x00a1827c        0x4 c:/mingw/bin/../lib/gcc/mingw32/3.4.2/../../../libmsvcrt.a(dwpds00634.o)
 .idata$7       0x00a18280        0x4 c:/mingw/bin/../lib/gcc/mingw32/3.4.2/../../../libmsvcrt.a(dwpds00638.o)
 .idata$7       0x00a18284        0x4 c:/mingw/bin/../lib/gcc/mingw32/3.4.2/../../../libmsvcrt.a(dwpds00639.o)
 .idata$7       0x00a18288        0x4 c:/mingw/bin/../lib/gcc/mingw32/3.4.2/../../../libmsvcrt.a(dwpds00642.o)
 .idata$7       0x00a1828c        0x4 c:/mingw/bin/../lib/gcc/mingw32/3.4.2/../../../libmsvcrt.a(dwpds00645.o)
 .idata$7       0x00a18290        0x4 c:/mingw/bin/../lib/gcc/mingw32/3.4.2/../../../libmsvcrt.a(dwpds00647.o)
 .idata$7       0x00a18294        0x4 c:/mingw/bin/../lib/gcc/mingw32/3.4.2/../../../libmsvcrt.a(dwpds00648.o)
 .idata$7       0x00a18298        0x4 c:/mingw/bin/../lib/gcc/mingw32/3.4.2/../../../libmsvcrt.a(dwpds00651.o)
 .idata$7       0x00a1829c        0x4 c:/mingw/bin/../lib/gcc/mingw32/3.4.2/../../../libmsvcrt.a(dwpds00655.o)
 .idata$7       0x00a182a0        0x4 c:/mingw/bin/../lib/gcc/mingw32/3.4.2/../../../libmsvcrt.a(dwpds00656.o)
 .idata$7       0x00a182a4        0x4 c:/mingw/bin/../lib/gcc/mingw32/3.4.2/../../../libmsvcrt.a(dwpds00657.o)
 .idata$7       0x00a182a8        0x4 c:/mingw/bin/../lib/gcc/mingw32/3.4.2/../../../libmsvcrt.a(dwpds00659.o)
 .idata$7       0x00a182ac        0x4 c:/mingw/bin/../lib/gcc/mingw32/3.4.2/../../../libmsvcrt.a(dwpds00660.o)
 .idata$7       0x00a182b0        0x4 c:/mingw/bin/../lib/gcc/mingw32/3.4.2/../../../libmsvcrt.a(dwpds00663.o)
 .idata$7       0x00a182b4        0x4 c:/mingw/bin/../lib/gcc/mingw32/3.4.2/../../../libmsvcrt.a(dwpds00664.o)
 .idata$7       0x00a182b8        0x4 c:/mingw/bin/../lib/gcc/mingw32/3.4.2/../../../libmsvcrt.a(dwpds00665.o)
 .idata$7       0x00a182bc        0x4 c:/mingw/bin/../lib/gcc/mingw32/3.4.2/../../../libmsvcrt.a(dwpds00667.o)
 .idata$7       0x00a182c0        0x4 c:/mingw/bin/../lib/gcc/mingw32/3.4.2/../../../libmsvcrt.a(dwpds00671.o)
 .idata$7       0x00a182c4        0x4 c:/mingw/bin/../lib/gcc/mingw32/3.4.2/../../../libmsvcrt.a(dwpds00674.o)
 .idata$7       0x00a182c8        0x4 c:/mingw/bin/../lib/gcc/mingw32/3.4.2/../../../libmsvcrt.a(dwpds00676.o)
 .idata$7       0x00a182cc        0x4 c:/mingw/bin/../lib/gcc/mingw32/3.4.2/../../../libmsvcrt.a(dwpds00679.o)
 .idata$7       0x00a182d0        0x4 c:/mingw/bin/../lib/gcc/mingw32/3.4.2/../../../libmsvcrt.a(dwpds00681.o)
 .idata$7       0x00a182d4        0x4 c:/mingw/bin/../lib/gcc/mingw32/3.4.2/../../../libmsvcrt.a(dwpds00682.o)
 .idata$7       0x00a182d8        0x4 c:/mingw/bin/../lib/gcc/mingw32/3.4.2/../../../libmsvcrt.a(dwpds00693.o)
 .idata$7       0x00a182dc        0x4 c:/mingw/bin/../lib/gcc/mingw32/3.4.2/../../../libmsvcrt.a(dwpds00701.o)
 .idata$7       0x00a182e0        0xc c:/mingw/bin/../lib/gcc/mingw32/3.4.2/../../../libmsvcrt.a(dwpdt.o)
                0x00a182e0                _libmsvcrt_a_iname
 .idata$7       0x00a182ec        0x4 c:/mingw/bin/../lib/gcc/mingw32/3.4.2/../../../libshell32.a(dsjes00104.o)
 .idata$7       0x00a182f0        0xc c:/mingw/bin/../lib/gcc/mingw32/3.4.2/../../../libshell32.a(dsjet.o)
                0x00a182f0                _libshell32_a_iname
 .idata$7       0x00a182fc        0x4 c:/mingw/bin/../lib/gcc/mingw32/3.4.2/../../../libuser32.a(dgdfs00001.o)
 .idata$7       0x00a18300        0x4 c:/mingw/bin/../lib/gcc/mingw32/3.4.2/../../../libuser32.a(dgdfs00029.o)
 .idata$7       0x00a18304        0x4 c:/mingw/bin/../lib/gcc/mingw32/3.4.2/../../../libuser32.a(dgdfs00045.o)
 .idata$7       0x00a18308        0x4 c:/mingw/bin/../lib/gcc/mingw32/3.4.2/../../../libuser32.a(dgdfs00079.o)
 .idata$7       0x00a1830c        0x4 c:/mingw/bin/../lib/gcc/mingw32/3.4.2/../../../libuser32.a(dgdfs00089.o)
 .idata$7       0x00a18310        0x4 c:/mingw/bin/../lib/gcc/mingw32/3.4.2/../../../libuser32.a(dgdfs00133.o)
 .idata$7       0x00a18314        0x4 c:/mingw/bin/../lib/gcc/mingw32/3.4.2/../../../libuser32.a(dgdfs00143.o)
 .idata$7       0x00a18318        0x4 c:/mingw/bin/../lib/gcc/mingw32/3.4.2/../../../libuser32.a(dgdfs00148.o)
 .idata$7       0x00a1831c        0x4 c:/mingw/bin/../lib/gcc/mingw32/3.4.2/../../../libuser32.a(dgdfs00179.o)
 .idata$7       0x00a18320        0x4 c:/mingw/bin/../lib/gcc/mingw32/3.4.2/../../../libuser32.a(dgdfs00193.o)
 .idata$7       0x00a18324        0x4 c:/mingw/bin/../lib/gcc/mingw32/3.4.2/../../../libuser32.a(dgdfs00235.o)
 .idata$7       0x00a18328        0x4 c:/mingw/bin/../lib/gcc/mingw32/3.4.2/../../../libuser32.a(dgdfs00247.o)
 .idata$7       0x00a1832c        0x4 c:/mingw/bin/../lib/gcc/mingw32/3.4.2/../../../libuser32.a(dgdfs00251.o)
 .idata$7       0x00a18330        0x4 c:/mingw/bin/../lib/gcc/mingw32/3.4.2/../../../libuser32.a(dgdfs00252.o)
 .idata$7       0x00a18334        0x4 c:/mingw/bin/../lib/gcc/mingw32/3.4.2/../../../libuser32.a(dgdfs00267.o)
 .idata$7       0x00a18338        0x4 c:/mingw/bin/../lib/gcc/mingw32/3.4.2/../../../libuser32.a(dgdfs00322.o)
 .idata$7       0x00a1833c        0x4 c:/mingw/bin/../lib/gcc/mingw32/3.4.2/../../../libuser32.a(dgdfs00323.o)
 .idata$7       0x00a18340        0x4 c:/mingw/bin/../lib/gcc/mingw32/3.4.2/../../../libuser32.a(dgdfs00325.o)
 .idata$7       0x00a18344        0x4 c:/mingw/bin/../lib/gcc/mingw32/3.4.2/../../../libuser32.a(dgdfs00340.o)
 .idata$7       0x00a18348        0x4 c:/mingw/bin/../lib/gcc/mingw32/3.4.2/../../../libuser32.a(dgdfs00346.o)
 .idata$7       0x00a1834c        0x4 c:/mingw/bin/../lib/gcc/mingw32/3.4.2/../../../libuser32.a(dgdfs00381.o)
 .idata$7       0x00a18350        0x4 c:/mingw/bin/../lib/gcc/mingw32/3.4.2/../../../libuser32.a(dgdfs00390.o)
 .idata$7       0x00a18354        0x4 c:/mingw/bin/../lib/gcc/mingw32/3.4.2/../../../libuser32.a(dgdfs00399.o)
 .idata$7       0x00a18358        0x4 c:/mingw/bin/../lib/gcc/mingw32/3.4.2/../../../libuser32.a(dgdfs00401.o)
 .idata$7       0x00a1835c        0x4 c:/mingw/bin/../lib/gcc/mingw32/3.4.2/../../../libuser32.a(dgdfs00407.o)
 .idata$7       0x00a18360        0x4 c:/mingw/bin/../lib/gcc/mingw32/3.4.2/../../../libuser32.a(dgdfs00430.o)
 .idata$7       0x00a18364        0x4 c:/mingw/bin/../lib/gcc/mingw32/3.4.2/../../../libuser32.a(dgdfs00441.o)
 .idata$7       0x00a18368        0x4 c:/mingw/bin/../lib/gcc/mingw32/3.4.2/../../../libuser32.a(dgdfs00442.o)
 .idata$7       0x00a1836c        0x4 c:/mingw/bin/../lib/gcc/mingw32/3.4.2/../../../libuser32.a(dgdfs00460.o)
 .idata$7       0x00a18370        0x4 c:/mingw/bin/../lib/gcc/mingw32/3.4.2/../../../libuser32.a(dgdfs00476.o)
 .idata$7       0x00a18374        0x4 c:/mingw/bin/../lib/gcc/mingw32/3.4.2/../../../libuser32.a(dgdfs00483.o)
 .idata$7       0x00a18378        0x4 c:/mingw/bin/../lib/gcc/mingw32/3.4.2/../../../libuser32.a(dgdfs00488.o)
 .idata$7       0x00a1837c        0x4 c:/mingw/bin/../lib/gcc/mingw32/3.4.2/../../../libuser32.a(dgdfs00499.o)
 .idata$7       0x00a18380        0x4 c:/mingw/bin/../lib/gcc/mingw32/3.4.2/../../../libuser32.a(dgdfs00502.o)
 .idata$7       0x00a18384        0x4 c:/mingw/bin/../lib/gcc/mingw32/3.4.2/../../../libuser32.a(dgdfs00527.o)
 .idata$7       0x00a18388        0x4 c:/mingw/bin/../lib/gcc/mingw32/3.4.2/../../../libuser32.a(dgdfs00528.o)
 .idata$7       0x00a1838c        0x4 c:/mingw/bin/../lib/gcc/mingw32/3.4.2/../../../libuser32.a(dgdfs00552.o)
 .idata$7       0x00a18390        0x4 c:/mingw/bin/../lib/gcc/mingw32/3.4.2/../../../libuser32.a(dgdfs00563.o)
 .idata$7       0x00a18394        0x4 c:/mingw/bin/../lib/gcc/mingw32/3.4.2/../../../libuser32.a(dgdfs00566.o)
 .idata$7       0x00a18398        0x4 c:/mingw/bin/../lib/gcc/mingw32/3.4.2/../../../libuser32.a(dgdfs00568.o)
 .idata$7       0x00a1839c        0x4 c:/mingw/bin/../lib/gcc/mingw32/3.4.2/../../../libuser32.a(dgdfs00579.o)
 .idata$7       0x00a183a0        0x4 c:/mingw/bin/../lib/gcc/mingw32/3.4.2/../../../libuser32.a(dgdfs00602.o)
 .idata$7       0x00a183a4        0x4 c:/mingw/bin/../lib/gcc/mingw32/3.4.2/../../../libuser32.a(dgdfs00612.o)
 .idata$7       0x00a183a8        0x4 c:/mingw/bin/../lib/gcc/mingw32/3.4.2/../../../libuser32.a(dgdfs00614.o)
 .idata$7       0x00a183ac        0x4 c:/mingw/bin/../lib/gcc/mingw32/3.4.2/../../../libuser32.a(dgdfs00633.o)
 .idata$7       0x00a183b0        0xc c:/mingw/bin/../lib/gcc/mingw32/3.4.2/../../../libuser32.a(dgdft.o)
                0x00a183b0                _libuser32_a_iname

.CRT            0x00a19000        0x0
                0x00a19000                ___crt_xc_start__ = .
 *(SORT(.CRT$XC*))
                0x00a19000                ___crt_xc_end__ = .
                0x00a19000                ___crt_xi_start__ = .
 *(SORT(.CRT$XI*))
                0x00a19000                ___crt_xi_end__ = .
                0x00a19000                ___crt_xl_start__ = .
 *(SORT(.CRT$XL*))
                0x00a19000                ___crt_xp_start__ = .
 *(SORT(.CRT$XP*))
                0x00a19000                ___crt_xp_end__ = .
                0x00a19000                ___crt_xt_start__ = .
 *(SORT(.CRT$XT*))
                0x00a19000                ___crt_xt_end__ = .

.tls            0x00a19000        0x0
                0x00a19000                ___tls_start__ = .
 *(.tls)
 *(.tls$)
 *(SORT(.tls$*))
                0x00a19000                ___tls_end__ = .

.endjunk        0x00a19000        0x0
                0x00a19000                PROVIDE (end, .)
                0x00a19000                PROVIDE (_end, .)
                0x00a19000                __end__ = .

.rsrc           0x00a19000    0x10e00
 *(.rsrc)
 .rsrc          0x00a19000    0x10c24 obj/buildres.o
 *(SORT(.rsrc$*))

.reloc
 *(.reloc)

.stab
 *(.stab)

.stabstr
 *(.stabstr)

.debug_aranges
 *(.debug_aranges)

.debug_pubnames
 *(.debug_pubnames)

.debug_info
 *(.debug_info)
 *(.gnu.linkonce.wi.*)

.debug_abbrev
 *(.debug_abbrev)

.debug_line
 *(.debug_line)

.debug_frame
 *(.debug_frame)

.debug_str
 *(.debug_str)

.debug_loc
 *(.debug_loc)

.debug_macinfo
 *(.debug_macinfo)

.debug_weaknames
 *(.debug_weaknames)

.debug_funcnames
 *(.debug_funcnames)

.debug_typenames
 *(.debug_typenames)

.debug_varnames
 *(.debug_varnames)

.debug_ranges
 *(.debug_ranges)
OUTPUT(mapster32.exe pei-i386)
